
evk_spi.elf:     file format elf32-littlearm

Sections:
Idx Name          Size      VMA       LMA       File off  Algn
  0 .isr_vector   00000188  08000000  08000000  00010000  2**0
                  CONTENTS, ALLOC, LOAD, READONLY, DATA
  1 .text         0000a63c  08000190  08000190  00010190  2**4
                  CONTENTS, ALLOC, LOAD, READONLY, CODE
  2 .rodata       00000624  0800a7cc  0800a7cc  0001a7cc  2**2
                  CONTENTS, ALLOC, LOAD, READONLY, DATA
  3 .ARM.extab    00000000  0800adf0  0800adf0  00020074  2**0
                  CONTENTS
  4 .ARM          00000008  0800adf0  0800adf0  0001adf0  2**2
                  CONTENTS, ALLOC, LOAD, READONLY, DATA
  5 .preinit_array 00000000  0800adf8  0800adf8  00020074  2**0
                  CONTENTS, ALLOC, LOAD, DATA
  6 .init_array   00000004  0800adf8  0800adf8  0001adf8  2**2
                  CONTENTS, ALLOC, LOAD, DATA
  7 .fini_array   00000004  0800adfc  0800adfc  0001adfc  2**2
                  CONTENTS, ALLOC, LOAD, DATA
  8 .data         00000074  20000000  0800ae00  00020000  2**2
                  CONTENTS, ALLOC, LOAD, DATA
  9 .ccmram       00000000  10000000  10000000  00020074  2**0
                  CONTENTS
 10 .bss          0000ad28  20000074  20000074  00020074  2**2
                  ALLOC
 11 ._user_heap_stack 00000604  2000ad9c  2000ad9c  00020074  2**0
                  ALLOC
 12 .ARM.attributes 00000030  00000000  00000000  00020074  2**0
                  CONTENTS, READONLY
 13 .comment      00000053  00000000  00000000  000200a4  2**0
                  CONTENTS, READONLY
 14 .debug_frame  00000ac0  00000000  00000000  000200f8  2**2
                  CONTENTS, READONLY, DEBUGGING, OCTETS

Disassembly of section .text:

08000190 <__do_global_dtors_aux>:
 8000190:	b510      	push	{r4, lr}
 8000192:	4c05      	ldr	r4, [pc, #20]	; (80001a8 <__do_global_dtors_aux+0x18>)
 8000194:	7823      	ldrb	r3, [r4, #0]
 8000196:	b933      	cbnz	r3, 80001a6 <__do_global_dtors_aux+0x16>
 8000198:	4b04      	ldr	r3, [pc, #16]	; (80001ac <__do_global_dtors_aux+0x1c>)
 800019a:	b113      	cbz	r3, 80001a2 <__do_global_dtors_aux+0x12>
 800019c:	4804      	ldr	r0, [pc, #16]	; (80001b0 <__do_global_dtors_aux+0x20>)
 800019e:	f3af 8000 	nop.w
 80001a2:	2301      	movs	r3, #1
 80001a4:	7023      	strb	r3, [r4, #0]
 80001a6:	bd10      	pop	{r4, pc}
 80001a8:	20000074 	.word	0x20000074
 80001ac:	00000000 	.word	0x00000000
 80001b0:	0800a7b4 	.word	0x0800a7b4

080001b4 <frame_dummy>:
 80001b4:	b508      	push	{r3, lr}
 80001b6:	4b03      	ldr	r3, [pc, #12]	; (80001c4 <frame_dummy+0x10>)
 80001b8:	b11b      	cbz	r3, 80001c2 <frame_dummy+0xe>
 80001ba:	4903      	ldr	r1, [pc, #12]	; (80001c8 <frame_dummy+0x14>)
 80001bc:	4803      	ldr	r0, [pc, #12]	; (80001cc <frame_dummy+0x18>)
 80001be:	f3af 8000 	nop.w
 80001c2:	bd08      	pop	{r3, pc}
 80001c4:	00000000 	.word	0x00000000
 80001c8:	20000078 	.word	0x20000078
 80001cc:	0800a7b4 	.word	0x0800a7b4

080001d0 <strlen>:
 80001d0:	4603      	mov	r3, r0
 80001d2:	f813 2b01 	ldrb.w	r2, [r3], #1
 80001d6:	2a00      	cmp	r2, #0
 80001d8:	d1fb      	bne.n	80001d2 <strlen+0x2>
 80001da:	1a18      	subs	r0, r3, r0
 80001dc:	3801      	subs	r0, #1
 80001de:	4770      	bx	lr

080001e0 <memchr>:
 80001e0:	f001 01ff 	and.w	r1, r1, #255	; 0xff
 80001e4:	2a10      	cmp	r2, #16
 80001e6:	db2b      	blt.n	8000240 <memchr+0x60>
 80001e8:	f010 0f07 	tst.w	r0, #7
 80001ec:	d008      	beq.n	8000200 <memchr+0x20>
 80001ee:	f810 3b01 	ldrb.w	r3, [r0], #1
 80001f2:	3a01      	subs	r2, #1
 80001f4:	428b      	cmp	r3, r1
 80001f6:	d02d      	beq.n	8000254 <memchr+0x74>
 80001f8:	f010 0f07 	tst.w	r0, #7
 80001fc:	b342      	cbz	r2, 8000250 <memchr+0x70>
 80001fe:	d1f6      	bne.n	80001ee <memchr+0xe>
 8000200:	b4f0      	push	{r4, r5, r6, r7}
 8000202:	ea41 2101 	orr.w	r1, r1, r1, lsl #8
 8000206:	ea41 4101 	orr.w	r1, r1, r1, lsl #16
 800020a:	f022 0407 	bic.w	r4, r2, #7
 800020e:	f07f 0700 	mvns.w	r7, #0
 8000212:	2300      	movs	r3, #0
 8000214:	e8f0 5602 	ldrd	r5, r6, [r0], #8
 8000218:	3c08      	subs	r4, #8
 800021a:	ea85 0501 	eor.w	r5, r5, r1
 800021e:	ea86 0601 	eor.w	r6, r6, r1
 8000222:	fa85 f547 	uadd8	r5, r5, r7
 8000226:	faa3 f587 	sel	r5, r3, r7
 800022a:	fa86 f647 	uadd8	r6, r6, r7
 800022e:	faa5 f687 	sel	r6, r5, r7
 8000232:	b98e      	cbnz	r6, 8000258 <memchr+0x78>
 8000234:	d1ee      	bne.n	8000214 <memchr+0x34>
 8000236:	bcf0      	pop	{r4, r5, r6, r7}
 8000238:	f001 01ff 	and.w	r1, r1, #255	; 0xff
 800023c:	f002 0207 	and.w	r2, r2, #7
 8000240:	b132      	cbz	r2, 8000250 <memchr+0x70>
 8000242:	f810 3b01 	ldrb.w	r3, [r0], #1
 8000246:	3a01      	subs	r2, #1
 8000248:	ea83 0301 	eor.w	r3, r3, r1
 800024c:	b113      	cbz	r3, 8000254 <memchr+0x74>
 800024e:	d1f8      	bne.n	8000242 <memchr+0x62>
 8000250:	2000      	movs	r0, #0
 8000252:	4770      	bx	lr
 8000254:	3801      	subs	r0, #1
 8000256:	4770      	bx	lr
 8000258:	2d00      	cmp	r5, #0
 800025a:	bf06      	itte	eq
 800025c:	4635      	moveq	r5, r6
 800025e:	3803      	subeq	r0, #3
 8000260:	3807      	subne	r0, #7
 8000262:	f015 0f01 	tst.w	r5, #1
 8000266:	d107      	bne.n	8000278 <memchr+0x98>
 8000268:	3001      	adds	r0, #1
 800026a:	f415 7f80 	tst.w	r5, #256	; 0x100
 800026e:	bf02      	ittt	eq
 8000270:	3001      	addeq	r0, #1
 8000272:	f415 3fc0 	tsteq.w	r5, #98304	; 0x18000
 8000276:	3001      	addeq	r0, #1
 8000278:	bcf0      	pop	{r4, r5, r6, r7}
 800027a:	3801      	subs	r0, #1
 800027c:	4770      	bx	lr
 800027e:	bf00      	nop

08000280 <__aeabi_uldivmod>:
 8000280:	b953      	cbnz	r3, 8000298 <__aeabi_uldivmod+0x18>
 8000282:	b94a      	cbnz	r2, 8000298 <__aeabi_uldivmod+0x18>
 8000284:	2900      	cmp	r1, #0
 8000286:	bf08      	it	eq
 8000288:	2800      	cmpeq	r0, #0
 800028a:	bf1c      	itt	ne
 800028c:	f04f 31ff 	movne.w	r1, #4294967295	; 0xffffffff
 8000290:	f04f 30ff 	movne.w	r0, #4294967295	; 0xffffffff
 8000294:	f000 b96e 	b.w	8000574 <__aeabi_idiv0>
 8000298:	f1ad 0c08 	sub.w	ip, sp, #8
 800029c:	e96d ce04 	strd	ip, lr, [sp, #-16]!
 80002a0:	f000 f806 	bl	80002b0 <__udivmoddi4>
 80002a4:	f8dd e004 	ldr.w	lr, [sp, #4]
 80002a8:	e9dd 2302 	ldrd	r2, r3, [sp, #8]
 80002ac:	b004      	add	sp, #16
 80002ae:	4770      	bx	lr

080002b0 <__udivmoddi4>:
 80002b0:	e92d 47f0 	stmdb	sp!, {r4, r5, r6, r7, r8, r9, sl, lr}
 80002b4:	9d08      	ldr	r5, [sp, #32]
 80002b6:	4604      	mov	r4, r0
 80002b8:	468c      	mov	ip, r1
 80002ba:	2b00      	cmp	r3, #0
 80002bc:	f040 8083 	bne.w	80003c6 <__udivmoddi4+0x116>
 80002c0:	428a      	cmp	r2, r1
 80002c2:	4617      	mov	r7, r2
 80002c4:	d947      	bls.n	8000356 <__udivmoddi4+0xa6>
 80002c6:	fab2 f282 	clz	r2, r2
 80002ca:	b142      	cbz	r2, 80002de <__udivmoddi4+0x2e>
 80002cc:	f1c2 0020 	rsb	r0, r2, #32
 80002d0:	fa24 f000 	lsr.w	r0, r4, r0
 80002d4:	4091      	lsls	r1, r2
 80002d6:	4097      	lsls	r7, r2
 80002d8:	ea40 0c01 	orr.w	ip, r0, r1
 80002dc:	4094      	lsls	r4, r2
 80002de:	ea4f 4817 	mov.w	r8, r7, lsr #16
 80002e2:	0c23      	lsrs	r3, r4, #16
 80002e4:	fbbc f6f8 	udiv	r6, ip, r8
 80002e8:	fa1f fe87 	uxth.w	lr, r7
 80002ec:	fb08 c116 	mls	r1, r8, r6, ip
 80002f0:	ea43 4301 	orr.w	r3, r3, r1, lsl #16
 80002f4:	fb06 f10e 	mul.w	r1, r6, lr
 80002f8:	4299      	cmp	r1, r3
 80002fa:	d909      	bls.n	8000310 <__udivmoddi4+0x60>
 80002fc:	18fb      	adds	r3, r7, r3
 80002fe:	f106 30ff 	add.w	r0, r6, #4294967295	; 0xffffffff
 8000302:	f080 8119 	bcs.w	8000538 <__udivmoddi4+0x288>
 8000306:	4299      	cmp	r1, r3
 8000308:	f240 8116 	bls.w	8000538 <__udivmoddi4+0x288>
 800030c:	3e02      	subs	r6, #2
 800030e:	443b      	add	r3, r7
 8000310:	1a5b      	subs	r3, r3, r1
 8000312:	b2a4      	uxth	r4, r4
 8000314:	fbb3 f0f8 	udiv	r0, r3, r8
 8000318:	fb08 3310 	mls	r3, r8, r0, r3
 800031c:	ea44 4403 	orr.w	r4, r4, r3, lsl #16
 8000320:	fb00 fe0e 	mul.w	lr, r0, lr
 8000324:	45a6      	cmp	lr, r4
 8000326:	d909      	bls.n	800033c <__udivmoddi4+0x8c>
 8000328:	193c      	adds	r4, r7, r4
 800032a:	f100 33ff 	add.w	r3, r0, #4294967295	; 0xffffffff
 800032e:	f080 8105 	bcs.w	800053c <__udivmoddi4+0x28c>
 8000332:	45a6      	cmp	lr, r4
 8000334:	f240 8102 	bls.w	800053c <__udivmoddi4+0x28c>
 8000338:	3802      	subs	r0, #2
 800033a:	443c      	add	r4, r7
 800033c:	ea40 4006 	orr.w	r0, r0, r6, lsl #16
 8000340:	eba4 040e 	sub.w	r4, r4, lr
 8000344:	2600      	movs	r6, #0
 8000346:	b11d      	cbz	r5, 8000350 <__udivmoddi4+0xa0>
 8000348:	40d4      	lsrs	r4, r2
 800034a:	2300      	movs	r3, #0
 800034c:	e9c5 4300 	strd	r4, r3, [r5]
 8000350:	4631      	mov	r1, r6
 8000352:	e8bd 87f0 	ldmia.w	sp!, {r4, r5, r6, r7, r8, r9, sl, pc}
 8000356:	b902      	cbnz	r2, 800035a <__udivmoddi4+0xaa>
 8000358:	deff      	udf	#255	; 0xff
 800035a:	fab2 f282 	clz	r2, r2
 800035e:	2a00      	cmp	r2, #0
 8000360:	d150      	bne.n	8000404 <__udivmoddi4+0x154>
 8000362:	1bcb      	subs	r3, r1, r7
 8000364:	ea4f 4e17 	mov.w	lr, r7, lsr #16
 8000368:	fa1f f887 	uxth.w	r8, r7
 800036c:	2601      	movs	r6, #1
 800036e:	fbb3 fcfe 	udiv	ip, r3, lr
 8000372:	0c21      	lsrs	r1, r4, #16
 8000374:	fb0e 331c 	mls	r3, lr, ip, r3
 8000378:	ea41 4103 	orr.w	r1, r1, r3, lsl #16
 800037c:	fb08 f30c 	mul.w	r3, r8, ip
 8000380:	428b      	cmp	r3, r1
 8000382:	d907      	bls.n	8000394 <__udivmoddi4+0xe4>
 8000384:	1879      	adds	r1, r7, r1
 8000386:	f10c 30ff 	add.w	r0, ip, #4294967295	; 0xffffffff
 800038a:	d202      	bcs.n	8000392 <__udivmoddi4+0xe2>
 800038c:	428b      	cmp	r3, r1
 800038e:	f200 80e9 	bhi.w	8000564 <__udivmoddi4+0x2b4>
 8000392:	4684      	mov	ip, r0
 8000394:	1ac9      	subs	r1, r1, r3
 8000396:	b2a3      	uxth	r3, r4
 8000398:	fbb1 f0fe 	udiv	r0, r1, lr
 800039c:	fb0e 1110 	mls	r1, lr, r0, r1
 80003a0:	ea43 4401 	orr.w	r4, r3, r1, lsl #16
 80003a4:	fb08 f800 	mul.w	r8, r8, r0
 80003a8:	45a0      	cmp	r8, r4
 80003aa:	d907      	bls.n	80003bc <__udivmoddi4+0x10c>
 80003ac:	193c      	adds	r4, r7, r4
 80003ae:	f100 33ff 	add.w	r3, r0, #4294967295	; 0xffffffff
 80003b2:	d202      	bcs.n	80003ba <__udivmoddi4+0x10a>
 80003b4:	45a0      	cmp	r8, r4
 80003b6:	f200 80d9 	bhi.w	800056c <__udivmoddi4+0x2bc>
 80003ba:	4618      	mov	r0, r3
 80003bc:	eba4 0408 	sub.w	r4, r4, r8
 80003c0:	ea40 400c 	orr.w	r0, r0, ip, lsl #16
 80003c4:	e7bf      	b.n	8000346 <__udivmoddi4+0x96>
 80003c6:	428b      	cmp	r3, r1
 80003c8:	d909      	bls.n	80003de <__udivmoddi4+0x12e>
 80003ca:	2d00      	cmp	r5, #0
 80003cc:	f000 80b1 	beq.w	8000532 <__udivmoddi4+0x282>
 80003d0:	2600      	movs	r6, #0
 80003d2:	e9c5 0100 	strd	r0, r1, [r5]
 80003d6:	4630      	mov	r0, r6
 80003d8:	4631      	mov	r1, r6
 80003da:	e8bd 87f0 	ldmia.w	sp!, {r4, r5, r6, r7, r8, r9, sl, pc}
 80003de:	fab3 f683 	clz	r6, r3
 80003e2:	2e00      	cmp	r6, #0
 80003e4:	d14a      	bne.n	800047c <__udivmoddi4+0x1cc>
 80003e6:	428b      	cmp	r3, r1
 80003e8:	d302      	bcc.n	80003f0 <__udivmoddi4+0x140>
 80003ea:	4282      	cmp	r2, r0
 80003ec:	f200 80b8 	bhi.w	8000560 <__udivmoddi4+0x2b0>
 80003f0:	1a84      	subs	r4, r0, r2
 80003f2:	eb61 0103 	sbc.w	r1, r1, r3
 80003f6:	2001      	movs	r0, #1
 80003f8:	468c      	mov	ip, r1
 80003fa:	2d00      	cmp	r5, #0
 80003fc:	d0a8      	beq.n	8000350 <__udivmoddi4+0xa0>
 80003fe:	e9c5 4c00 	strd	r4, ip, [r5]
 8000402:	e7a5      	b.n	8000350 <__udivmoddi4+0xa0>
 8000404:	f1c2 0320 	rsb	r3, r2, #32
 8000408:	fa20 f603 	lsr.w	r6, r0, r3
 800040c:	4097      	lsls	r7, r2
 800040e:	fa01 f002 	lsl.w	r0, r1, r2
 8000412:	ea4f 4e17 	mov.w	lr, r7, lsr #16
 8000416:	40d9      	lsrs	r1, r3
 8000418:	4330      	orrs	r0, r6
 800041a:	0c03      	lsrs	r3, r0, #16
 800041c:	fbb1 f6fe 	udiv	r6, r1, lr
 8000420:	fa1f f887 	uxth.w	r8, r7
 8000424:	fb0e 1116 	mls	r1, lr, r6, r1
 8000428:	ea43 4301 	orr.w	r3, r3, r1, lsl #16
 800042c:	fb06 f108 	mul.w	r1, r6, r8
 8000430:	4299      	cmp	r1, r3
 8000432:	fa04 f402 	lsl.w	r4, r4, r2
 8000436:	d909      	bls.n	800044c <__udivmoddi4+0x19c>
 8000438:	18fb      	adds	r3, r7, r3
 800043a:	f106 3cff 	add.w	ip, r6, #4294967295	; 0xffffffff
 800043e:	f080 808d 	bcs.w	800055c <__udivmoddi4+0x2ac>
 8000442:	4299      	cmp	r1, r3
 8000444:	f240 808a 	bls.w	800055c <__udivmoddi4+0x2ac>
 8000448:	3e02      	subs	r6, #2
 800044a:	443b      	add	r3, r7
 800044c:	1a5b      	subs	r3, r3, r1
 800044e:	b281      	uxth	r1, r0
 8000450:	fbb3 f0fe 	udiv	r0, r3, lr
 8000454:	fb0e 3310 	mls	r3, lr, r0, r3
 8000458:	ea41 4103 	orr.w	r1, r1, r3, lsl #16
 800045c:	fb00 f308 	mul.w	r3, r0, r8
 8000460:	428b      	cmp	r3, r1
 8000462:	d907      	bls.n	8000474 <__udivmoddi4+0x1c4>
 8000464:	1879      	adds	r1, r7, r1
 8000466:	f100 3cff 	add.w	ip, r0, #4294967295	; 0xffffffff
 800046a:	d273      	bcs.n	8000554 <__udivmoddi4+0x2a4>
 800046c:	428b      	cmp	r3, r1
 800046e:	d971      	bls.n	8000554 <__udivmoddi4+0x2a4>
 8000470:	3802      	subs	r0, #2
 8000472:	4439      	add	r1, r7
 8000474:	1acb      	subs	r3, r1, r3
 8000476:	ea40 4606 	orr.w	r6, r0, r6, lsl #16
 800047a:	e778      	b.n	800036e <__udivmoddi4+0xbe>
 800047c:	f1c6 0c20 	rsb	ip, r6, #32
 8000480:	fa03 f406 	lsl.w	r4, r3, r6
 8000484:	fa22 f30c 	lsr.w	r3, r2, ip
 8000488:	431c      	orrs	r4, r3
 800048a:	fa20 f70c 	lsr.w	r7, r0, ip
 800048e:	fa01 f306 	lsl.w	r3, r1, r6
 8000492:	ea4f 4e14 	mov.w	lr, r4, lsr #16
 8000496:	fa21 f10c 	lsr.w	r1, r1, ip
 800049a:	431f      	orrs	r7, r3
 800049c:	0c3b      	lsrs	r3, r7, #16
 800049e:	fbb1 f9fe 	udiv	r9, r1, lr
 80004a2:	fa1f f884 	uxth.w	r8, r4
 80004a6:	fb0e 1119 	mls	r1, lr, r9, r1
 80004aa:	ea43 4101 	orr.w	r1, r3, r1, lsl #16
 80004ae:	fb09 fa08 	mul.w	sl, r9, r8
 80004b2:	458a      	cmp	sl, r1
 80004b4:	fa02 f206 	lsl.w	r2, r2, r6
 80004b8:	fa00 f306 	lsl.w	r3, r0, r6
 80004bc:	d908      	bls.n	80004d0 <__udivmoddi4+0x220>
 80004be:	1861      	adds	r1, r4, r1
 80004c0:	f109 30ff 	add.w	r0, r9, #4294967295	; 0xffffffff
 80004c4:	d248      	bcs.n	8000558 <__udivmoddi4+0x2a8>
 80004c6:	458a      	cmp	sl, r1
 80004c8:	d946      	bls.n	8000558 <__udivmoddi4+0x2a8>
 80004ca:	f1a9 0902 	sub.w	r9, r9, #2
 80004ce:	4421      	add	r1, r4
 80004d0:	eba1 010a 	sub.w	r1, r1, sl
 80004d4:	b2bf      	uxth	r7, r7
 80004d6:	fbb1 f0fe 	udiv	r0, r1, lr
 80004da:	fb0e 1110 	mls	r1, lr, r0, r1
 80004de:	ea47 4701 	orr.w	r7, r7, r1, lsl #16
 80004e2:	fb00 f808 	mul.w	r8, r0, r8
 80004e6:	45b8      	cmp	r8, r7
 80004e8:	d907      	bls.n	80004fa <__udivmoddi4+0x24a>
 80004ea:	19e7      	adds	r7, r4, r7
 80004ec:	f100 31ff 	add.w	r1, r0, #4294967295	; 0xffffffff
 80004f0:	d22e      	bcs.n	8000550 <__udivmoddi4+0x2a0>
 80004f2:	45b8      	cmp	r8, r7
 80004f4:	d92c      	bls.n	8000550 <__udivmoddi4+0x2a0>
 80004f6:	3802      	subs	r0, #2
 80004f8:	4427      	add	r7, r4
 80004fa:	ea40 4009 	orr.w	r0, r0, r9, lsl #16
 80004fe:	eba7 0708 	sub.w	r7, r7, r8
 8000502:	fba0 8902 	umull	r8, r9, r0, r2
 8000506:	454f      	cmp	r7, r9
 8000508:	46c6      	mov	lr, r8
 800050a:	4649      	mov	r1, r9
 800050c:	d31a      	bcc.n	8000544 <__udivmoddi4+0x294>
 800050e:	d017      	beq.n	8000540 <__udivmoddi4+0x290>
 8000510:	b15d      	cbz	r5, 800052a <__udivmoddi4+0x27a>
 8000512:	ebb3 020e 	subs.w	r2, r3, lr
 8000516:	eb67 0701 	sbc.w	r7, r7, r1
 800051a:	fa07 fc0c 	lsl.w	ip, r7, ip
 800051e:	40f2      	lsrs	r2, r6
 8000520:	ea4c 0202 	orr.w	r2, ip, r2
 8000524:	40f7      	lsrs	r7, r6
 8000526:	e9c5 2700 	strd	r2, r7, [r5]
 800052a:	2600      	movs	r6, #0
 800052c:	4631      	mov	r1, r6
 800052e:	e8bd 87f0 	ldmia.w	sp!, {r4, r5, r6, r7, r8, r9, sl, pc}
 8000532:	462e      	mov	r6, r5
 8000534:	4628      	mov	r0, r5
 8000536:	e70b      	b.n	8000350 <__udivmoddi4+0xa0>
 8000538:	4606      	mov	r6, r0
 800053a:	e6e9      	b.n	8000310 <__udivmoddi4+0x60>
 800053c:	4618      	mov	r0, r3
 800053e:	e6fd      	b.n	800033c <__udivmoddi4+0x8c>
 8000540:	4543      	cmp	r3, r8
 8000542:	d2e5      	bcs.n	8000510 <__udivmoddi4+0x260>
 8000544:	ebb8 0e02 	subs.w	lr, r8, r2
 8000548:	eb69 0104 	sbc.w	r1, r9, r4
 800054c:	3801      	subs	r0, #1
 800054e:	e7df      	b.n	8000510 <__udivmoddi4+0x260>
 8000550:	4608      	mov	r0, r1
 8000552:	e7d2      	b.n	80004fa <__udivmoddi4+0x24a>
 8000554:	4660      	mov	r0, ip
 8000556:	e78d      	b.n	8000474 <__udivmoddi4+0x1c4>
 8000558:	4681      	mov	r9, r0
 800055a:	e7b9      	b.n	80004d0 <__udivmoddi4+0x220>
 800055c:	4666      	mov	r6, ip
 800055e:	e775      	b.n	800044c <__udivmoddi4+0x19c>
 8000560:	4630      	mov	r0, r6
 8000562:	e74a      	b.n	80003fa <__udivmoddi4+0x14a>
 8000564:	f1ac 0c02 	sub.w	ip, ip, #2
 8000568:	4439      	add	r1, r7
 800056a:	e713      	b.n	8000394 <__udivmoddi4+0xe4>
 800056c:	3802      	subs	r0, #2
 800056e:	443c      	add	r4, r7
 8000570:	e724      	b.n	80003bc <__udivmoddi4+0x10c>
 8000572:	bf00      	nop

08000574 <__aeabi_idiv0>:
 8000574:	4770      	bx	lr
 8000576:	bf00      	nop

08000578 <vApplicationGetIdleTaskMemory>:
 8000578:	4b03      	ldr	r3, [pc, #12]	; (8000588 <vApplicationGetIdleTaskMemory+0x10>)
 800057a:	6003      	str	r3, [r0, #0]
 800057c:	4b03      	ldr	r3, [pc, #12]	; (800058c <vApplicationGetIdleTaskMemory+0x14>)
 800057e:	600b      	str	r3, [r1, #0]
 8000580:	2380      	movs	r3, #128	; 0x80
 8000582:	6013      	str	r3, [r2, #0]
 8000584:	4770      	bx	lr
 8000586:	bf00      	nop
 8000588:	20000290 	.word	0x20000290
 800058c:	20000090 	.word	0x20000090

08000590 <MX_FREERTOS_Init>:
 8000590:	b51f      	push	{r0, r1, r2, r3, r4, lr}
 8000592:	f000 ff0d 	bl	80013b0 <netInit>
 8000596:	b128      	cbz	r0, 80005a4 <MX_FREERTOS_Init+0x14>
 8000598:	4823      	ldr	r0, [pc, #140]	; (8000628 <MX_FREERTOS_Init+0x98>)
 800059a:	2201      	movs	r2, #1
 800059c:	f44f 5180 	mov.w	r1, #4096	; 0x1000
 80005a0:	f006 fd6e 	bl	8007080 <HAL_GPIO_WritePin>
 80005a4:	4921      	ldr	r1, [pc, #132]	; (800062c <MX_FREERTOS_Init+0x9c>)
 80005a6:	4822      	ldr	r0, [pc, #136]	; (8000630 <MX_FREERTOS_Init+0xa0>)
 80005a8:	f000 ff8c 	bl	80014c4 <netSetInterfaceName>
 80005ac:	4921      	ldr	r1, [pc, #132]	; (8000634 <MX_FREERTOS_Init+0xa4>)
 80005ae:	4820      	ldr	r0, [pc, #128]	; (8000630 <MX_FREERTOS_Init+0xa0>)
 80005b0:	f000 ffa0 	bl	80014f4 <netSetHostname>
 80005b4:	a902      	add	r1, sp, #8
 80005b6:	4820      	ldr	r0, [pc, #128]	; (8000638 <MX_FREERTOS_Init+0xa8>)
 80005b8:	f000 fcda 	bl	8000f70 <macStringToAddr>
 80005bc:	a902      	add	r1, sp, #8
 80005be:	481c      	ldr	r0, [pc, #112]	; (8000630 <MX_FREERTOS_Init+0xa0>)
 80005c0:	f000 ff64 	bl	800148c <netSetMacAddr>
 80005c4:	491d      	ldr	r1, [pc, #116]	; (800063c <MX_FREERTOS_Init+0xac>)
 80005c6:	481a      	ldr	r0, [pc, #104]	; (8000630 <MX_FREERTOS_Init+0xa0>)
 80005c8:	f000 ffac 	bl	8001524 <netSetDriver>
 80005cc:	491c      	ldr	r1, [pc, #112]	; (8000640 <MX_FREERTOS_Init+0xb0>)
 80005ce:	4818      	ldr	r0, [pc, #96]	; (8000630 <MX_FREERTOS_Init+0xa0>)
 80005d0:	f000 ffba 	bl	8001548 <netSetSpiDriver>
 80005d4:	491b      	ldr	r1, [pc, #108]	; (8000644 <MX_FREERTOS_Init+0xb4>)
 80005d6:	4816      	ldr	r0, [pc, #88]	; (8000630 <MX_FREERTOS_Init+0xa0>)
 80005d8:	f000 ffc8 	bl	800156c <netSetExtIntDriver>
 80005dc:	4814      	ldr	r0, [pc, #80]	; (8000630 <MX_FREERTOS_Init+0xa0>)
 80005de:	f000 ffd7 	bl	8001590 <netConfigInterface>
 80005e2:	b128      	cbz	r0, 80005f0 <MX_FREERTOS_Init+0x60>
 80005e4:	4810      	ldr	r0, [pc, #64]	; (8000628 <MX_FREERTOS_Init+0x98>)
 80005e6:	2201      	movs	r2, #1
 80005e8:	f44f 5180 	mov.w	r1, #4096	; 0x1000
 80005ec:	f006 fd48 	bl	8007080 <HAL_GPIO_WritePin>
 80005f0:	a901      	add	r1, sp, #4
 80005f2:	4815      	ldr	r0, [pc, #84]	; (8000648 <MX_FREERTOS_Init+0xb8>)
 80005f4:	f005 fefa 	bl	80063ec <ipv4StringToAddr>
 80005f8:	9901      	ldr	r1, [sp, #4]
 80005fa:	480d      	ldr	r0, [pc, #52]	; (8000630 <MX_FREERTOS_Init+0xa0>)
 80005fc:	f005 fc72 	bl	8005ee4 <ipv4SetHostAddr>
 8000600:	a901      	add	r1, sp, #4
 8000602:	4812      	ldr	r0, [pc, #72]	; (800064c <MX_FREERTOS_Init+0xbc>)
 8000604:	f005 fef2 	bl	80063ec <ipv4StringToAddr>
 8000608:	9901      	ldr	r1, [sp, #4]
 800060a:	4809      	ldr	r0, [pc, #36]	; (8000630 <MX_FREERTOS_Init+0xa0>)
 800060c:	f005 fc86 	bl	8005f1c <ipv4SetSubnetMask>
 8000610:	a901      	add	r1, sp, #4
 8000612:	480f      	ldr	r0, [pc, #60]	; (8000650 <MX_FREERTOS_Init+0xc0>)
 8000614:	f005 feea 	bl	80063ec <ipv4StringToAddr>
 8000618:	9901      	ldr	r1, [sp, #4]
 800061a:	4805      	ldr	r0, [pc, #20]	; (8000630 <MX_FREERTOS_Init+0xa0>)
 800061c:	f005 fca0 	bl	8005f60 <ipv4SetDefaultGateway>
 8000620:	b005      	add	sp, #20
 8000622:	f85d fb04 	ldr.w	pc, [sp], #4
 8000626:	bf00      	nop
 8000628:	40020c00 	.word	0x40020c00
 800062c:	0800a7cc 	.word	0x0800a7cc
 8000630:	20008944 	.word	0x20008944
 8000634:	0800a7d1 	.word	0x0800a7d1
 8000638:	0800a7e3 	.word	0x0800a7e3
 800063c:	0800abd4 	.word	0x0800abd4
 8000640:	0800ac3c 	.word	0x0800ac3c
 8000644:	0800ac30 	.word	0x0800ac30
 8000648:	0800a7f5 	.word	0x0800a7f5
 800064c:	0800a802 	.word	0x0800a802
 8000650:	0800a810 	.word	0x0800a810

08000654 <MX_GPIO_Init>:
 8000654:	b5f0      	push	{r4, r5, r6, r7, lr}
 8000656:	2214      	movs	r2, #20
 8000658:	b08b      	sub	sp, #44	; 0x2c
 800065a:	eb0d 0002 	add.w	r0, sp, r2
 800065e:	2100      	movs	r1, #0
 8000660:	f008 ff85 	bl	800956e <memset>
 8000664:	2400      	movs	r4, #0
 8000666:	4b2f      	ldr	r3, [pc, #188]	; (8000724 <MX_GPIO_Init+0xd0>)
 8000668:	9401      	str	r4, [sp, #4]
 800066a:	6b1a      	ldr	r2, [r3, #48]	; 0x30
 800066c:	4e2e      	ldr	r6, [pc, #184]	; (8000728 <MX_GPIO_Init+0xd4>)
 800066e:	4f2f      	ldr	r7, [pc, #188]	; (800072c <MX_GPIO_Init+0xd8>)
 8000670:	f042 0280 	orr.w	r2, r2, #128	; 0x80
 8000674:	631a      	str	r2, [r3, #48]	; 0x30
 8000676:	6b1a      	ldr	r2, [r3, #48]	; 0x30
 8000678:	f002 0280 	and.w	r2, r2, #128	; 0x80
 800067c:	9201      	str	r2, [sp, #4]
 800067e:	9a01      	ldr	r2, [sp, #4]
 8000680:	9402      	str	r4, [sp, #8]
 8000682:	6b1a      	ldr	r2, [r3, #48]	; 0x30
 8000684:	f042 0204 	orr.w	r2, r2, #4
 8000688:	631a      	str	r2, [r3, #48]	; 0x30
 800068a:	6b1a      	ldr	r2, [r3, #48]	; 0x30
 800068c:	f002 0204 	and.w	r2, r2, #4
 8000690:	9202      	str	r2, [sp, #8]
 8000692:	9a02      	ldr	r2, [sp, #8]
 8000694:	9403      	str	r4, [sp, #12]
 8000696:	6b1a      	ldr	r2, [r3, #48]	; 0x30
 8000698:	f042 0202 	orr.w	r2, r2, #2
 800069c:	631a      	str	r2, [r3, #48]	; 0x30
 800069e:	6b1a      	ldr	r2, [r3, #48]	; 0x30
 80006a0:	f002 0202 	and.w	r2, r2, #2
 80006a4:	9203      	str	r2, [sp, #12]
 80006a6:	9a03      	ldr	r2, [sp, #12]
 80006a8:	9404      	str	r4, [sp, #16]
 80006aa:	6b1a      	ldr	r2, [r3, #48]	; 0x30
 80006ac:	f042 0208 	orr.w	r2, r2, #8
 80006b0:	631a      	str	r2, [r3, #48]	; 0x30
 80006b2:	6b1b      	ldr	r3, [r3, #48]	; 0x30
 80006b4:	f003 0308 	and.w	r3, r3, #8
 80006b8:	9304      	str	r3, [sp, #16]
 80006ba:	4630      	mov	r0, r6
 80006bc:	2201      	movs	r2, #1
 80006be:	2110      	movs	r1, #16
 80006c0:	9b04      	ldr	r3, [sp, #16]
 80006c2:	f006 fcdd 	bl	8007080 <HAL_GPIO_WritePin>
 80006c6:	4622      	mov	r2, r4
 80006c8:	4638      	mov	r0, r7
 80006ca:	f44f 4170 	mov.w	r1, #61440	; 0xf000
 80006ce:	f006 fcd7 	bl	8007080 <HAL_GPIO_WritePin>
 80006d2:	2501      	movs	r5, #1
 80006d4:	2310      	movs	r3, #16
 80006d6:	a905      	add	r1, sp, #20
 80006d8:	4630      	mov	r0, r6
 80006da:	e9cd 3505 	strd	r3, r5, [sp, #20]
 80006de:	e9cd 4407 	strd	r4, r4, [sp, #28]
 80006e2:	f006 fbf3 	bl	8006ecc <HAL_GPIO_Init>
 80006e6:	2220      	movs	r2, #32
 80006e8:	f44f 1304 	mov.w	r3, #2162688	; 0x210000
 80006ec:	a905      	add	r1, sp, #20
 80006ee:	4630      	mov	r0, r6
 80006f0:	e9cd 2305 	strd	r2, r3, [sp, #20]
 80006f4:	9507      	str	r5, [sp, #28]
 80006f6:	f006 fbe9 	bl	8006ecc <HAL_GPIO_Init>
 80006fa:	f44f 4370 	mov.w	r3, #61440	; 0xf000
 80006fe:	a905      	add	r1, sp, #20
 8000700:	4638      	mov	r0, r7
 8000702:	e9cd 3505 	strd	r3, r5, [sp, #20]
 8000706:	e9cd 4407 	strd	r4, r4, [sp, #28]
 800070a:	f006 fbdf 	bl	8006ecc <HAL_GPIO_Init>
 800070e:	4622      	mov	r2, r4
 8000710:	2105      	movs	r1, #5
 8000712:	2017      	movs	r0, #23
 8000714:	f006 fb9a 	bl	8006e4c <HAL_NVIC_SetPriority>
 8000718:	2017      	movs	r0, #23
 800071a:	f006 fbc9 	bl	8006eb0 <HAL_NVIC_EnableIRQ>
 800071e:	b00b      	add	sp, #44	; 0x2c
 8000720:	bdf0      	pop	{r4, r5, r6, r7, pc}
 8000722:	bf00      	nop
 8000724:	40023800 	.word	0x40023800
 8000728:	40020800 	.word	0x40020800
 800072c:	40020c00 	.word	0x40020c00

08000730 <SystemClock_Config>:
 8000730:	b510      	push	{r4, lr}
 8000732:	b094      	sub	sp, #80	; 0x50
 8000734:	2214      	movs	r2, #20
 8000736:	2100      	movs	r1, #0
 8000738:	a809      	add	r0, sp, #36	; 0x24
 800073a:	f008 ff18 	bl	800956e <memset>
 800073e:	2214      	movs	r2, #20
 8000740:	2100      	movs	r1, #0
 8000742:	a803      	add	r0, sp, #12
 8000744:	f008 ff13 	bl	800956e <memset>
 8000748:	2300      	movs	r3, #0
 800074a:	4a1f      	ldr	r2, [pc, #124]	; (80007c8 <SystemClock_Config+0x98>)
 800074c:	9301      	str	r3, [sp, #4]
 800074e:	6c11      	ldr	r1, [r2, #64]	; 0x40
 8000750:	f041 5180 	orr.w	r1, r1, #268435456	; 0x10000000
 8000754:	6411      	str	r1, [r2, #64]	; 0x40
 8000756:	6c12      	ldr	r2, [r2, #64]	; 0x40
 8000758:	f002 5280 	and.w	r2, r2, #268435456	; 0x10000000
 800075c:	9201      	str	r2, [sp, #4]
 800075e:	9a01      	ldr	r2, [sp, #4]
 8000760:	4a1a      	ldr	r2, [pc, #104]	; (80007cc <SystemClock_Config+0x9c>)
 8000762:	9302      	str	r3, [sp, #8]
 8000764:	6811      	ldr	r1, [r2, #0]
 8000766:	f441 4180 	orr.w	r1, r1, #16384	; 0x4000
 800076a:	6011      	str	r1, [r2, #0]
 800076c:	6812      	ldr	r2, [r2, #0]
 800076e:	2402      	movs	r4, #2
 8000770:	f402 4280 	and.w	r2, r2, #16384	; 0x4000
 8000774:	2008      	movs	r0, #8
 8000776:	e9cd 430e 	strd	r4, r3, [sp, #56]	; 0x38
 800077a:	9202      	str	r2, [sp, #8]
 800077c:	23a8      	movs	r3, #168	; 0xa8
 800077e:	e9cd 0310 	strd	r0, r3, [sp, #64]	; 0x40
 8000782:	9a02      	ldr	r2, [sp, #8]
 8000784:	9408      	str	r4, [sp, #32]
 8000786:	2101      	movs	r1, #1
 8000788:	2210      	movs	r2, #16
 800078a:	2307      	movs	r3, #7
 800078c:	a808      	add	r0, sp, #32
 800078e:	e9cd 120b 	strd	r1, r2, [sp, #44]	; 0x2c
 8000792:	9412      	str	r4, [sp, #72]	; 0x48
 8000794:	9313      	str	r3, [sp, #76]	; 0x4c
 8000796:	f006 fc8d 	bl	80070b4 <HAL_RCC_OscConfig>
 800079a:	b108      	cbz	r0, 80007a0 <SystemClock_Config+0x70>
 800079c:	b672      	cpsid	i
 800079e:	e7fe      	b.n	800079e <SystemClock_Config+0x6e>
 80007a0:	230f      	movs	r3, #15
 80007a2:	e9cd 3403 	strd	r3, r4, [sp, #12]
 80007a6:	9005      	str	r0, [sp, #20]
 80007a8:	f44f 52a0 	mov.w	r2, #5120	; 0x1400
 80007ac:	f44f 5380 	mov.w	r3, #4096	; 0x1000
 80007b0:	2105      	movs	r1, #5
 80007b2:	a803      	add	r0, sp, #12
 80007b4:	e9cd 2306 	strd	r2, r3, [sp, #24]
 80007b8:	f006 fe56 	bl	8007468 <HAL_RCC_ClockConfig>
 80007bc:	b108      	cbz	r0, 80007c2 <SystemClock_Config+0x92>
 80007be:	b672      	cpsid	i
 80007c0:	e7fe      	b.n	80007c0 <SystemClock_Config+0x90>
 80007c2:	b014      	add	sp, #80	; 0x50
 80007c4:	bd10      	pop	{r4, pc}
 80007c6:	bf00      	nop
 80007c8:	40023800 	.word	0x40023800
 80007cc:	40007000 	.word	0x40007000

080007d0 <main>:
 80007d0:	b508      	push	{r3, lr}
 80007d2:	f006 fae9 	bl	8006da8 <HAL_Init>
 80007d6:	f7ff ffab 	bl	8000730 <SystemClock_Config>
 80007da:	f7ff ff3b 	bl	8000654 <MX_GPIO_Init>
 80007de:	f000 f831 	bl	8000844 <MX_SPI1_Init>
 80007e2:	f000 f851 	bl	8000888 <MX_SPI2_Init>
 80007e6:	f7ff fed3 	bl	8000590 <MX_FREERTOS_Init>
 80007ea:	f007 fa47 	bl	8007c7c <osKernelStart>
 80007ee:	480e      	ldr	r0, [pc, #56]	; (8000828 <main+0x58>)
 80007f0:	f44f 4180 	mov.w	r1, #16384	; 0x4000
 80007f4:	f006 fc49 	bl	800708a <HAL_GPIO_TogglePin>
 80007f8:	f44f 5180 	mov.w	r1, #4096	; 0x1000
 80007fc:	480a      	ldr	r0, [pc, #40]	; (8000828 <main+0x58>)
 80007fe:	f006 fc44 	bl	800708a <HAL_GPIO_TogglePin>
 8000802:	f44f 70fa 	mov.w	r0, #500	; 0x1f4
 8000806:	f006 fafb 	bl	8006e00 <HAL_Delay>
 800080a:	4807      	ldr	r0, [pc, #28]	; (8000828 <main+0x58>)
 800080c:	f44f 4180 	mov.w	r1, #16384	; 0x4000
 8000810:	f006 fc3b 	bl	800708a <HAL_GPIO_TogglePin>
 8000814:	4804      	ldr	r0, [pc, #16]	; (8000828 <main+0x58>)
 8000816:	f44f 5180 	mov.w	r1, #4096	; 0x1000
 800081a:	f006 fc36 	bl	800708a <HAL_GPIO_TogglePin>
 800081e:	f44f 70fa 	mov.w	r0, #500	; 0x1f4
 8000822:	f006 faed 	bl	8006e00 <HAL_Delay>
 8000826:	e7fe      	b.n	8000826 <main+0x56>
 8000828:	40020c00 	.word	0x40020c00

0800082c <HAL_TIM_PeriodElapsedCallback>:
 800082c:	6802      	ldr	r2, [r0, #0]
 800082e:	4b03      	ldr	r3, [pc, #12]	; (800083c <HAL_TIM_PeriodElapsedCallback+0x10>)
 8000830:	429a      	cmp	r2, r3
 8000832:	d101      	bne.n	8000838 <HAL_TIM_PeriodElapsedCallback+0xc>
 8000834:	f006 bad2 	b.w	8006ddc <HAL_IncTick>
 8000838:	4770      	bx	lr
 800083a:	bf00      	nop
 800083c:	40010000 	.word	0x40010000

08000840 <Error_Handler>:
 8000840:	b672      	cpsid	i
 8000842:	e7fe      	b.n	8000842 <Error_Handler+0x2>

08000844 <MX_SPI1_Init>:
 8000844:	480e      	ldr	r0, [pc, #56]	; (8000880 <MX_SPI1_Init+0x3c>)
 8000846:	4a0f      	ldr	r2, [pc, #60]	; (8000884 <MX_SPI1_Init+0x40>)
 8000848:	b508      	push	{r3, lr}
 800084a:	f44f 7382 	mov.w	r3, #260	; 0x104
 800084e:	e9c0 2300 	strd	r2, r3, [r0]
 8000852:	2300      	movs	r3, #0
 8000854:	e9c0 3302 	strd	r3, r3, [r0, #8]
 8000858:	e9c0 3304 	strd	r3, r3, [r0, #16]
 800085c:	e9c0 3308 	strd	r3, r3, [r0, #32]
 8000860:	f44f 7100 	mov.w	r1, #512	; 0x200
 8000864:	2210      	movs	r2, #16
 8000866:	6283      	str	r3, [r0, #40]	; 0x28
 8000868:	230a      	movs	r3, #10
 800086a:	e9c0 1206 	strd	r1, r2, [r0, #24]
 800086e:	62c3      	str	r3, [r0, #44]	; 0x2c
 8000870:	f006 ff44 	bl	80076fc <HAL_SPI_Init>
 8000874:	b118      	cbz	r0, 800087e <MX_SPI1_Init+0x3a>
 8000876:	e8bd 4008 	ldmia.w	sp!, {r3, lr}
 800087a:	f7ff bfe1 	b.w	8000840 <Error_Handler>
 800087e:	bd08      	pop	{r3, pc}
 8000880:	200087c4 	.word	0x200087c4
 8000884:	40013000 	.word	0x40013000

08000888 <MX_SPI2_Init>:
 8000888:	480e      	ldr	r0, [pc, #56]	; (80008c4 <MX_SPI2_Init+0x3c>)
 800088a:	4a0f      	ldr	r2, [pc, #60]	; (80008c8 <MX_SPI2_Init+0x40>)
 800088c:	b508      	push	{r3, lr}
 800088e:	f44f 7382 	mov.w	r3, #260	; 0x104
 8000892:	e9c0 2300 	strd	r2, r3, [r0]
 8000896:	2300      	movs	r3, #0
 8000898:	e9c0 3302 	strd	r3, r3, [r0, #8]
 800089c:	e9c0 3304 	strd	r3, r3, [r0, #16]
 80008a0:	e9c0 3308 	strd	r3, r3, [r0, #32]
 80008a4:	f44f 7100 	mov.w	r1, #512	; 0x200
 80008a8:	2210      	movs	r2, #16
 80008aa:	6283      	str	r3, [r0, #40]	; 0x28
 80008ac:	230a      	movs	r3, #10
 80008ae:	e9c0 1206 	strd	r1, r2, [r0, #24]
 80008b2:	62c3      	str	r3, [r0, #44]	; 0x2c
 80008b4:	f006 ff22 	bl	80076fc <HAL_SPI_Init>
 80008b8:	b118      	cbz	r0, 80008c2 <MX_SPI2_Init+0x3a>
 80008ba:	e8bd 4008 	ldmia.w	sp!, {r3, lr}
 80008be:	f7ff bfbf 	b.w	8000840 <Error_Handler>
 80008c2:	bd08      	pop	{r3, pc}
 80008c4:	2000876c 	.word	0x2000876c
 80008c8:	40003800 	.word	0x40003800

080008cc <HAL_SPI_MspInit>:
 80008cc:	b510      	push	{r4, lr}
 80008ce:	2214      	movs	r2, #20
 80008d0:	b08a      	sub	sp, #40	; 0x28
 80008d2:	4604      	mov	r4, r0
 80008d4:	2100      	movs	r1, #0
 80008d6:	eb0d 0002 	add.w	r0, sp, r2
 80008da:	f008 fe48 	bl	800956e <memset>
 80008de:	6823      	ldr	r3, [r4, #0]
 80008e0:	4a21      	ldr	r2, [pc, #132]	; (8000968 <HAL_SPI_MspInit+0x9c>)
 80008e2:	4293      	cmp	r3, r2
 80008e4:	d124      	bne.n	8000930 <HAL_SPI_MspInit+0x64>
 80008e6:	4b21      	ldr	r3, [pc, #132]	; (800096c <HAL_SPI_MspInit+0xa0>)
 80008e8:	2200      	movs	r2, #0
 80008ea:	9201      	str	r2, [sp, #4]
 80008ec:	6c59      	ldr	r1, [r3, #68]	; 0x44
 80008ee:	f441 5180 	orr.w	r1, r1, #4096	; 0x1000
 80008f2:	6459      	str	r1, [r3, #68]	; 0x44
 80008f4:	6c59      	ldr	r1, [r3, #68]	; 0x44
 80008f6:	f401 5180 	and.w	r1, r1, #4096	; 0x1000
 80008fa:	9101      	str	r1, [sp, #4]
 80008fc:	9901      	ldr	r1, [sp, #4]
 80008fe:	9202      	str	r2, [sp, #8]
 8000900:	6b19      	ldr	r1, [r3, #48]	; 0x30
 8000902:	f041 0102 	orr.w	r1, r1, #2
 8000906:	6319      	str	r1, [r3, #48]	; 0x30
 8000908:	6b1b      	ldr	r3, [r3, #48]	; 0x30
 800090a:	f003 0302 	and.w	r3, r3, #2
 800090e:	9302      	str	r3, [sp, #8]
 8000910:	9b02      	ldr	r3, [sp, #8]
 8000912:	2338      	movs	r3, #56	; 0x38
 8000914:	9305      	str	r3, [sp, #20]
 8000916:	2302      	movs	r3, #2
 8000918:	e9cd 3206 	strd	r3, r2, [sp, #24]
 800091c:	4814      	ldr	r0, [pc, #80]	; (8000970 <HAL_SPI_MspInit+0xa4>)
 800091e:	2203      	movs	r2, #3
 8000920:	2305      	movs	r3, #5
 8000922:	a905      	add	r1, sp, #20
 8000924:	e9cd 2308 	strd	r2, r3, [sp, #32]
 8000928:	f006 fad0 	bl	8006ecc <HAL_GPIO_Init>
 800092c:	b00a      	add	sp, #40	; 0x28
 800092e:	bd10      	pop	{r4, pc}
 8000930:	4a10      	ldr	r2, [pc, #64]	; (8000974 <HAL_SPI_MspInit+0xa8>)
 8000932:	4293      	cmp	r3, r2
 8000934:	d1fa      	bne.n	800092c <HAL_SPI_MspInit+0x60>
 8000936:	4b0d      	ldr	r3, [pc, #52]	; (800096c <HAL_SPI_MspInit+0xa0>)
 8000938:	2200      	movs	r2, #0
 800093a:	9203      	str	r2, [sp, #12]
 800093c:	6c19      	ldr	r1, [r3, #64]	; 0x40
 800093e:	f441 4180 	orr.w	r1, r1, #16384	; 0x4000
 8000942:	6419      	str	r1, [r3, #64]	; 0x40
 8000944:	6c19      	ldr	r1, [r3, #64]	; 0x40
 8000946:	f401 4180 	and.w	r1, r1, #16384	; 0x4000
 800094a:	9103      	str	r1, [sp, #12]
 800094c:	9903      	ldr	r1, [sp, #12]
 800094e:	9204      	str	r2, [sp, #16]
 8000950:	6b19      	ldr	r1, [r3, #48]	; 0x30
 8000952:	f041 0102 	orr.w	r1, r1, #2
 8000956:	6319      	str	r1, [r3, #48]	; 0x30
 8000958:	6b1b      	ldr	r3, [r3, #48]	; 0x30
 800095a:	f003 0302 	and.w	r3, r3, #2
 800095e:	9304      	str	r3, [sp, #16]
 8000960:	9b04      	ldr	r3, [sp, #16]
 8000962:	f44f 4360 	mov.w	r3, #57344	; 0xe000
 8000966:	e7d5      	b.n	8000914 <HAL_SPI_MspInit+0x48>
 8000968:	40013000 	.word	0x40013000
 800096c:	40023800 	.word	0x40023800
 8000970:	40020400 	.word	0x40020400
 8000974:	40003800 	.word	0x40003800

08000978 <HAL_MspInit>:
 8000978:	b082      	sub	sp, #8
 800097a:	4b0e      	ldr	r3, [pc, #56]	; (80009b4 <HAL_MspInit+0x3c>)
 800097c:	2200      	movs	r2, #0
 800097e:	9200      	str	r2, [sp, #0]
 8000980:	6c59      	ldr	r1, [r3, #68]	; 0x44
 8000982:	f441 4180 	orr.w	r1, r1, #16384	; 0x4000
 8000986:	6459      	str	r1, [r3, #68]	; 0x44
 8000988:	6c59      	ldr	r1, [r3, #68]	; 0x44
 800098a:	f401 4180 	and.w	r1, r1, #16384	; 0x4000
 800098e:	9100      	str	r1, [sp, #0]
 8000990:	9900      	ldr	r1, [sp, #0]
 8000992:	9201      	str	r2, [sp, #4]
 8000994:	6c19      	ldr	r1, [r3, #64]	; 0x40
 8000996:	f041 5180 	orr.w	r1, r1, #268435456	; 0x10000000
 800099a:	6419      	str	r1, [r3, #64]	; 0x40
 800099c:	6c1b      	ldr	r3, [r3, #64]	; 0x40
 800099e:	f003 5380 	and.w	r3, r3, #268435456	; 0x10000000
 80009a2:	9301      	str	r3, [sp, #4]
 80009a4:	9b01      	ldr	r3, [sp, #4]
 80009a6:	210f      	movs	r1, #15
 80009a8:	f06f 0001 	mvn.w	r0, #1
 80009ac:	b002      	add	sp, #8
 80009ae:	f006 ba4d 	b.w	8006e4c <HAL_NVIC_SetPriority>
 80009b2:	bf00      	nop
 80009b4:	40023800 	.word	0x40023800

080009b8 <HAL_InitTick>:
 80009b8:	b530      	push	{r4, r5, lr}
 80009ba:	4601      	mov	r1, r0
 80009bc:	b089      	sub	sp, #36	; 0x24
 80009be:	2200      	movs	r2, #0
 80009c0:	2019      	movs	r0, #25
 80009c2:	f006 fa43 	bl	8006e4c <HAL_NVIC_SetPriority>
 80009c6:	2019      	movs	r0, #25
 80009c8:	f006 fa72 	bl	8006eb0 <HAL_NVIC_EnableIRQ>
 80009cc:	2500      	movs	r5, #0
 80009ce:	4b15      	ldr	r3, [pc, #84]	; (8000a24 <HAL_InitTick+0x6c>)
 80009d0:	9502      	str	r5, [sp, #8]
 80009d2:	6c5a      	ldr	r2, [r3, #68]	; 0x44
 80009d4:	4c14      	ldr	r4, [pc, #80]	; (8000a28 <HAL_InitTick+0x70>)
 80009d6:	f042 0201 	orr.w	r2, r2, #1
 80009da:	645a      	str	r2, [r3, #68]	; 0x44
 80009dc:	6c5b      	ldr	r3, [r3, #68]	; 0x44
 80009de:	f003 0301 	and.w	r3, r3, #1
 80009e2:	9302      	str	r3, [sp, #8]
 80009e4:	a901      	add	r1, sp, #4
 80009e6:	a803      	add	r0, sp, #12
 80009e8:	9b02      	ldr	r3, [sp, #8]
 80009ea:	f006 fde9 	bl	80075c0 <HAL_RCC_GetClockConfig>
 80009ee:	f006 fdd7 	bl	80075a0 <HAL_RCC_GetPCLK2Freq>
 80009f2:	4b0e      	ldr	r3, [pc, #56]	; (8000a2c <HAL_InitTick+0x74>)
 80009f4:	6023      	str	r3, [r4, #0]
 80009f6:	f240 33e7 	movw	r3, #999	; 0x3e7
 80009fa:	60e3      	str	r3, [r4, #12]
 80009fc:	0040      	lsls	r0, r0, #1
 80009fe:	4b0c      	ldr	r3, [pc, #48]	; (8000a30 <HAL_InitTick+0x78>)
 8000a00:	fbb0 f0f3 	udiv	r0, r0, r3
 8000a04:	3801      	subs	r0, #1
 8000a06:	6060      	str	r0, [r4, #4]
 8000a08:	4620      	mov	r0, r4
 8000a0a:	6125      	str	r5, [r4, #16]
 8000a0c:	60a5      	str	r5, [r4, #8]
 8000a0e:	f007 f907 	bl	8007c20 <HAL_TIM_Base_Init>
 8000a12:	b920      	cbnz	r0, 8000a1e <HAL_InitTick+0x66>
 8000a14:	4620      	mov	r0, r4
 8000a16:	f006 ffbd 	bl	8007994 <HAL_TIM_Base_Start_IT>
 8000a1a:	b009      	add	sp, #36	; 0x24
 8000a1c:	bd30      	pop	{r4, r5, pc}
 8000a1e:	2001      	movs	r0, #1
 8000a20:	e7fb      	b.n	8000a1a <HAL_InitTick+0x62>
 8000a22:	bf00      	nop
 8000a24:	40023800 	.word	0x40023800
 8000a28:	2000881c 	.word	0x2000881c
 8000a2c:	40010000 	.word	0x40010000
 8000a30:	000f4240 	.word	0x000f4240

08000a34 <NMI_Handler>:
 8000a34:	e7fe      	b.n	8000a34 <NMI_Handler>

08000a36 <HardFault_Handler>:
 8000a36:	e7fe      	b.n	8000a36 <HardFault_Handler>

08000a38 <MemManage_Handler>:
 8000a38:	e7fe      	b.n	8000a38 <MemManage_Handler>

08000a3a <BusFault_Handler>:
 8000a3a:	e7fe      	b.n	8000a3a <BusFault_Handler>

08000a3c <UsageFault_Handler>:
 8000a3c:	e7fe      	b.n	8000a3c <UsageFault_Handler>

08000a3e <DebugMon_Handler>:
 8000a3e:	4770      	bx	lr

08000a40 <EXTI9_5_IRQHandler>:
 8000a40:	2020      	movs	r0, #32
 8000a42:	f006 bb2b 	b.w	800709c <HAL_GPIO_EXTI_IRQHandler>
	...

08000a48 <TIM1_UP_TIM10_IRQHandler>:
 8000a48:	4801      	ldr	r0, [pc, #4]	; (8000a50 <TIM1_UP_TIM10_IRQHandler+0x8>)
 8000a4a:	f006 bfe1 	b.w	8007a10 <HAL_TIM_IRQHandler>
 8000a4e:	bf00      	nop
 8000a50:	2000881c 	.word	0x2000881c

08000a54 <_read>:
 8000a54:	b570      	push	{r4, r5, r6, lr}
 8000a56:	460e      	mov	r6, r1
 8000a58:	4614      	mov	r4, r2
 8000a5a:	2500      	movs	r5, #0
 8000a5c:	42a5      	cmp	r5, r4
 8000a5e:	db01      	blt.n	8000a64 <_read+0x10>
 8000a60:	4620      	mov	r0, r4
 8000a62:	bd70      	pop	{r4, r5, r6, pc}
 8000a64:	f3af 8000 	nop.w
 8000a68:	5570      	strb	r0, [r6, r5]
 8000a6a:	3501      	adds	r5, #1
 8000a6c:	e7f6      	b.n	8000a5c <_read+0x8>

08000a6e <_write>:
 8000a6e:	b570      	push	{r4, r5, r6, lr}
 8000a70:	460e      	mov	r6, r1
 8000a72:	4614      	mov	r4, r2
 8000a74:	2500      	movs	r5, #0
 8000a76:	42a5      	cmp	r5, r4
 8000a78:	db01      	blt.n	8000a7e <_write+0x10>
 8000a7a:	4620      	mov	r0, r4
 8000a7c:	bd70      	pop	{r4, r5, r6, pc}
 8000a7e:	5d70      	ldrb	r0, [r6, r5]
 8000a80:	f3af 8000 	nop.w
 8000a84:	3501      	adds	r5, #1
 8000a86:	e7f6      	b.n	8000a76 <_write+0x8>

08000a88 <_close>:
 8000a88:	f04f 30ff 	mov.w	r0, #4294967295	; 0xffffffff
 8000a8c:	4770      	bx	lr

08000a8e <_fstat>:
 8000a8e:	f44f 5300 	mov.w	r3, #8192	; 0x2000
 8000a92:	604b      	str	r3, [r1, #4]
 8000a94:	2000      	movs	r0, #0
 8000a96:	4770      	bx	lr

08000a98 <_isatty>:
 8000a98:	2001      	movs	r0, #1
 8000a9a:	4770      	bx	lr

08000a9c <_lseek>:
 8000a9c:	2000      	movs	r0, #0
 8000a9e:	4770      	bx	lr

08000aa0 <_sbrk>:
 8000aa0:	4b0b      	ldr	r3, [pc, #44]	; (8000ad0 <_sbrk+0x30>)
 8000aa2:	6819      	ldr	r1, [r3, #0]
 8000aa4:	b510      	push	{r4, lr}
 8000aa6:	4602      	mov	r2, r0
 8000aa8:	b909      	cbnz	r1, 8000aae <_sbrk+0xe>
 8000aaa:	490a      	ldr	r1, [pc, #40]	; (8000ad4 <_sbrk+0x34>)
 8000aac:	6019      	str	r1, [r3, #0]
 8000aae:	6818      	ldr	r0, [r3, #0]
 8000ab0:	4909      	ldr	r1, [pc, #36]	; (8000ad8 <_sbrk+0x38>)
 8000ab2:	4c0a      	ldr	r4, [pc, #40]	; (8000adc <_sbrk+0x3c>)
 8000ab4:	4402      	add	r2, r0
 8000ab6:	1b09      	subs	r1, r1, r4
 8000ab8:	428a      	cmp	r2, r1
 8000aba:	d906      	bls.n	8000aca <_sbrk+0x2a>
 8000abc:	f008 fc74 	bl	80093a8 <__errno>
 8000ac0:	230c      	movs	r3, #12
 8000ac2:	6003      	str	r3, [r0, #0]
 8000ac4:	f04f 30ff 	mov.w	r0, #4294967295	; 0xffffffff
 8000ac8:	bd10      	pop	{r4, pc}
 8000aca:	601a      	str	r2, [r3, #0]
 8000acc:	e7fc      	b.n	8000ac8 <_sbrk+0x28>
 8000ace:	bf00      	nop
 8000ad0:	200002e4 	.word	0x200002e4
 8000ad4:	2000ada0 	.word	0x2000ada0
 8000ad8:	20020000 	.word	0x20020000
 8000adc:	00000400 	.word	0x00000400

08000ae0 <SystemInit>:
 8000ae0:	4a03      	ldr	r2, [pc, #12]	; (8000af0 <SystemInit+0x10>)
 8000ae2:	f8d2 3088 	ldr.w	r3, [r2, #136]	; 0x88
 8000ae6:	f443 0370 	orr.w	r3, r3, #15728640	; 0xf00000
 8000aea:	f8c2 3088 	str.w	r3, [r2, #136]	; 0x88
 8000aee:	4770      	bx	lr
 8000af0:	e000ed00 	.word	0xe000ed00

08000af4 <Reset_Handler>:
 8000af4:	f8df d034 	ldr.w	sp, [pc, #52]	; 8000b2c <LoopFillZerobss+0x12>
 8000af8:	480d      	ldr	r0, [pc, #52]	; (8000b30 <LoopFillZerobss+0x16>)
 8000afa:	490e      	ldr	r1, [pc, #56]	; (8000b34 <LoopFillZerobss+0x1a>)
 8000afc:	4a0e      	ldr	r2, [pc, #56]	; (8000b38 <LoopFillZerobss+0x1e>)
 8000afe:	2300      	movs	r3, #0
 8000b00:	e002      	b.n	8000b08 <LoopCopyDataInit>

08000b02 <CopyDataInit>:
 8000b02:	58d4      	ldr	r4, [r2, r3]
 8000b04:	50c4      	str	r4, [r0, r3]
 8000b06:	3304      	adds	r3, #4

08000b08 <LoopCopyDataInit>:
 8000b08:	18c4      	adds	r4, r0, r3
 8000b0a:	428c      	cmp	r4, r1
 8000b0c:	d3f9      	bcc.n	8000b02 <CopyDataInit>
 8000b0e:	4a0b      	ldr	r2, [pc, #44]	; (8000b3c <LoopFillZerobss+0x22>)
 8000b10:	4c0b      	ldr	r4, [pc, #44]	; (8000b40 <LoopFillZerobss+0x26>)
 8000b12:	2300      	movs	r3, #0
 8000b14:	e001      	b.n	8000b1a <LoopFillZerobss>

08000b16 <FillZerobss>:
 8000b16:	6013      	str	r3, [r2, #0]
 8000b18:	3204      	adds	r2, #4

08000b1a <LoopFillZerobss>:
 8000b1a:	42a2      	cmp	r2, r4
 8000b1c:	d3fb      	bcc.n	8000b16 <FillZerobss>
 8000b1e:	f7ff ffdf 	bl	8000ae0 <SystemInit>
 8000b22:	f008 fcc7 	bl	80094b4 <__libc_init_array>
 8000b26:	f7ff fe53 	bl	80007d0 <main>
 8000b2a:	4770      	bx	lr
 8000b2c:	20020000 	.word	0x20020000
 8000b30:	20000000 	.word	0x20000000
 8000b34:	20000074 	.word	0x20000074
 8000b38:	0800ae00 	.word	0x0800ae00
 8000b3c:	20000074 	.word	0x20000074
 8000b40:	2000ad9c 	.word	0x2000ad9c

08000b44 <ADC_IRQHandler>:
 8000b44:	e7fe      	b.n	8000b44 <ADC_IRQHandler>

08000b46 <swapInt16>:
 8000b46:	ba40      	rev16	r0, r0
 8000b48:	b280      	uxth	r0, r0
 8000b4a:	4770      	bx	lr

08000b4c <swapInt32>:
 8000b4c:	ba00      	rev	r0, r0
 8000b4e:	4770      	bx	lr

08000b50 <formatSystemTime>:
 8000b50:	b5f7      	push	{r0, r1, r2, r4, r5, r6, r7, lr}
 8000b52:	f44f 737a 	mov.w	r3, #1000	; 0x3e8
 8000b56:	243c      	movs	r4, #60	; 0x3c
 8000b58:	fbb0 f5f3 	udiv	r5, r0, r3
 8000b5c:	fbb5 f6f4 	udiv	r6, r5, r4
 8000b60:	fb03 0315 	mls	r3, r3, r5, r0
 8000b64:	fbb6 f7f4 	udiv	r7, r6, r4
 8000b68:	fb04 5516 	mls	r5, r4, r6, r5
 8000b6c:	fb04 6217 	mls	r2, r4, r7, r6
 8000b70:	4c13      	ldr	r4, [pc, #76]	; (8000bc0 <formatSystemTime+0x70>)
 8000b72:	2900      	cmp	r1, #0
 8000b74:	bf18      	it	ne
 8000b76:	460c      	movne	r4, r1
 8000b78:	4912      	ldr	r1, [pc, #72]	; (8000bc4 <formatSystemTime+0x74>)
 8000b7a:	4288      	cmp	r0, r1
 8000b7c:	d30a      	bcc.n	8000b94 <formatSystemTime+0x44>
 8000b7e:	e9cd 5300 	strd	r5, r3, [sp]
 8000b82:	4911      	ldr	r1, [pc, #68]	; (8000bc8 <formatSystemTime+0x78>)
 8000b84:	4613      	mov	r3, r2
 8000b86:	4620      	mov	r0, r4
 8000b88:	463a      	mov	r2, r7
 8000b8a:	f008 ffe5 	bl	8009b58 <siprintf>
 8000b8e:	4620      	mov	r0, r4
 8000b90:	b003      	add	sp, #12
 8000b92:	bdf0      	pop	{r4, r5, r6, r7, pc}
 8000b94:	b132      	cbz	r2, 8000ba4 <formatSystemTime+0x54>
 8000b96:	9300      	str	r3, [sp, #0]
 8000b98:	490c      	ldr	r1, [pc, #48]	; (8000bcc <formatSystemTime+0x7c>)
 8000b9a:	462b      	mov	r3, r5
 8000b9c:	4620      	mov	r0, r4
 8000b9e:	f008 ffdb 	bl	8009b58 <siprintf>
 8000ba2:	e7f4      	b.n	8000b8e <formatSystemTime+0x3e>
 8000ba4:	b12d      	cbz	r5, 8000bb2 <formatSystemTime+0x62>
 8000ba6:	490a      	ldr	r1, [pc, #40]	; (8000bd0 <formatSystemTime+0x80>)
 8000ba8:	462a      	mov	r2, r5
 8000baa:	4620      	mov	r0, r4
 8000bac:	f008 ffd4 	bl	8009b58 <siprintf>
 8000bb0:	e7ed      	b.n	8000b8e <formatSystemTime+0x3e>
 8000bb2:	4908      	ldr	r1, [pc, #32]	; (8000bd4 <formatSystemTime+0x84>)
 8000bb4:	461a      	mov	r2, r3
 8000bb6:	4620      	mov	r0, r4
 8000bb8:	f008 ffce 	bl	8009b58 <siprintf>
 8000bbc:	e7e7      	b.n	8000b8e <formatSystemTime+0x3e>
 8000bbe:	bf00      	nop
 8000bc0:	200002e8 	.word	0x200002e8
 8000bc4:	0036ee80 	.word	0x0036ee80
 8000bc8:	0800a836 	.word	0x0800a836
 8000bcc:	0800a855 	.word	0x0800a855
 8000bd0:	0800a86d 	.word	0x0800a86d
 8000bd4:	0800a87b 	.word	0x0800a87b

08000bd8 <osCreateTask>:
 8000bd8:	b530      	push	{r4, r5, lr}
 8000bda:	b085      	sub	sp, #20
 8000bdc:	4605      	mov	r5, r0
 8000bde:	4608      	mov	r0, r1
 8000be0:	4619      	mov	r1, r3
 8000be2:	ab03      	add	r3, sp, #12
 8000be4:	9301      	str	r3, [sp, #4]
 8000be6:	9b08      	ldr	r3, [sp, #32]
 8000be8:	9300      	str	r3, [sp, #0]
 8000bea:	2400      	movs	r4, #0
 8000bec:	4613      	mov	r3, r2
 8000bee:	b28a      	uxth	r2, r1
 8000bf0:	4629      	mov	r1, r5
 8000bf2:	9403      	str	r4, [sp, #12]
 8000bf4:	f007 fd50 	bl	8008698 <xTaskCreate>
 8000bf8:	2801      	cmp	r0, #1
 8000bfa:	bf0c      	ite	eq
 8000bfc:	9803      	ldreq	r0, [sp, #12]
 8000bfe:	4620      	movne	r0, r4
 8000c00:	b005      	add	sp, #20
 8000c02:	bd30      	pop	{r4, r5, pc}

08000c04 <osSuspendAllTasks>:
 8000c04:	b508      	push	{r3, lr}
 8000c06:	f007 ffaf 	bl	8008b68 <xTaskGetSchedulerState>
 8000c0a:	2801      	cmp	r0, #1
 8000c0c:	d003      	beq.n	8000c16 <osSuspendAllTasks+0x12>
 8000c0e:	e8bd 4008 	ldmia.w	sp!, {r3, lr}
 8000c12:	f007 bda5 	b.w	8008760 <vTaskSuspendAll>
 8000c16:	bd08      	pop	{r3, pc}

08000c18 <osResumeAllTasks>:
 8000c18:	b508      	push	{r3, lr}
 8000c1a:	f007 ffa5 	bl	8008b68 <xTaskGetSchedulerState>
 8000c1e:	2801      	cmp	r0, #1
 8000c20:	d003      	beq.n	8000c2a <osResumeAllTasks+0x12>
 8000c22:	e8bd 4008 	ldmia.w	sp!, {r3, lr}
 8000c26:	f007 be41 	b.w	80088ac <xTaskResumeAll>
 8000c2a:	bd08      	pop	{r3, pc}

08000c2c <osCreateEvent>:
 8000c2c:	b513      	push	{r0, r1, r4, lr}
 8000c2e:	2200      	movs	r2, #0
 8000c30:	2303      	movs	r3, #3
 8000c32:	4604      	mov	r4, r0
 8000c34:	9300      	str	r3, [sp, #0]
 8000c36:	4611      	mov	r1, r2
 8000c38:	1d03      	adds	r3, r0, #4
 8000c3a:	2001      	movs	r0, #1
 8000c3c:	f007 f91c 	bl	8007e78 <xQueueGenericCreateStatic>
 8000c40:	6020      	str	r0, [r4, #0]
 8000c42:	3800      	subs	r0, #0
 8000c44:	bf18      	it	ne
 8000c46:	2001      	movne	r0, #1
 8000c48:	b002      	add	sp, #8
 8000c4a:	bd10      	pop	{r4, pc}

08000c4c <osDeleteEvent>:
 8000c4c:	6800      	ldr	r0, [r0, #0]
 8000c4e:	b108      	cbz	r0, 8000c54 <osDeleteEvent+0x8>
 8000c50:	f007 bb54 	b.w	80082fc <vQueueDelete>
 8000c54:	4770      	bx	lr

08000c56 <osSetEvent>:
 8000c56:	2300      	movs	r3, #0
 8000c58:	6800      	ldr	r0, [r0, #0]
 8000c5a:	461a      	mov	r2, r3
 8000c5c:	4619      	mov	r1, r3
 8000c5e:	f007 b955 	b.w	8007f0c <xQueueGenericSend>

08000c62 <osWaitForEvent>:
 8000c62:	6800      	ldr	r0, [r0, #0]
 8000c64:	f007 ba6e 	b.w	8008144 <xQueueSemaphoreTake>

08000c68 <osSetEventFromIsr>:
 8000c68:	b507      	push	{r0, r1, r2, lr}
 8000c6a:	2300      	movs	r3, #0
 8000c6c:	a901      	add	r1, sp, #4
 8000c6e:	6800      	ldr	r0, [r0, #0]
 8000c70:	9301      	str	r3, [sp, #4]
 8000c72:	f007 fa12 	bl	800809a <xQueueGiveFromISR>
 8000c76:	9801      	ldr	r0, [sp, #4]
 8000c78:	b003      	add	sp, #12
 8000c7a:	f85d fb04 	ldr.w	pc, [sp], #4

08000c7e <osCreateMutex>:
 8000c7e:	b510      	push	{r4, lr}
 8000c80:	1d01      	adds	r1, r0, #4
 8000c82:	4604      	mov	r4, r0
 8000c84:	2001      	movs	r0, #1
 8000c86:	f007 f9f3 	bl	8008070 <xQueueCreateMutexStatic>
 8000c8a:	6020      	str	r0, [r4, #0]
 8000c8c:	3800      	subs	r0, #0
 8000c8e:	bf18      	it	ne
 8000c90:	2001      	movne	r0, #1
 8000c92:	bd10      	pop	{r4, pc}

08000c94 <osAcquireMutex>:
 8000c94:	6800      	ldr	r0, [r0, #0]
 8000c96:	f04f 31ff 	mov.w	r1, #4294967295	; 0xffffffff
 8000c9a:	f007 ba53 	b.w	8008144 <xQueueSemaphoreTake>

08000c9e <osReleaseMutex>:
 8000c9e:	2300      	movs	r3, #0
 8000ca0:	6800      	ldr	r0, [r0, #0]
 8000ca2:	461a      	mov	r2, r3
 8000ca4:	4619      	mov	r1, r3
 8000ca6:	f007 b931 	b.w	8007f0c <xQueueGenericSend>

08000caa <osGetSystemTime>:
 8000caa:	f007 bd61 	b.w	8008770 <xTaskGetTickCount>

08000cae <osAllocMem>:
 8000cae:	f008 ba47 	b.w	8009140 <pvPortMalloc>

08000cb2 <osFreeMem>:
 8000cb2:	b108      	cbz	r0, 8000cb8 <osFreeMem+0x6>
 8000cb4:	f008 bad6 	b.w	8009264 <vPortFree>
 8000cb8:	4770      	bx	lr

08000cba <strSafeCopy>:
 8000cba:	b567      	push	{r0, r1, r2, r5, r6, lr}
 8000cbc:	4615      	mov	r5, r2
 8000cbe:	4606      	mov	r6, r0
 8000cc0:	b198      	cbz	r0, 8000cea <strSafeCopy+0x30>
 8000cc2:	b191      	cbz	r1, 8000cea <strSafeCopy+0x30>
 8000cc4:	b18a      	cbz	r2, 8000cea <strSafeCopy+0x30>
 8000cc6:	4608      	mov	r0, r1
 8000cc8:	9101      	str	r1, [sp, #4]
 8000cca:	f7ff fa81 	bl	80001d0 <strlen>
 8000cce:	3d01      	subs	r5, #1
 8000cd0:	4285      	cmp	r5, r0
 8000cd2:	bf28      	it	cs
 8000cd4:	4605      	movcs	r5, r0
 8000cd6:	9901      	ldr	r1, [sp, #4]
 8000cd8:	462a      	mov	r2, r5
 8000cda:	4630      	mov	r0, r6
 8000cdc:	f008 ff7e 	bl	8009bdc <strncpy>
 8000ce0:	2300      	movs	r3, #0
 8000ce2:	5573      	strb	r3, [r6, r5]
 8000ce4:	4618      	mov	r0, r3
 8000ce6:	b003      	add	sp, #12
 8000ce8:	bd60      	pop	{r5, r6, pc}
 8000cea:	2002      	movs	r0, #2
 8000cec:	e7fb      	b.n	8000ce6 <strSafeCopy+0x2c>

08000cee <ethInit>:
 8000cee:	b508      	push	{r3, lr}
 8000cf0:	22f0      	movs	r2, #240	; 0xf0
 8000cf2:	2100      	movs	r1, #0
 8000cf4:	30d4      	adds	r0, #212	; 0xd4
 8000cf6:	f008 fc3a 	bl	800956e <memset>
 8000cfa:	2000      	movs	r0, #0
 8000cfc:	bd08      	pop	{r3, pc}
	...

08000d00 <ethProcessFrame>:
 8000d00:	e92d 43f7 	stmdb	sp!, {r0, r1, r2, r4, r5, r6, r7, r8, r9, lr}
 8000d04:	461e      	mov	r6, r3
 8000d06:	6b43      	ldr	r3, [r0, #52]	; 0x34
 8000d08:	6bdb      	ldr	r3, [r3, #60]	; 0x3c
 8000d0a:	4607      	mov	r7, r0
 8000d0c:	460d      	mov	r5, r1
 8000d0e:	4614      	mov	r4, r2
 8000d10:	b92b      	cbnz	r3, 8000d1e <ethProcessFrame+0x1e>
 8000d12:	f000 fa03 	bl	800111c <ethCheckCrc>
 8000d16:	4601      	mov	r1, r0
 8000d18:	2800      	cmp	r0, #0
 8000d1a:	d14e      	bne.n	8000dba <ethProcessFrame+0xba>
 8000d1c:	3c04      	subs	r4, #4
 8000d1e:	2c0d      	cmp	r4, #13
 8000d20:	d94a      	bls.n	8000db8 <ethProcessFrame+0xb8>
 8000d22:	89a8      	ldrh	r0, [r5, #12]
 8000d24:	f7ff ff0f 	bl	8000b46 <swapInt16>
 8000d28:	4680      	mov	r8, r0
 8000d2a:	4826      	ldr	r0, [pc, #152]	; (8000dc4 <ethProcessFrame+0xc4>)
 8000d2c:	f001 f827 	bl	8001d7e <nicGetPhysicalInterface>
 8000d30:	4287      	cmp	r7, r0
 8000d32:	f105 090e 	add.w	r9, r5, #14
 8000d36:	f1a4 040e 	sub.w	r4, r4, #14
 8000d3a:	d140      	bne.n	8000dbe <ethProcessFrame+0xbe>
 8000d3c:	4629      	mov	r1, r5
 8000d3e:	4821      	ldr	r0, [pc, #132]	; (8000dc4 <ethProcessFrame+0xc4>)
 8000d40:	f000 f97a 	bl	8001038 <ethCheckDestAddr>
 8000d44:	4601      	mov	r1, r0
 8000d46:	bb88      	cbnz	r0, 8000dac <ethProcessFrame+0xac>
 8000d48:	462b      	mov	r3, r5
 8000d4a:	481e      	ldr	r0, [pc, #120]	; (8000dc4 <ethProcessFrame+0xc4>)
 8000d4c:	f853 2f06 	ldr.w	r2, [r3, #6]!
 8000d50:	f8c6 2001 	str.w	r2, [r6, #1]
 8000d54:	889b      	ldrh	r3, [r3, #4]
 8000d56:	f8a6 3005 	strh.w	r3, [r6, #5]
 8000d5a:	682b      	ldr	r3, [r5, #0]
 8000d5c:	f8c6 3007 	str.w	r3, [r6, #7]
 8000d60:	88ab      	ldrh	r3, [r5, #4]
 8000d62:	f8a6 300b 	strh.w	r3, [r6, #11]
 8000d66:	4629      	mov	r1, r5
 8000d68:	f000 f98e 	bl	8001088 <ethUpdateInStats>
 8000d6c:	4815      	ldr	r0, [pc, #84]	; (8000dc4 <ethProcessFrame+0xc4>)
 8000d6e:	9600      	str	r6, [sp, #0]
 8000d70:	4623      	mov	r3, r4
 8000d72:	464a      	mov	r2, r9
 8000d74:	4629      	mov	r1, r5
 8000d76:	f001 f97b 	bl	8002070 <rawSocketProcessEthPacket>
 8000d7a:	f5b8 6f00 	cmp.w	r8, #2048	; 0x800
 8000d7e:	d00b      	beq.n	8000d98 <ethProcessFrame+0x98>
 8000d80:	f640 0306 	movw	r3, #2054	; 0x806
 8000d84:	4598      	cmp	r8, r3
 8000d86:	d110      	bne.n	8000daa <ethProcessFrame+0xaa>
 8000d88:	480e      	ldr	r0, [pc, #56]	; (8000dc4 <ethProcessFrame+0xc4>)
 8000d8a:	4622      	mov	r2, r4
 8000d8c:	4649      	mov	r1, r9
 8000d8e:	b003      	add	sp, #12
 8000d90:	e8bd 43f0 	ldmia.w	sp!, {r4, r5, r6, r7, r8, r9, lr}
 8000d94:	f004 bee4 	b.w	8005b60 <arpProcessPacket>
 8000d98:	480a      	ldr	r0, [pc, #40]	; (8000dc4 <ethProcessFrame+0xc4>)
 8000d9a:	4633      	mov	r3, r6
 8000d9c:	4622      	mov	r2, r4
 8000d9e:	4649      	mov	r1, r9
 8000da0:	b003      	add	sp, #12
 8000da2:	e8bd 43f0 	ldmia.w	sp!, {r4, r5, r6, r7, r8, r9, lr}
 8000da6:	f005 b95f 	b.w	8006068 <ipv4ProcessPacket>
 8000daa:	21e2      	movs	r1, #226	; 0xe2
 8000dac:	4805      	ldr	r0, [pc, #20]	; (8000dc4 <ethProcessFrame+0xc4>)
 8000dae:	b003      	add	sp, #12
 8000db0:	e8bd 43f0 	ldmia.w	sp!, {r4, r5, r6, r7, r8, r9, lr}
 8000db4:	f000 b96a 	b.w	800108c <ethUpdateErrorStats>
 8000db8:	21ec      	movs	r1, #236	; 0xec
 8000dba:	4638      	mov	r0, r7
 8000dbc:	e7f7      	b.n	8000dae <ethProcessFrame+0xae>
 8000dbe:	b003      	add	sp, #12
 8000dc0:	e8bd 83f0 	ldmia.w	sp!, {r4, r5, r6, r7, r8, r9, pc}
 8000dc4:	20008944 	.word	0x20008944

08000dc8 <ethSendFrame>:
 8000dc8:	e92d 4ff7 	stmdb	sp!, {r0, r1, r2, r4, r5, r6, r7, r8, r9, sl, fp, lr}
 8000dcc:	e9dd 670c 	ldrd	r6, r7, [sp, #48]	; 0x30
 8000dd0:	f107 0b0c 	add.w	fp, r7, #12
 8000dd4:	4680      	mov	r8, r0
 8000dd6:	4689      	mov	r9, r1
 8000dd8:	4692      	mov	sl, r2
 8000dda:	492e      	ldr	r1, [pc, #184]	; (8000e94 <ethSendFrame+0xcc>)
 8000ddc:	2206      	movs	r2, #6
 8000dde:	4658      	mov	r0, fp
 8000de0:	461c      	mov	r4, r3
 8000de2:	f008 fb8e 	bl	8009502 <memcmp>
 8000de6:	b930      	cbnz	r0, 8000df6 <ethSendFrame+0x2e>
 8000de8:	4640      	mov	r0, r8
 8000dea:	f000 ffc7 	bl	8001d7c <nicGetLogicalInterface>
 8000dee:	e9d0 0133 	ldrd	r0, r1, [r0, #204]	; 0xcc
 8000df2:	60f8      	str	r0, [r7, #12]
 8000df4:	8239      	strh	r1, [r7, #16]
 8000df6:	2e0d      	cmp	r6, #13
 8000df8:	d949      	bls.n	8000e8e <ethSendFrame+0xc6>
 8000dfa:	4620      	mov	r0, r4
 8000dfc:	f000 fc2e 	bl	800165c <netBufferGetLength>
 8000e00:	3e0e      	subs	r6, #14
 8000e02:	1b80      	subs	r0, r0, r6
 8000e04:	4631      	mov	r1, r6
 8000e06:	9001      	str	r0, [sp, #4]
 8000e08:	4620      	mov	r0, r4
 8000e0a:	f000 fcb8 	bl	800177e <netBufferAt>
 8000e0e:	f8d9 3000 	ldr.w	r3, [r9]
 8000e12:	6003      	str	r3, [r0, #0]
 8000e14:	4605      	mov	r5, r0
 8000e16:	f8b9 3004 	ldrh.w	r3, [r9, #4]
 8000e1a:	8083      	strh	r3, [r0, #4]
 8000e1c:	f8bb 3004 	ldrh.w	r3, [fp, #4]
 8000e20:	68f8      	ldr	r0, [r7, #12]
 8000e22:	f8c5 0006 	str.w	r0, [r5, #6]
 8000e26:	816b      	strh	r3, [r5, #10]
 8000e28:	4650      	mov	r0, sl
 8000e2a:	f7ff fe8c 	bl	8000b46 <swapInt16>
 8000e2e:	4629      	mov	r1, r5
 8000e30:	81a8      	strh	r0, [r5, #12]
 8000e32:	9a01      	ldr	r2, [sp, #4]
 8000e34:	4640      	mov	r0, r8
 8000e36:	f000 f928 	bl	800108a <ethUpdateOutStats>
 8000e3a:	4640      	mov	r0, r8
 8000e3c:	f000 ff9f 	bl	8001d7e <nicGetPhysicalInterface>
 8000e40:	6b43      	ldr	r3, [r0, #52]	; 0x34
 8000e42:	4605      	mov	r5, r0
 8000e44:	b19b      	cbz	r3, 8000e6e <ethSendFrame+0xa6>
 8000e46:	6b1b      	ldr	r3, [r3, #48]	; 0x30
 8000e48:	b1c3      	cbz	r3, 8000e7c <ethSendFrame+0xb4>
 8000e4a:	6b6b      	ldr	r3, [r5, #52]	; 0x34
 8000e4c:	6b5b      	ldr	r3, [r3, #52]	; 0x34
 8000e4e:	b973      	cbnz	r3, 8000e6e <ethSendFrame+0xa6>
 8000e50:	9a01      	ldr	r2, [sp, #4]
 8000e52:	4631      	mov	r1, r6
 8000e54:	4620      	mov	r0, r4
 8000e56:	f000 f933 	bl	80010c0 <ethCalcCrcEx>
 8000e5a:	2204      	movs	r2, #4
 8000e5c:	9000      	str	r0, [sp, #0]
 8000e5e:	4669      	mov	r1, sp
 8000e60:	4620      	mov	r0, r4
 8000e62:	f000 fd40 	bl	80018e6 <netBufferAppend>
 8000e66:	b978      	cbnz	r0, 8000e88 <ethSendFrame+0xc0>
 8000e68:	9b01      	ldr	r3, [sp, #4]
 8000e6a:	3304      	adds	r3, #4
 8000e6c:	9301      	str	r3, [sp, #4]
 8000e6e:	463b      	mov	r3, r7
 8000e70:	4632      	mov	r2, r6
 8000e72:	4621      	mov	r1, r4
 8000e74:	4628      	mov	r0, r5
 8000e76:	f000 ff97 	bl	8001da8 <nicSendPacket>
 8000e7a:	e005      	b.n	8000e88 <ethSendFrame+0xc0>
 8000e7c:	a901      	add	r1, sp, #4
 8000e7e:	4620      	mov	r0, r4
 8000e80:	f000 f8c6 	bl	8001010 <ethPadFrame>
 8000e84:	2800      	cmp	r0, #0
 8000e86:	d0e0      	beq.n	8000e4a <ethSendFrame+0x82>
 8000e88:	b003      	add	sp, #12
 8000e8a:	e8bd 8ff0 	ldmia.w	sp!, {r4, r5, r6, r7, r8, r9, sl, fp, pc}
 8000e8e:	2002      	movs	r0, #2
 8000e90:	e7fa      	b.n	8000e88 <ethSendFrame+0xc0>
 8000e92:	bf00      	nop
 8000e94:	0800a887 	.word	0x0800a887

08000e98 <ethAcceptMacAddr>:
 8000e98:	e92d 43f8 	stmdb	sp!, {r3, r4, r5, r6, r7, r8, r9, lr}
 8000e9c:	2500      	movs	r5, #0
 8000e9e:	4606      	mov	r6, r0
 8000ea0:	460f      	mov	r7, r1
 8000ea2:	f100 08d4 	add.w	r8, r0, #212	; 0xd4
 8000ea6:	462c      	mov	r4, r5
 8000ea8:	f8d8 9008 	ldr.w	r9, [r8, #8]
 8000eac:	f1b9 0f00 	cmp.w	r9, #0
 8000eb0:	d00e      	beq.n	8000ed0 <ethAcceptMacAddr+0x38>
 8000eb2:	2206      	movs	r2, #6
 8000eb4:	4639      	mov	r1, r7
 8000eb6:	4640      	mov	r0, r8
 8000eb8:	f008 fb23 	bl	8009502 <memcmp>
 8000ebc:	b958      	cbnz	r0, 8000ed6 <ethAcceptMacAddr+0x3e>
 8000ebe:	2314      	movs	r3, #20
 8000ec0:	fb03 6404 	mla	r4, r3, r4, r6
 8000ec4:	f109 0301 	add.w	r3, r9, #1
 8000ec8:	f8c4 30dc 	str.w	r3, [r4, #220]	; 0xdc
 8000ecc:	e8bd 83f8 	ldmia.w	sp!, {r3, r4, r5, r6, r7, r8, r9, pc}
 8000ed0:	2d00      	cmp	r5, #0
 8000ed2:	bf08      	it	eq
 8000ed4:	4645      	moveq	r5, r8
 8000ed6:	3401      	adds	r4, #1
 8000ed8:	2c0c      	cmp	r4, #12
 8000eda:	f108 0814 	add.w	r8, r8, #20
 8000ede:	d1e3      	bne.n	8000ea8 <ethAcceptMacAddr+0x10>
 8000ee0:	b175      	cbz	r5, 8000f00 <ethAcceptMacAddr+0x68>
 8000ee2:	6838      	ldr	r0, [r7, #0]
 8000ee4:	6028      	str	r0, [r5, #0]
 8000ee6:	88bb      	ldrh	r3, [r7, #4]
 8000ee8:	80ab      	strh	r3, [r5, #4]
 8000eea:	2400      	movs	r4, #0
 8000eec:	2301      	movs	r3, #1
 8000eee:	e9c5 3302 	strd	r3, r3, [r5, #8]
 8000ef2:	612c      	str	r4, [r5, #16]
 8000ef4:	4630      	mov	r0, r6
 8000ef6:	f000 ff93 	bl	8001e20 <nicUpdateMacAddrFilter>
 8000efa:	60ec      	str	r4, [r5, #12]
 8000efc:	4620      	mov	r0, r4
 8000efe:	e7e5      	b.n	8000ecc <ethAcceptMacAddr+0x34>
 8000f00:	2001      	movs	r0, #1
 8000f02:	e7e3      	b.n	8000ecc <ethAcceptMacAddr+0x34>

08000f04 <ethDropMacAddr>:
 8000f04:	e92d 41f0 	stmdb	sp!, {r4, r5, r6, r7, r8, lr}
 8000f08:	4607      	mov	r7, r0
 8000f0a:	4688      	mov	r8, r1
 8000f0c:	f100 05d4 	add.w	r5, r0, #212	; 0xd4
 8000f10:	2400      	movs	r4, #0
 8000f12:	68ae      	ldr	r6, [r5, #8]
 8000f14:	b1de      	cbz	r6, 8000f4e <ethDropMacAddr+0x4a>
 8000f16:	2206      	movs	r2, #6
 8000f18:	4641      	mov	r1, r8
 8000f1a:	4628      	mov	r0, r5
 8000f1c:	f008 faf1 	bl	8009502 <memcmp>
 8000f20:	b9a8      	cbnz	r0, 8000f4e <ethDropMacAddr+0x4a>
 8000f22:	2314      	movs	r3, #20
 8000f24:	fb03 7404 	mla	r4, r3, r4, r7
 8000f28:	3e01      	subs	r6, #1
 8000f2a:	f8c4 60dc 	str.w	r6, [r4, #220]	; 0xdc
 8000f2e:	b966      	cbnz	r6, 8000f4a <ethDropMacAddr+0x46>
 8000f30:	2301      	movs	r3, #1
 8000f32:	f8c4 30e4 	str.w	r3, [r4, #228]	; 0xe4
 8000f36:	4638      	mov	r0, r7
 8000f38:	f000 ff72 	bl	8001e20 <nicUpdateMacAddrFilter>
 8000f3c:	f8c4 60e4 	str.w	r6, [r4, #228]	; 0xe4
 8000f40:	f8c4 60d4 	str.w	r6, [r4, #212]	; 0xd4
 8000f44:	f8a4 60d8 	strh.w	r6, [r4, #216]	; 0xd8
 8000f48:	4630      	mov	r0, r6
 8000f4a:	e8bd 81f0 	ldmia.w	sp!, {r4, r5, r6, r7, r8, pc}
 8000f4e:	3401      	adds	r4, #1
 8000f50:	2c0c      	cmp	r4, #12
 8000f52:	f105 0514 	add.w	r5, r5, #20
 8000f56:	d1dc      	bne.n	8000f12 <ethDropMacAddr+0xe>
 8000f58:	f44f 700a 	mov.w	r0, #552	; 0x228
 8000f5c:	e7f5      	b.n	8000f4a <ethDropMacAddr+0x46>

08000f5e <ethAllocBuffer>:
 8000f5e:	b510      	push	{r4, lr}
 8000f60:	300e      	adds	r0, #14
 8000f62:	460c      	mov	r4, r1
 8000f64:	f000 fbee 	bl	8001744 <netBufferAlloc>
 8000f68:	b108      	cbz	r0, 8000f6e <ethAllocBuffer+0x10>
 8000f6a:	230e      	movs	r3, #14
 8000f6c:	6023      	str	r3, [r4, #0]
 8000f6e:	bd10      	pop	{r4, pc}

08000f70 <macStringToAddr>:
 8000f70:	f8df c070 	ldr.w	ip, [pc, #112]	; 8000fe4 <macStringToAddr+0x74>
 8000f74:	b5f0      	push	{r4, r5, r6, r7, lr}
 8000f76:	f04f 33ff 	mov.w	r3, #4294967295	; 0xffffffff
 8000f7a:	1e47      	subs	r7, r0, #1
 8000f7c:	2600      	movs	r6, #0
 8000f7e:	f817 0f01 	ldrb.w	r0, [r7, #1]!
 8000f82:	f810 200c 	ldrb.w	r2, [r0, ip]
 8000f86:	f012 0f44 	tst.w	r2, #68	; 0x44
 8000f8a:	d016      	beq.n	8000fba <macStringToAddr+0x4a>
 8000f8c:	ea23 73e3 	bic.w	r3, r3, r3, asr #31
 8000f90:	011d      	lsls	r5, r3, #4
 8000f92:	0753      	lsls	r3, r2, #29
 8000f94:	d506      	bpl.n	8000fa4 <macStringToAddr+0x34>
 8000f96:	f1a0 0430 	sub.w	r4, r0, #48	; 0x30
 8000f9a:	1963      	adds	r3, r4, r5
 8000f9c:	2bff      	cmp	r3, #255	; 0xff
 8000f9e:	ddee      	ble.n	8000f7e <macStringToAddr+0xe>
 8000fa0:	2069      	movs	r0, #105	; 0x69
 8000fa2:	e01e      	b.n	8000fe2 <macStringToAddr+0x72>
 8000fa4:	f002 0203 	and.w	r2, r2, #3
 8000fa8:	2a01      	cmp	r2, #1
 8000faa:	bf0b      	itete	eq
 8000fac:	f1a0 0237 	subeq.w	r2, r0, #55	; 0x37
 8000fb0:	f1a0 0357 	subne.w	r3, r0, #87	; 0x57
 8000fb4:	1953      	addeq	r3, r2, r5
 8000fb6:	195b      	addne	r3, r3, r5
 8000fb8:	e7f0      	b.n	8000f9c <macStringToAddr+0x2c>
 8000fba:	282d      	cmp	r0, #45	; 0x2d
 8000fbc:	d001      	beq.n	8000fc2 <macStringToAddr+0x52>
 8000fbe:	283a      	cmp	r0, #58	; 0x3a
 8000fc0:	d108      	bne.n	8000fd4 <macStringToAddr+0x64>
 8000fc2:	2e05      	cmp	r6, #5
 8000fc4:	dcec      	bgt.n	8000fa0 <macStringToAddr+0x30>
 8000fc6:	2b00      	cmp	r3, #0
 8000fc8:	dbea      	blt.n	8000fa0 <macStringToAddr+0x30>
 8000fca:	558b      	strb	r3, [r1, r6]
 8000fcc:	3601      	adds	r6, #1
 8000fce:	f04f 33ff 	mov.w	r3, #4294967295	; 0xffffffff
 8000fd2:	e7d4      	b.n	8000f7e <macStringToAddr+0xe>
 8000fd4:	2800      	cmp	r0, #0
 8000fd6:	d1e3      	bne.n	8000fa0 <macStringToAddr+0x30>
 8000fd8:	2e05      	cmp	r6, #5
 8000fda:	d1e1      	bne.n	8000fa0 <macStringToAddr+0x30>
 8000fdc:	2b00      	cmp	r3, #0
 8000fde:	dbdf      	blt.n	8000fa0 <macStringToAddr+0x30>
 8000fe0:	714b      	strb	r3, [r1, #5]
 8000fe2:	bdf0      	pop	{r4, r5, r6, r7, pc}
 8000fe4:	0800ac55 	.word	0x0800ac55

08000fe8 <macAddrToEui64>:
 8000fe8:	7842      	ldrb	r2, [r0, #1]
 8000fea:	7803      	ldrb	r3, [r0, #0]
 8000fec:	704a      	strb	r2, [r1, #1]
 8000fee:	7882      	ldrb	r2, [r0, #2]
 8000ff0:	708a      	strb	r2, [r1, #2]
 8000ff2:	22ff      	movs	r2, #255	; 0xff
 8000ff4:	70ca      	strb	r2, [r1, #3]
 8000ff6:	22fe      	movs	r2, #254	; 0xfe
 8000ff8:	710a      	strb	r2, [r1, #4]
 8000ffa:	78c2      	ldrb	r2, [r0, #3]
 8000ffc:	714a      	strb	r2, [r1, #5]
 8000ffe:	7902      	ldrb	r2, [r0, #4]
 8001000:	718a      	strb	r2, [r1, #6]
 8001002:	f083 0302 	eor.w	r3, r3, #2
 8001006:	7942      	ldrb	r2, [r0, #5]
 8001008:	71ca      	strb	r2, [r1, #7]
 800100a:	700b      	strb	r3, [r1, #0]
 800100c:	4770      	bx	lr
	...

08001010 <ethPadFrame>:
 8001010:	b538      	push	{r3, r4, r5, lr}
 8001012:	680d      	ldr	r5, [r1, #0]
 8001014:	2d3b      	cmp	r5, #59	; 0x3b
 8001016:	460c      	mov	r4, r1
 8001018:	d80a      	bhi.n	8001030 <ethPadFrame+0x20>
 800101a:	f1c5 053c 	rsb	r5, r5, #60	; 0x3c
 800101e:	4905      	ldr	r1, [pc, #20]	; (8001034 <ethPadFrame+0x24>)
 8001020:	462a      	mov	r2, r5
 8001022:	f000 fc60 	bl	80018e6 <netBufferAppend>
 8001026:	b910      	cbnz	r0, 800102e <ethPadFrame+0x1e>
 8001028:	6822      	ldr	r2, [r4, #0]
 800102a:	442a      	add	r2, r5
 800102c:	6022      	str	r2, [r4, #0]
 800102e:	bd38      	pop	{r3, r4, r5, pc}
 8001030:	2000      	movs	r0, #0
 8001032:	e7fc      	b.n	800102e <ethPadFrame+0x1e>
 8001034:	0800a88d 	.word	0x0800a88d

08001038 <ethCheckDestAddr>:
 8001038:	b570      	push	{r4, r5, r6, lr}
 800103a:	460d      	mov	r5, r1
 800103c:	4604      	mov	r4, r0
 800103e:	f000 fe9d 	bl	8001d7c <nicGetLogicalInterface>
 8001042:	2206      	movs	r2, #6
 8001044:	f100 01cc 	add.w	r1, r0, #204	; 0xcc
 8001048:	4628      	mov	r0, r5
 800104a:	f008 fa5a 	bl	8009502 <memcmp>
 800104e:	b1c0      	cbz	r0, 8001082 <ethCheckDestAddr+0x4a>
 8001050:	490c      	ldr	r1, [pc, #48]	; (8001084 <ethCheckDestAddr+0x4c>)
 8001052:	2206      	movs	r2, #6
 8001054:	4628      	mov	r0, r5
 8001056:	f008 fa54 	bl	8009502 <memcmp>
 800105a:	b190      	cbz	r0, 8001082 <ethCheckDestAddr+0x4a>
 800105c:	782b      	ldrb	r3, [r5, #0]
 800105e:	07db      	lsls	r3, r3, #31
 8001060:	d50e      	bpl.n	8001080 <ethCheckDestAddr+0x48>
 8001062:	f104 06d4 	add.w	r6, r4, #212	; 0xd4
 8001066:	f504 74e2 	add.w	r4, r4, #452	; 0x1c4
 800106a:	68b3      	ldr	r3, [r6, #8]
 800106c:	b12b      	cbz	r3, 800107a <ethCheckDestAddr+0x42>
 800106e:	2206      	movs	r2, #6
 8001070:	4629      	mov	r1, r5
 8001072:	4630      	mov	r0, r6
 8001074:	f008 fa45 	bl	8009502 <memcmp>
 8001078:	b118      	cbz	r0, 8001082 <ethCheckDestAddr+0x4a>
 800107a:	3614      	adds	r6, #20
 800107c:	42a6      	cmp	r6, r4
 800107e:	d1f4      	bne.n	800106a <ethCheckDestAddr+0x32>
 8001080:	20e4      	movs	r0, #228	; 0xe4
 8001082:	bd70      	pop	{r4, r5, r6, pc}
 8001084:	0800a881 	.word	0x0800a881

08001088 <ethUpdateInStats>:
 8001088:	4770      	bx	lr

0800108a <ethUpdateOutStats>:
 800108a:	4770      	bx	lr

0800108c <ethUpdateErrorStats>:
 800108c:	4770      	bx	lr
	...

08001090 <ethCalcCrc>:
 8001090:	b530      	push	{r4, r5, lr}
 8001092:	4c0a      	ldr	r4, [pc, #40]	; (80010bc <ethCalcCrc+0x2c>)
 8001094:	4401      	add	r1, r0
 8001096:	f04f 33ff 	mov.w	r3, #4294967295	; 0xffffffff
 800109a:	4288      	cmp	r0, r1
 800109c:	d101      	bne.n	80010a2 <ethCalcCrc+0x12>
 800109e:	43d8      	mvns	r0, r3
 80010a0:	bd30      	pop	{r4, r5, pc}
 80010a2:	f810 2b01 	ldrb.w	r2, [r0], #1
 80010a6:	4053      	eors	r3, r2
 80010a8:	2208      	movs	r2, #8
 80010aa:	f003 0501 	and.w	r5, r3, #1
 80010ae:	085b      	lsrs	r3, r3, #1
 80010b0:	b105      	cbz	r5, 80010b4 <ethCalcCrc+0x24>
 80010b2:	4063      	eors	r3, r4
 80010b4:	3a01      	subs	r2, #1
 80010b6:	d1f8      	bne.n	80010aa <ethCalcCrc+0x1a>
 80010b8:	e7ef      	b.n	800109a <ethCalcCrc+0xa>
 80010ba:	bf00      	nop
 80010bc:	edb88320 	.word	0xedb88320

080010c0 <ethCalcCrcEx>:
 80010c0:	b5f0      	push	{r4, r5, r6, r7, lr}
 80010c2:	f8df c054 	ldr.w	ip, [pc, #84]	; 8001118 <ethCalcCrcEx+0x58>
 80010c6:	6807      	ldr	r7, [r0, #0]
 80010c8:	f04f 34ff 	mov.w	r4, #4294967295	; 0xffffffff
 80010cc:	2600      	movs	r6, #0
 80010ce:	42b7      	cmp	r7, r6
 80010d0:	d000      	beq.n	80010d4 <ethCalcCrcEx+0x14>
 80010d2:	b90a      	cbnz	r2, 80010d8 <ethCalcCrcEx+0x18>
 80010d4:	43e0      	mvns	r0, r4
 80010d6:	bdf0      	pop	{r4, r5, r6, r7, pc}
 80010d8:	8983      	ldrh	r3, [r0, #12]
 80010da:	428b      	cmp	r3, r1
 80010dc:	d91a      	bls.n	8001114 <ethCalcCrcEx+0x54>
 80010de:	1a5b      	subs	r3, r3, r1
 80010e0:	6885      	ldr	r5, [r0, #8]
 80010e2:	4293      	cmp	r3, r2
 80010e4:	bf28      	it	cs
 80010e6:	4613      	movcs	r3, r2
 80010e8:	440d      	add	r5, r1
 80010ea:	1ad2      	subs	r2, r2, r3
 80010ec:	442b      	add	r3, r5
 80010ee:	f815 1b01 	ldrb.w	r1, [r5], #1
 80010f2:	404c      	eors	r4, r1
 80010f4:	2108      	movs	r1, #8
 80010f6:	f004 0e01 	and.w	lr, r4, #1
 80010fa:	0864      	lsrs	r4, r4, #1
 80010fc:	f1be 0f00 	cmp.w	lr, #0
 8001100:	d001      	beq.n	8001106 <ethCalcCrcEx+0x46>
 8001102:	ea84 040c 	eor.w	r4, r4, ip
 8001106:	3901      	subs	r1, #1
 8001108:	d1f5      	bne.n	80010f6 <ethCalcCrcEx+0x36>
 800110a:	429d      	cmp	r5, r3
 800110c:	d1ef      	bne.n	80010ee <ethCalcCrcEx+0x2e>
 800110e:	3601      	adds	r6, #1
 8001110:	3008      	adds	r0, #8
 8001112:	e7dc      	b.n	80010ce <ethCalcCrcEx+0xe>
 8001114:	1ac9      	subs	r1, r1, r3
 8001116:	e7fa      	b.n	800110e <ethCalcCrcEx+0x4e>
 8001118:	edb88320 	.word	0xedb88320

0800111c <ethCheckCrc>:
 800111c:	2a11      	cmp	r2, #17
 800111e:	b538      	push	{r3, r4, r5, lr}
 8001120:	460c      	mov	r4, r1
 8001122:	4615      	mov	r5, r2
 8001124:	d915      	bls.n	8001152 <ethCheckCrc+0x36>
 8001126:	6b43      	ldr	r3, [r0, #52]	; 0x34
 8001128:	6b9b      	ldr	r3, [r3, #56]	; 0x38
 800112a:	b933      	cbnz	r3, 800113a <ethCheckCrc+0x1e>
 800112c:	4611      	mov	r1, r2
 800112e:	4620      	mov	r0, r4
 8001130:	f7ff ffae 	bl	8001090 <ethCalcCrc>
 8001134:	4b09      	ldr	r3, [pc, #36]	; (800115c <ethCheckCrc+0x40>)
 8001136:	4298      	cmp	r0, r3
 8001138:	d10d      	bne.n	8001156 <ethCheckCrc+0x3a>
 800113a:	1962      	adds	r2, r4, r5
 800113c:	4908      	ldr	r1, [pc, #32]	; (8001160 <ethCheckCrc+0x44>)
 800113e:	f852 3c04 	ldr.w	r3, [r2, #-4]
 8001142:	ba1a      	rev	r2, r3
 8001144:	f8d1 30a0 	ldr.w	r3, [r1, #160]	; 0xa0
 8001148:	4413      	add	r3, r2
 800114a:	f8c1 30a0 	str.w	r3, [r1, #160]	; 0xa0
 800114e:	2000      	movs	r0, #0
 8001150:	bd38      	pop	{r3, r4, r5, pc}
 8001152:	20ec      	movs	r0, #236	; 0xec
 8001154:	e7fc      	b.n	8001150 <ethCheckCrc+0x34>
 8001156:	20d5      	movs	r0, #213	; 0xd5
 8001158:	e7fa      	b.n	8001150 <ethCheckCrc+0x34>
 800115a:	bf00      	nop
 800115c:	2144df1c 	.word	0x2144df1c
 8001160:	20008864 	.word	0x20008864

08001164 <ipSendDatagram>:
 8001164:	b410      	push	{r4}
 8001166:	680c      	ldr	r4, [r1, #0]
 8001168:	2c0c      	cmp	r4, #12
 800116a:	d104      	bne.n	8001176 <ipSendDatagram+0x12>
 800116c:	f85d 4b04 	ldr.w	r4, [sp], #4
 8001170:	3104      	adds	r1, #4
 8001172:	f005 b8c9 	b.w	8006308 <ipv4SendDatagram>
 8001176:	20e4      	movs	r0, #228	; 0xe4
 8001178:	f85d 4b04 	ldr.w	r4, [sp], #4
 800117c:	4770      	bx	lr

0800117e <ipCalcChecksum>:
 800117e:	b5f0      	push	{r4, r5, r6, r7, lr}
 8001180:	f010 0501 	ands.w	r5, r0, #1
 8001184:	d035      	beq.n	80011f2 <ipCalcChecksum+0x74>
 8001186:	2900      	cmp	r1, #0
 8001188:	d035      	beq.n	80011f6 <ipCalcChecksum+0x78>
 800118a:	f810 3b01 	ldrb.w	r3, [r0], #1
 800118e:	3901      	subs	r1, #1
 8001190:	021b      	lsls	r3, r3, #8
 8001192:	0782      	lsls	r2, r0, #30
 8001194:	d505      	bpl.n	80011a2 <ipCalcChecksum+0x24>
 8001196:	2901      	cmp	r1, #1
 8001198:	bf82      	ittt	hi
 800119a:	f830 2b02 	ldrhhi.w	r2, [r0], #2
 800119e:	3902      	subhi	r1, #2
 80011a0:	189b      	addhi	r3, r3, r2
 80011a2:	f021 0203 	bic.w	r2, r1, #3
 80011a6:	4604      	mov	r4, r0
 80011a8:	088f      	lsrs	r7, r1, #2
 80011aa:	4402      	add	r2, r0
 80011ac:	42a2      	cmp	r2, r4
 80011ae:	d124      	bne.n	80011fa <ipCalcChecksum+0x7c>
 80011b0:	f06f 0403 	mvn.w	r4, #3
 80011b4:	fb04 1107 	mla	r1, r4, r7, r1
 80011b8:	2901      	cmp	r1, #1
 80011ba:	bf88      	it	hi
 80011bc:	f830 0027 	ldrhhi.w	r0, [r0, r7, lsl #2]
 80011c0:	ea4f 4413 	mov.w	r4, r3, lsr #16
 80011c4:	fa14 f383 	uxtah	r3, r4, r3
 80011c8:	bf82      	ittt	hi
 80011ca:	3902      	subhi	r1, #2
 80011cc:	181b      	addhi	r3, r3, r0
 80011ce:	3202      	addhi	r2, #2
 80011d0:	b109      	cbz	r1, 80011d6 <ipCalcChecksum+0x58>
 80011d2:	7812      	ldrb	r2, [r2, #0]
 80011d4:	4413      	add	r3, r2
 80011d6:	0c18      	lsrs	r0, r3, #16
 80011d8:	fa10 f383 	uxtah	r3, r0, r3
 80011dc:	0c18      	lsrs	r0, r3, #16
 80011de:	fa10 f383 	uxtah	r3, r0, r3
 80011e2:	b11d      	cbz	r5, 80011ec <ipCalcChecksum+0x6e>
 80011e4:	0218      	lsls	r0, r3, #8
 80011e6:	ea40 2313 	orr.w	r3, r0, r3, lsr #8
 80011ea:	b29b      	uxth	r3, r3
 80011ec:	43db      	mvns	r3, r3
 80011ee:	b298      	uxth	r0, r3
 80011f0:	bdf0      	pop	{r4, r5, r6, r7, pc}
 80011f2:	462b      	mov	r3, r5
 80011f4:	e7cd      	b.n	8001192 <ipCalcChecksum+0x14>
 80011f6:	460b      	mov	r3, r1
 80011f8:	e7cb      	b.n	8001192 <ipCalcChecksum+0x14>
 80011fa:	f854 6b04 	ldr.w	r6, [r4], #4
 80011fe:	18f3      	adds	r3, r6, r3
 8001200:	bf28      	it	cs
 8001202:	3301      	addcs	r3, #1
 8001204:	e7d2      	b.n	80011ac <ipCalcChecksum+0x2e>

08001206 <ipCalcChecksumEx>:
 8001206:	e92d 4ff8 	stmdb	sp!, {r3, r4, r5, r6, r7, r8, r9, sl, fp, lr}
 800120a:	2400      	movs	r4, #0
 800120c:	f8d0 9000 	ldr.w	r9, [r0]
 8001210:	4617      	mov	r7, r2
 8001212:	4605      	mov	r5, r0
 8001214:	4626      	mov	r6, r4
 8001216:	46a0      	mov	r8, r4
 8001218:	45c1      	cmp	r9, r8
 800121a:	d105      	bne.n	8001228 <ipCalcChecksumEx+0x22>
 800121c:	43e0      	mvns	r0, r4
 800121e:	b280      	uxth	r0, r0
 8001220:	e8bd 8ff8 	ldmia.w	sp!, {r3, r4, r5, r6, r7, r8, r9, sl, fp, pc}
 8001224:	1ac9      	subs	r1, r1, r3
 8001226:	e026      	b.n	8001276 <ipCalcChecksumEx+0x70>
 8001228:	42be      	cmp	r6, r7
 800122a:	d2f7      	bcs.n	800121c <ipCalcChecksumEx+0x16>
 800122c:	89ab      	ldrh	r3, [r5, #12]
 800122e:	428b      	cmp	r3, r1
 8001230:	d9f8      	bls.n	8001224 <ipCalcChecksumEx+0x1e>
 8001232:	68a8      	ldr	r0, [r5, #8]
 8001234:	eba7 0b06 	sub.w	fp, r7, r6
 8001238:	4408      	add	r0, r1
 800123a:	1a59      	subs	r1, r3, r1
 800123c:	458b      	cmp	fp, r1
 800123e:	bf28      	it	cs
 8001240:	468b      	movcs	fp, r1
 8001242:	f016 0a01 	ands.w	sl, r6, #1
 8001246:	bf1c      	itt	ne
 8001248:	0223      	lslne	r3, r4, #8
 800124a:	ea43 2414 	orrne.w	r4, r3, r4, lsr #8
 800124e:	4659      	mov	r1, fp
 8001250:	bf18      	it	ne
 8001252:	b2a4      	uxthne	r4, r4
 8001254:	f7ff ff93 	bl	800117e <ipCalcChecksum>
 8001258:	43c0      	mvns	r0, r0
 800125a:	fa14 f480 	uxtah	r4, r4, r0
 800125e:	0c20      	lsrs	r0, r4, #16
 8001260:	fa10 f484 	uxtah	r4, r0, r4
 8001264:	f1ba 0f00 	cmp.w	sl, #0
 8001268:	d003      	beq.n	8001272 <ipCalcChecksumEx+0x6c>
 800126a:	0220      	lsls	r0, r4, #8
 800126c:	ea40 2414 	orr.w	r4, r0, r4, lsr #8
 8001270:	b2a4      	uxth	r4, r4
 8001272:	445e      	add	r6, fp
 8001274:	2100      	movs	r1, #0
 8001276:	f108 0801 	add.w	r8, r8, #1
 800127a:	3508      	adds	r5, #8
 800127c:	e7cc      	b.n	8001218 <ipCalcChecksumEx+0x12>

0800127e <ipCalcUpperLayerChecksumEx>:
 800127e:	b570      	push	{r4, r5, r6, lr}
 8001280:	461e      	mov	r6, r3
 8001282:	4615      	mov	r5, r2
 8001284:	f7ff ff7b 	bl	800117e <ipCalcChecksum>
 8001288:	43c0      	mvns	r0, r0
 800128a:	b284      	uxth	r4, r0
 800128c:	9a04      	ldr	r2, [sp, #16]
 800128e:	4631      	mov	r1, r6
 8001290:	4628      	mov	r0, r5
 8001292:	f7ff ffb8 	bl	8001206 <ipCalcChecksumEx>
 8001296:	43c0      	mvns	r0, r0
 8001298:	fa14 f080 	uxtah	r0, r4, r0
 800129c:	0c03      	lsrs	r3, r0, #16
 800129e:	fa13 f080 	uxtah	r0, r3, r0
 80012a2:	43c0      	mvns	r0, r0
 80012a4:	b280      	uxth	r0, r0
 80012a6:	bd70      	pop	{r4, r5, r6, pc}

080012a8 <ipAllocBuffer>:
 80012a8:	b510      	push	{r4, lr}
 80012aa:	3018      	adds	r0, #24
 80012ac:	460c      	mov	r4, r1
 80012ae:	f7ff fe56 	bl	8000f5e <ethAllocBuffer>
 80012b2:	b110      	cbz	r0, 80012ba <ipAllocBuffer+0x12>
 80012b4:	6823      	ldr	r3, [r4, #0]
 80012b6:	3318      	adds	r3, #24
 80012b8:	6023      	str	r3, [r4, #0]
 80012ba:	bd10      	pop	{r4, pc}

080012bc <netTask>:
 80012bc:	e92d 41f0 	stmdb	sp!, {r4, r5, r6, r7, r8, lr}
 80012c0:	4c39      	ldr	r4, [pc, #228]	; (80013a8 <netTask+0xec>)
 80012c2:	4620      	mov	r0, r4
 80012c4:	f7ff fce6 	bl	8000c94 <osAcquireMutex>
 80012c8:	2301      	movs	r3, #1
 80012ca:	f8c4 3098 	str.w	r3, [r4, #152]	; 0x98
 80012ce:	f8d4 3194 	ldr.w	r3, [r4, #404]	; 0x194
 80012d2:	b133      	cbz	r3, 80012e2 <netTask+0x26>
 80012d4:	f8d4 3114 	ldr.w	r3, [r4, #276]	; 0x114
 80012d8:	b11b      	cbz	r3, 80012e2 <netTask+0x26>
 80012da:	691b      	ldr	r3, [r3, #16]
 80012dc:	f104 00e0 	add.w	r0, r4, #224	; 0xe0
 80012e0:	4798      	blx	r3
 80012e2:	4831      	ldr	r0, [pc, #196]	; (80013a8 <netTask+0xec>)
 80012e4:	f8df 80c4 	ldr.w	r8, [pc, #196]	; 80013ac <netTask+0xf0>
 80012e8:	f7ff fcd9 	bl	8000c9e <osReleaseMutex>
 80012ec:	f1a8 074c 	sub.w	r7, r8, #76	; 0x4c
 80012f0:	f108 0594 	add.w	r5, r8, #148	; 0x94
 80012f4:	f7ff fcd9 	bl	8000caa <osGetSystemTime>
 80012f8:	f8d4 10a4 	ldr.w	r1, [r4, #164]	; 0xa4
 80012fc:	1a42      	subs	r2, r0, r1
 80012fe:	2a00      	cmp	r2, #0
 8001300:	bfb4      	ite	lt
 8001302:	1a09      	sublt	r1, r1, r0
 8001304:	2100      	movge	r1, #0
 8001306:	4640      	mov	r0, r8
 8001308:	f7ff fcab 	bl	8000c62 <osWaitForEvent>
 800130c:	2800      	cmp	r0, #0
 800130e:	d037      	beq.n	8001380 <netTask+0xc4>
 8001310:	4638      	mov	r0, r7
 8001312:	f7ff fcbf 	bl	8000c94 <osAcquireMutex>
 8001316:	f8d4 3180 	ldr.w	r3, [r4, #384]	; 0x180
 800131a:	b193      	cbz	r3, 8001342 <netTask+0x86>
 800131c:	2300      	movs	r3, #0
 800131e:	f8c4 3180 	str.w	r3, [r4, #384]	; 0x180
 8001322:	f8d4 3114 	ldr.w	r3, [r4, #276]	; 0x114
 8001326:	b163      	cbz	r3, 8001342 <netTask+0x86>
 8001328:	695b      	ldr	r3, [r3, #20]
 800132a:	4628      	mov	r0, r5
 800132c:	4798      	blx	r3
 800132e:	f8d4 3114 	ldr.w	r3, [r4, #276]	; 0x114
 8001332:	4628      	mov	r0, r5
 8001334:	699b      	ldr	r3, [r3, #24]
 8001336:	4798      	blx	r3
 8001338:	f8d4 3114 	ldr.w	r3, [r4, #276]	; 0x114
 800133c:	4628      	mov	r0, r5
 800133e:	691b      	ldr	r3, [r3, #16]
 8001340:	4798      	blx	r3
 8001342:	f8d4 31a0 	ldr.w	r3, [r4, #416]	; 0x1a0
 8001346:	b1c3      	cbz	r3, 800137a <netTask+0xbe>
 8001348:	2300      	movs	r3, #0
 800134a:	f8c4 31a0 	str.w	r3, [r4, #416]	; 0x1a0
 800134e:	f8d4 3114 	ldr.w	r3, [r4, #276]	; 0x114
 8001352:	b193      	cbz	r3, 800137a <netTask+0xbe>
 8001354:	695b      	ldr	r3, [r3, #20]
 8001356:	4628      	mov	r0, r5
 8001358:	4798      	blx	r3
 800135a:	f8d4 3198 	ldr.w	r3, [r4, #408]	; 0x198
 800135e:	b11b      	cbz	r3, 8001368 <netTask+0xac>
 8001360:	691b      	ldr	r3, [r3, #16]
 8001362:	4628      	mov	r0, r5
 8001364:	4798      	blx	r3
 8001366:	e003      	b.n	8001370 <netTask+0xb4>
 8001368:	f8d4 31a4 	ldr.w	r3, [r4, #420]	; 0x1a4
 800136c:	2b00      	cmp	r3, #0
 800136e:	d1f7      	bne.n	8001360 <netTask+0xa4>
 8001370:	f8d4 3114 	ldr.w	r3, [r4, #276]	; 0x114
 8001374:	4628      	mov	r0, r5
 8001376:	691b      	ldr	r3, [r3, #16]
 8001378:	4798      	blx	r3
 800137a:	4638      	mov	r0, r7
 800137c:	f7ff fc8f 	bl	8000c9e <osReleaseMutex>
 8001380:	f7ff fc93 	bl	8000caa <osGetSystemTime>
 8001384:	f8d4 30a4 	ldr.w	r3, [r4, #164]	; 0xa4
 8001388:	1ac3      	subs	r3, r0, r3
 800138a:	2b00      	cmp	r3, #0
 800138c:	4606      	mov	r6, r0
 800138e:	dbb1      	blt.n	80012f4 <netTask+0x38>
 8001390:	4638      	mov	r0, r7
 8001392:	f7ff fc7f 	bl	8000c94 <osAcquireMutex>
 8001396:	3664      	adds	r6, #100	; 0x64
 8001398:	f000 fb94 	bl	8001ac4 <netTick>
 800139c:	4638      	mov	r0, r7
 800139e:	f7ff fc7e 	bl	8000c9e <osReleaseMutex>
 80013a2:	f8c4 60a4 	str.w	r6, [r4, #164]	; 0xa4
 80013a6:	e7a5      	b.n	80012f4 <netTask+0x38>
 80013a8:	20008864 	.word	0x20008864
 80013ac:	200088b0 	.word	0x200088b0

080013b0 <netInit>:
 80013b0:	b537      	push	{r0, r1, r2, r4, r5, lr}
 80013b2:	4d2c      	ldr	r5, [pc, #176]	; (8001464 <netInit+0xb4>)
 80013b4:	f640 0214 	movw	r2, #2068	; 0x814
 80013b8:	2100      	movs	r1, #0
 80013ba:	4628      	mov	r0, r5
 80013bc:	f008 f8d7 	bl	800956e <memset>
 80013c0:	f7ff fc73 	bl	8000caa <osGetSystemTime>
 80013c4:	f8c5 00a4 	str.w	r0, [r5, #164]	; 0xa4
 80013c8:	4628      	mov	r0, r5
 80013ca:	f7ff fc58 	bl	8000c7e <osCreateMutex>
 80013ce:	2800      	cmp	r0, #0
 80013d0:	d044      	beq.n	800145c <netInit+0xac>
 80013d2:	f105 004c 	add.w	r0, r5, #76	; 0x4c
 80013d6:	f7ff fc29 	bl	8000c2c <osCreateEvent>
 80013da:	2800      	cmp	r0, #0
 80013dc:	d03e      	beq.n	800145c <netInit+0xac>
 80013de:	f000 f923 	bl	8001628 <memPoolInit>
 80013e2:	4604      	mov	r4, r0
 80013e4:	2800      	cmp	r0, #0
 80013e6:	d13a      	bne.n	800145e <netInit+0xae>
 80013e8:	4601      	mov	r1, r0
 80013ea:	f240 628c 	movw	r2, #1676	; 0x68c
 80013ee:	f105 00e0 	add.w	r0, r5, #224	; 0xe0
 80013f2:	f008 f8bc 	bl	800956e <memset>
 80013f6:	4622      	mov	r2, r4
 80013f8:	491b      	ldr	r1, [pc, #108]	; (8001468 <netInit+0xb8>)
 80013fa:	f105 00f0 	add.w	r0, r5, #240	; 0xf0
 80013fe:	f008 fbab 	bl	8009b58 <siprintf>
 8001402:	23ff      	movs	r3, #255	; 0xff
 8001404:	e9c5 4438 	strd	r4, r4, [r5, #224]	; 0xe0
 8001408:	f885 319c 	strb.w	r3, [r5, #412]	; 0x19c
 800140c:	f000 feba 	bl	8002184 <socketInit>
 8001410:	4604      	mov	r4, r0
 8001412:	bb20      	cbnz	r0, 800145e <netInit+0xae>
 8001414:	f002 fb06 	bl	8003a24 <udpInit>
 8001418:	4604      	mov	r4, r0
 800141a:	bb00      	cbnz	r0, 800145e <netInit+0xae>
 800141c:	f000 fedc 	bl	80021d8 <tcpInit>
 8001420:	4604      	mov	r4, r0
 8001422:	b9e0      	cbnz	r0, 800145e <netInit+0xae>
 8001424:	f003 fa74 	bl	8004910 <dnsInit>
 8001428:	4604      	mov	r4, r0
 800142a:	b9c0      	cbnz	r0, 800145e <netInit+0xae>
 800142c:	4b0f      	ldr	r3, [pc, #60]	; (800146c <netInit+0xbc>)
 800142e:	4910      	ldr	r1, [pc, #64]	; (8001470 <netInit+0xc0>)
 8001430:	6018      	str	r0, [r3, #0]
 8001432:	4b10      	ldr	r3, [pc, #64]	; (8001474 <netInit+0xc4>)
 8001434:	6018      	str	r0, [r3, #0]
 8001436:	4b10      	ldr	r3, [pc, #64]	; (8001478 <netInit+0xc8>)
 8001438:	6018      	str	r0, [r3, #0]
 800143a:	4b10      	ldr	r3, [pc, #64]	; (800147c <netInit+0xcc>)
 800143c:	6018      	str	r0, [r3, #0]
 800143e:	4b10      	ldr	r3, [pc, #64]	; (8001480 <netInit+0xd0>)
 8001440:	6018      	str	r0, [r3, #0]
 8001442:	4b10      	ldr	r3, [pc, #64]	; (8001484 <netInit+0xd4>)
 8001444:	6018      	str	r0, [r3, #0]
 8001446:	2302      	movs	r3, #2
 8001448:	9300      	str	r3, [sp, #0]
 800144a:	4602      	mov	r2, r0
 800144c:	f240 238a 	movw	r3, #650	; 0x28a
 8001450:	480d      	ldr	r0, [pc, #52]	; (8001488 <netInit+0xd8>)
 8001452:	f7ff fbc1 	bl	8000bd8 <osCreateTask>
 8001456:	f8c5 009c 	str.w	r0, [r5, #156]	; 0x9c
 800145a:	b900      	cbnz	r0, 800145e <netInit+0xae>
 800145c:	2465      	movs	r4, #101	; 0x65
 800145e:	4620      	mov	r0, r4
 8001460:	b003      	add	sp, #12
 8001462:	bd30      	pop	{r4, r5, pc}
 8001464:	20008864 	.word	0x20008864
 8001468:	0800a8d8 	.word	0x0800a8d8
 800146c:	20009078 	.word	0x20009078
 8001470:	080012bd 	.word	0x080012bd
 8001474:	2000ad40 	.word	0x2000ad40
 8001478:	2000ad44 	.word	0x2000ad44
 800147c:	2000a9f8 	.word	0x2000a9f8
 8001480:	2000a954 	.word	0x2000a954
 8001484:	2000a9fc 	.word	0x2000a9fc
 8001488:	0800a8de 	.word	0x0800a8de

0800148c <netSetMacAddr>:
 800148c:	b538      	push	{r3, r4, r5, lr}
 800148e:	460c      	mov	r4, r1
 8001490:	4605      	mov	r5, r0
 8001492:	b198      	cbz	r0, 80014bc <netSetMacAddr+0x30>
 8001494:	b191      	cbz	r1, 80014bc <netSetMacAddr+0x30>
 8001496:	480a      	ldr	r0, [pc, #40]	; (80014c0 <netSetMacAddr+0x34>)
 8001498:	f7ff fbfc 	bl	8000c94 <osAcquireMutex>
 800149c:	6820      	ldr	r0, [r4, #0]
 800149e:	f8c5 00cc 	str.w	r0, [r5, #204]	; 0xcc
 80014a2:	88a3      	ldrh	r3, [r4, #4]
 80014a4:	f8a5 30d0 	strh.w	r3, [r5, #208]	; 0xd0
 80014a8:	f105 0108 	add.w	r1, r5, #8
 80014ac:	4620      	mov	r0, r4
 80014ae:	f7ff fd9b 	bl	8000fe8 <macAddrToEui64>
 80014b2:	4803      	ldr	r0, [pc, #12]	; (80014c0 <netSetMacAddr+0x34>)
 80014b4:	f7ff fbf3 	bl	8000c9e <osReleaseMutex>
 80014b8:	2000      	movs	r0, #0
 80014ba:	bd38      	pop	{r3, r4, r5, pc}
 80014bc:	2002      	movs	r0, #2
 80014be:	e7fc      	b.n	80014ba <netSetMacAddr+0x2e>
 80014c0:	20008864 	.word	0x20008864

080014c4 <netSetInterfaceName>:
 80014c4:	b538      	push	{r3, r4, r5, lr}
 80014c6:	460d      	mov	r5, r1
 80014c8:	4604      	mov	r4, r0
 80014ca:	b170      	cbz	r0, 80014ea <netSetInterfaceName+0x26>
 80014cc:	b169      	cbz	r1, 80014ea <netSetInterfaceName+0x26>
 80014ce:	4808      	ldr	r0, [pc, #32]	; (80014f0 <netSetInterfaceName+0x2c>)
 80014d0:	f7ff fbe0 	bl	8000c94 <osAcquireMutex>
 80014d4:	2208      	movs	r2, #8
 80014d6:	4629      	mov	r1, r5
 80014d8:	f104 0010 	add.w	r0, r4, #16
 80014dc:	f7ff fbed 	bl	8000cba <strSafeCopy>
 80014e0:	4803      	ldr	r0, [pc, #12]	; (80014f0 <netSetInterfaceName+0x2c>)
 80014e2:	f7ff fbdc 	bl	8000c9e <osReleaseMutex>
 80014e6:	2000      	movs	r0, #0
 80014e8:	bd38      	pop	{r3, r4, r5, pc}
 80014ea:	2002      	movs	r0, #2
 80014ec:	e7fc      	b.n	80014e8 <netSetInterfaceName+0x24>
 80014ee:	bf00      	nop
 80014f0:	20008864 	.word	0x20008864

080014f4 <netSetHostname>:
 80014f4:	b538      	push	{r3, r4, r5, lr}
 80014f6:	460d      	mov	r5, r1
 80014f8:	4604      	mov	r4, r0
 80014fa:	b170      	cbz	r0, 800151a <netSetHostname+0x26>
 80014fc:	b169      	cbz	r1, 800151a <netSetHostname+0x26>
 80014fe:	4808      	ldr	r0, [pc, #32]	; (8001520 <netSetHostname+0x2c>)
 8001500:	f7ff fbc8 	bl	8000c94 <osAcquireMutex>
 8001504:	2218      	movs	r2, #24
 8001506:	4629      	mov	r1, r5
 8001508:	f104 0019 	add.w	r0, r4, #25
 800150c:	f7ff fbd5 	bl	8000cba <strSafeCopy>
 8001510:	4803      	ldr	r0, [pc, #12]	; (8001520 <netSetHostname+0x2c>)
 8001512:	f7ff fbc4 	bl	8000c9e <osReleaseMutex>
 8001516:	2000      	movs	r0, #0
 8001518:	bd38      	pop	{r3, r4, r5, pc}
 800151a:	2002      	movs	r0, #2
 800151c:	e7fc      	b.n	8001518 <netSetHostname+0x24>
 800151e:	bf00      	nop
 8001520:	20008864 	.word	0x20008864

08001524 <netSetDriver>:
 8001524:	b538      	push	{r3, r4, r5, lr}
 8001526:	460d      	mov	r5, r1
 8001528:	4604      	mov	r4, r0
 800152a:	b148      	cbz	r0, 8001540 <netSetDriver+0x1c>
 800152c:	b141      	cbz	r1, 8001540 <netSetDriver+0x1c>
 800152e:	4805      	ldr	r0, [pc, #20]	; (8001544 <netSetDriver+0x20>)
 8001530:	f7ff fbb0 	bl	8000c94 <osAcquireMutex>
 8001534:	4803      	ldr	r0, [pc, #12]	; (8001544 <netSetDriver+0x20>)
 8001536:	6365      	str	r5, [r4, #52]	; 0x34
 8001538:	f7ff fbb1 	bl	8000c9e <osReleaseMutex>
 800153c:	2000      	movs	r0, #0
 800153e:	bd38      	pop	{r3, r4, r5, pc}
 8001540:	2002      	movs	r0, #2
 8001542:	e7fc      	b.n	800153e <netSetDriver+0x1a>
 8001544:	20008864 	.word	0x20008864

08001548 <netSetSpiDriver>:
 8001548:	b538      	push	{r3, r4, r5, lr}
 800154a:	460d      	mov	r5, r1
 800154c:	4604      	mov	r4, r0
 800154e:	b148      	cbz	r0, 8001564 <netSetSpiDriver+0x1c>
 8001550:	b141      	cbz	r1, 8001564 <netSetSpiDriver+0x1c>
 8001552:	4805      	ldr	r0, [pc, #20]	; (8001568 <netSetSpiDriver+0x20>)
 8001554:	f7ff fb9e 	bl	8000c94 <osAcquireMutex>
 8001558:	4803      	ldr	r0, [pc, #12]	; (8001568 <netSetSpiDriver+0x20>)
 800155a:	63a5      	str	r5, [r4, #56]	; 0x38
 800155c:	f7ff fb9f 	bl	8000c9e <osReleaseMutex>
 8001560:	2000      	movs	r0, #0
 8001562:	bd38      	pop	{r3, r4, r5, pc}
 8001564:	2002      	movs	r0, #2
 8001566:	e7fc      	b.n	8001562 <netSetSpiDriver+0x1a>
 8001568:	20008864 	.word	0x20008864

0800156c <netSetExtIntDriver>:
 800156c:	b538      	push	{r3, r4, r5, lr}
 800156e:	460d      	mov	r5, r1
 8001570:	4604      	mov	r4, r0
 8001572:	b148      	cbz	r0, 8001588 <netSetExtIntDriver+0x1c>
 8001574:	b141      	cbz	r1, 8001588 <netSetExtIntDriver+0x1c>
 8001576:	4805      	ldr	r0, [pc, #20]	; (800158c <netSetExtIntDriver+0x20>)
 8001578:	f7ff fb8c 	bl	8000c94 <osAcquireMutex>
 800157c:	4803      	ldr	r0, [pc, #12]	; (800158c <netSetExtIntDriver+0x20>)
 800157e:	6425      	str	r5, [r4, #64]	; 0x40
 8001580:	f7ff fb8d 	bl	8000c9e <osReleaseMutex>
 8001584:	2000      	movs	r0, #0
 8001586:	bd38      	pop	{r3, r4, r5, pc}
 8001588:	2002      	movs	r0, #2
 800158a:	e7fc      	b.n	8001586 <netSetExtIntDriver+0x1a>
 800158c:	20008864 	.word	0x20008864

08001590 <netConfigInterface>:
 8001590:	b570      	push	{r4, r5, r6, lr}
 8001592:	4605      	mov	r5, r0
 8001594:	2800      	cmp	r0, #0
 8001596:	d042      	beq.n	800161e <netConfigInterface+0x8e>
 8001598:	4822      	ldr	r0, [pc, #136]	; (8001624 <netConfigInterface+0x94>)
 800159a:	f7ff fb7b 	bl	8000c94 <osAcquireMutex>
 800159e:	6b6b      	ldr	r3, [r5, #52]	; 0x34
 80015a0:	b113      	cbz	r3, 80015a8 <netConfigInterface+0x18>
 80015a2:	695b      	ldr	r3, [r3, #20]
 80015a4:	4628      	mov	r0, r5
 80015a6:	4798      	blx	r3
 80015a8:	f105 0654 	add.w	r6, r5, #84	; 0x54
 80015ac:	4630      	mov	r0, r6
 80015ae:	f7ff fb3d 	bl	8000c2c <osCreateEvent>
 80015b2:	b390      	cbz	r0, 800161a <netConfigInterface+0x8a>
 80015b4:	6b6b      	ldr	r3, [r5, #52]	; 0x34
 80015b6:	bb33      	cbnz	r3, 8001606 <netConfigInterface+0x76>
 80015b8:	4628      	mov	r0, r5
 80015ba:	f7ff fb98 	bl	8000cee <ethInit>
 80015be:	4604      	mov	r4, r0
 80015c0:	bb38      	cbnz	r0, 8001612 <netConfigInterface+0x82>
 80015c2:	4628      	mov	r0, r5
 80015c4:	f004 fc3e 	bl	8005e44 <ipv4Init>
 80015c8:	4604      	mov	r4, r0
 80015ca:	bb10      	cbnz	r0, 8001612 <netConfigInterface+0x82>
 80015cc:	4628      	mov	r0, r5
 80015ce:	f003 ff94 	bl	80054fa <arpInit>
 80015d2:	4604      	mov	r4, r0
 80015d4:	b9e8      	cbnz	r0, 8001612 <netConfigInterface+0x82>
 80015d6:	4628      	mov	r0, r5
 80015d8:	f005 fabc 	bl	8006b54 <llmnrResponderInit>
 80015dc:	4604      	mov	r4, r0
 80015de:	b9c0      	cbnz	r0, 8001612 <netConfigInterface+0x82>
 80015e0:	f000 fb5e 	bl	8001ca0 <netInitRand>
 80015e4:	2301      	movs	r3, #1
 80015e6:	f8c5 30b4 	str.w	r3, [r5, #180]	; 0xb4
 80015ea:	4b0e      	ldr	r3, [pc, #56]	; (8001624 <netConfigInterface+0x94>)
 80015ec:	f8d3 3098 	ldr.w	r3, [r3, #152]	; 0x98
 80015f0:	b123      	cbz	r3, 80015fc <netConfigInterface+0x6c>
 80015f2:	6b6b      	ldr	r3, [r5, #52]	; 0x34
 80015f4:	b113      	cbz	r3, 80015fc <netConfigInterface+0x6c>
 80015f6:	691b      	ldr	r3, [r3, #16]
 80015f8:	4628      	mov	r0, r5
 80015fa:	4798      	blx	r3
 80015fc:	4809      	ldr	r0, [pc, #36]	; (8001624 <netConfigInterface+0x94>)
 80015fe:	f7ff fb4e 	bl	8000c9e <osReleaseMutex>
 8001602:	4620      	mov	r0, r4
 8001604:	bd70      	pop	{r4, r5, r6, pc}
 8001606:	689b      	ldr	r3, [r3, #8]
 8001608:	4628      	mov	r0, r5
 800160a:	4798      	blx	r3
 800160c:	4604      	mov	r4, r0
 800160e:	2800      	cmp	r0, #0
 8001610:	d0d2      	beq.n	80015b8 <netConfigInterface+0x28>
 8001612:	4630      	mov	r0, r6
 8001614:	f7ff fb1a 	bl	8000c4c <osDeleteEvent>
 8001618:	e7f0      	b.n	80015fc <netConfigInterface+0x6c>
 800161a:	2465      	movs	r4, #101	; 0x65
 800161c:	e7f9      	b.n	8001612 <netConfigInterface+0x82>
 800161e:	2402      	movs	r4, #2
 8001620:	e7ef      	b.n	8001602 <netConfigInterface+0x72>
 8001622:	bf00      	nop
 8001624:	20008864 	.word	0x20008864

08001628 <memPoolInit>:
 8001628:	2000      	movs	r0, #0
 800162a:	4770      	bx	lr

0800162c <memPoolAlloc>:
 800162c:	b510      	push	{r4, lr}
 800162e:	f7ff fb3e 	bl	8000cae <osAllocMem>
 8001632:	4604      	mov	r4, r0
 8001634:	b948      	cbnz	r0, 800164a <memPoolAlloc+0x1e>
 8001636:	f7ff fae5 	bl	8000c04 <osSuspendAllTasks>
 800163a:	4b05      	ldr	r3, [pc, #20]	; (8001650 <memPoolAlloc+0x24>)
 800163c:	4805      	ldr	r0, [pc, #20]	; (8001654 <memPoolAlloc+0x28>)
 800163e:	681b      	ldr	r3, [r3, #0]
 8001640:	68d9      	ldr	r1, [r3, #12]
 8001642:	f007 ff2f 	bl	80094a4 <fputs>
 8001646:	f7ff fae7 	bl	8000c18 <osResumeAllTasks>
 800164a:	4620      	mov	r0, r4
 800164c:	bd10      	pop	{r4, pc}
 800164e:	bf00      	nop
 8001650:	20000010 	.word	0x20000010
 8001654:	0800a8eb 	.word	0x0800a8eb

08001658 <memPoolFree>:
 8001658:	f7ff bb2b 	b.w	8000cb2 <osFreeMem>

0800165c <netBufferGetLength>:
 800165c:	b510      	push	{r4, lr}
 800165e:	2300      	movs	r3, #0
 8001660:	f850 1b0c 	ldr.w	r1, [r0], #12
 8001664:	461a      	mov	r2, r3
 8001666:	4291      	cmp	r1, r2
 8001668:	d101      	bne.n	800166e <netBufferGetLength+0x12>
 800166a:	4618      	mov	r0, r3
 800166c:	bd10      	pop	{r4, pc}
 800166e:	f830 4032 	ldrh.w	r4, [r0, r2, lsl #3]
 8001672:	3201      	adds	r2, #1
 8001674:	4423      	add	r3, r4
 8001676:	e7f6      	b.n	8001666 <netBufferGetLength+0xa>

08001678 <netBufferSetLength>:
 8001678:	e92d 41f0 	stmdb	sp!, {r4, r5, r6, r7, r8, lr}
 800167c:	6807      	ldr	r7, [r0, #0]
 800167e:	460d      	mov	r5, r1
 8001680:	4604      	mov	r4, r0
 8001682:	4603      	mov	r3, r0
 8001684:	2600      	movs	r6, #0
 8001686:	1e79      	subs	r1, r7, #1
 8001688:	42be      	cmp	r6, r7
 800168a:	d01c      	beq.n	80016c6 <netBufferSetLength+0x4e>
 800168c:	b945      	cbnz	r5, 80016a0 <netBufferSetLength+0x28>
 800168e:	6026      	str	r6, [r4, #0]
 8001690:	2500      	movs	r5, #0
 8001692:	eb04 04c6 	add.w	r4, r4, r6, lsl #3
 8001696:	42be      	cmp	r6, r7
 8001698:	d336      	bcc.n	8001708 <netBufferSetLength+0x90>
 800169a:	2000      	movs	r0, #0
 800169c:	e8bd 81f0 	ldmia.w	sp!, {r4, r5, r6, r7, r8, pc}
 80016a0:	899a      	ldrh	r2, [r3, #12]
 80016a2:	42aa      	cmp	r2, r5
 80016a4:	d305      	bcc.n	80016b2 <netBufferSetLength+0x3a>
 80016a6:	819d      	strh	r5, [r3, #12]
 80016a8:	899a      	ldrh	r2, [r3, #12]
 80016aa:	3601      	adds	r6, #1
 80016ac:	1aad      	subs	r5, r5, r2
 80016ae:	3308      	adds	r3, #8
 80016b0:	e7ea      	b.n	8001688 <netBufferSetLength+0x10>
 80016b2:	89da      	ldrh	r2, [r3, #14]
 80016b4:	2a00      	cmp	r2, #0
 80016b6:	d0f7      	beq.n	80016a8 <netBufferSetLength+0x30>
 80016b8:	42b1      	cmp	r1, r6
 80016ba:	d1f5      	bne.n	80016a8 <netBufferSetLength+0x30>
 80016bc:	42aa      	cmp	r2, r5
 80016be:	bf28      	it	cs
 80016c0:	462a      	movcs	r2, r5
 80016c2:	819a      	strh	r2, [r3, #12]
 80016c4:	e7f0      	b.n	80016a8 <netBufferSetLength+0x30>
 80016c6:	2d00      	cmp	r5, #0
 80016c8:	d0e1      	beq.n	800168e <netBufferSetLength+0x16>
 80016ca:	eb04 06c7 	add.w	r6, r4, r7, lsl #3
 80016ce:	f44f 68c0 	mov.w	r8, #1536	; 0x600
 80016d2:	6863      	ldr	r3, [r4, #4]
 80016d4:	42bb      	cmp	r3, r7
 80016d6:	d922      	bls.n	800171e <netBufferSetLength+0xa6>
 80016d8:	2d00      	cmp	r5, #0
 80016da:	d0de      	beq.n	800169a <netBufferSetLength+0x22>
 80016dc:	f44f 60c0 	mov.w	r0, #1536	; 0x600
 80016e0:	f7ff ffa4 	bl	800162c <memPoolAlloc>
 80016e4:	f846 0f08 	str.w	r0, [r6, #8]!
 80016e8:	b1e8      	cbz	r0, 8001726 <netBufferSetLength+0xae>
 80016ea:	f5b5 6fc0 	cmp.w	r5, #1536	; 0x600
 80016ee:	462b      	mov	r3, r5
 80016f0:	bf28      	it	cs
 80016f2:	f44f 63c0 	movcs.w	r3, #1536	; 0x600
 80016f6:	80b3      	strh	r3, [r6, #4]
 80016f8:	1aed      	subs	r5, r5, r3
 80016fa:	6823      	ldr	r3, [r4, #0]
 80016fc:	f8a6 8006 	strh.w	r8, [r6, #6]
 8001700:	3301      	adds	r3, #1
 8001702:	6023      	str	r3, [r4, #0]
 8001704:	3701      	adds	r7, #1
 8001706:	e7e4      	b.n	80016d2 <netBufferSetLength+0x5a>
 8001708:	89e3      	ldrh	r3, [r4, #14]
 800170a:	b113      	cbz	r3, 8001712 <netBufferSetLength+0x9a>
 800170c:	68a0      	ldr	r0, [r4, #8]
 800170e:	f7ff fad0 	bl	8000cb2 <osFreeMem>
 8001712:	60a5      	str	r5, [r4, #8]
 8001714:	81a5      	strh	r5, [r4, #12]
 8001716:	81e5      	strh	r5, [r4, #14]
 8001718:	3601      	adds	r6, #1
 800171a:	3408      	adds	r4, #8
 800171c:	e7bb      	b.n	8001696 <netBufferSetLength+0x1e>
 800171e:	2d00      	cmp	r5, #0
 8001720:	d0bb      	beq.n	800169a <netBufferSetLength+0x22>
 8001722:	2065      	movs	r0, #101	; 0x65
 8001724:	e7ba      	b.n	800169c <netBufferSetLength+0x24>
 8001726:	2064      	movs	r0, #100	; 0x64
 8001728:	e7b8      	b.n	800169c <netBufferSetLength+0x24>

0800172a <netBufferFree>:
 800172a:	b510      	push	{r4, lr}
 800172c:	2100      	movs	r1, #0
 800172e:	4604      	mov	r4, r0
 8001730:	f7ff ffa2 	bl	8001678 <netBufferSetLength>
 8001734:	4620      	mov	r0, r4
 8001736:	f7ff fabc 	bl	8000cb2 <osFreeMem>
 800173a:	e8bd 4010 	ldmia.w	sp!, {r4, lr}
 800173e:	200a      	movs	r0, #10
 8001740:	f005 bb5e 	b.w	8006e00 <HAL_Delay>

08001744 <netBufferAlloc>:
 8001744:	b513      	push	{r0, r1, r4, lr}
 8001746:	9001      	str	r0, [sp, #4]
 8001748:	f44f 60c0 	mov.w	r0, #1536	; 0x600
 800174c:	f7ff ff6e 	bl	800162c <memPoolAlloc>
 8001750:	4604      	mov	r4, r0
 8001752:	b188      	cbz	r0, 8001778 <netBufferAlloc+0x34>
 8001754:	2309      	movs	r3, #9
 8001756:	2201      	movs	r2, #1
 8001758:	e9c0 2300 	strd	r2, r3, [r0]
 800175c:	f100 0350 	add.w	r3, r0, #80	; 0x50
 8001760:	6083      	str	r3, [r0, #8]
 8001762:	f44f 63b6 	mov.w	r3, #1456	; 0x5b0
 8001766:	9901      	ldr	r1, [sp, #4]
 8001768:	60c3      	str	r3, [r0, #12]
 800176a:	f7ff ff85 	bl	8001678 <netBufferSetLength>
 800176e:	b118      	cbz	r0, 8001778 <netBufferAlloc+0x34>
 8001770:	4620      	mov	r0, r4
 8001772:	f7ff ffda 	bl	800172a <netBufferFree>
 8001776:	2400      	movs	r4, #0
 8001778:	4620      	mov	r0, r4
 800177a:	b002      	add	sp, #8
 800177c:	bd10      	pop	{r4, pc}

0800177e <netBufferAt>:
 800177e:	4602      	mov	r2, r0
 8001780:	b530      	push	{r4, r5, lr}
 8001782:	f852 5b0c 	ldr.w	r5, [r2], #12
 8001786:	2300      	movs	r3, #0
 8001788:	429d      	cmp	r5, r3
 800178a:	d101      	bne.n	8001790 <netBufferAt+0x12>
 800178c:	2000      	movs	r0, #0
 800178e:	e008      	b.n	80017a2 <netBufferAt+0x24>
 8001790:	f832 4033 	ldrh.w	r4, [r2, r3, lsl #3]
 8001794:	428c      	cmp	r4, r1
 8001796:	f103 0301 	add.w	r3, r3, #1
 800179a:	d903      	bls.n	80017a4 <netBufferAt+0x26>
 800179c:	f850 0033 	ldr.w	r0, [r0, r3, lsl #3]
 80017a0:	4408      	add	r0, r1
 80017a2:	bd30      	pop	{r4, r5, pc}
 80017a4:	1b09      	subs	r1, r1, r4
 80017a6:	e7ef      	b.n	8001788 <netBufferAt+0xa>

080017a8 <netBufferConcat>:
 80017a8:	e92d 41f0 	stmdb	sp!, {r4, r5, r6, r7, r8, lr}
 80017ac:	460d      	mov	r5, r1
 80017ae:	2400      	movs	r4, #0
 80017b0:	f855 7b0c 	ldr.w	r7, [r5], #12
 80017b4:	42a7      	cmp	r7, r4
 80017b6:	d102      	bne.n	80017be <netBufferConcat+0x16>
 80017b8:	2002      	movs	r0, #2
 80017ba:	e8bd 81f0 	ldmia.w	sp!, {r4, r5, r6, r7, r8, pc}
 80017be:	f835 6034 	ldrh.w	r6, [r5, r4, lsl #3]
 80017c2:	4296      	cmp	r6, r2
 80017c4:	d827      	bhi.n	8001816 <netBufferConcat+0x6e>
 80017c6:	1b92      	subs	r2, r2, r6
 80017c8:	3401      	adds	r4, #1
 80017ca:	e7f3      	b.n	80017b4 <netBufferConcat+0xc>
 80017cc:	f8dc 7008 	ldr.w	r7, [ip, #8]
 80017d0:	4417      	add	r7, r2
 80017d2:	60b7      	str	r7, [r6, #8]
 80017d4:	f8bc 700c 	ldrh.w	r7, [ip, #12]
 80017d8:	f8a6 e00e 	strh.w	lr, [r6, #14]
 80017dc:	1aba      	subs	r2, r7, r2
 80017de:	b292      	uxth	r2, r2
 80017e0:	429a      	cmp	r2, r3
 80017e2:	81b2      	strh	r2, [r6, #12]
 80017e4:	bf88      	it	hi
 80017e6:	81b3      	strhhi	r3, [r6, #12]
 80017e8:	89b2      	ldrh	r2, [r6, #12]
 80017ea:	1a9b      	subs	r3, r3, r2
 80017ec:	6802      	ldr	r2, [r0, #0]
 80017ee:	3201      	adds	r2, #1
 80017f0:	6002      	str	r2, [r0, #0]
 80017f2:	3501      	adds	r5, #1
 80017f4:	3608      	adds	r6, #8
 80017f6:	f10c 0c08 	add.w	ip, ip, #8
 80017fa:	2200      	movs	r2, #0
 80017fc:	b13b      	cbz	r3, 800180e <netBufferConcat+0x66>
 80017fe:	6847      	ldr	r7, [r0, #4]
 8001800:	42af      	cmp	r7, r5
 8001802:	d904      	bls.n	800180e <netBufferConcat+0x66>
 8001804:	680f      	ldr	r7, [r1, #0]
 8001806:	eb05 0804 	add.w	r8, r5, r4
 800180a:	4547      	cmp	r7, r8
 800180c:	d8de      	bhi.n	80017cc <netBufferConcat+0x24>
 800180e:	1e18      	subs	r0, r3, #0
 8001810:	bf18      	it	ne
 8001812:	2001      	movne	r0, #1
 8001814:	e7d1      	b.n	80017ba <netBufferConcat+0x12>
 8001816:	6805      	ldr	r5, [r0, #0]
 8001818:	eb01 0cc4 	add.w	ip, r1, r4, lsl #3
 800181c:	eb00 06c5 	add.w	r6, r0, r5, lsl #3
 8001820:	1b64      	subs	r4, r4, r5
 8001822:	f04f 0e00 	mov.w	lr, #0
 8001826:	e7e9      	b.n	80017fc <netBufferConcat+0x54>

08001828 <netBufferCopy>:
 8001828:	e92d 4ff7 	stmdb	sp!, {r0, r1, r2, r4, r5, r6, r7, r8, r9, sl, fp, lr}
 800182c:	9201      	str	r2, [sp, #4]
 800182e:	4602      	mov	r2, r0
 8001830:	4680      	mov	r8, r0
 8001832:	461d      	mov	r5, r3
 8001834:	f852 0b0c 	ldr.w	r0, [r2], #12
 8001838:	9b0c      	ldr	r3, [sp, #48]	; 0x30
 800183a:	460c      	mov	r4, r1
 800183c:	2700      	movs	r7, #0
 800183e:	42b8      	cmp	r0, r7
 8001840:	d103      	bne.n	800184a <netBufferCopy+0x22>
 8001842:	2002      	movs	r0, #2
 8001844:	b003      	add	sp, #12
 8001846:	e8bd 8ff0 	ldmia.w	sp!, {r4, r5, r6, r7, r8, r9, sl, fp, pc}
 800184a:	f832 1037 	ldrh.w	r1, [r2, r7, lsl #3]
 800184e:	42a1      	cmp	r1, r4
 8001850:	d90c      	bls.n	800186c <netBufferCopy+0x44>
 8001852:	9a01      	ldr	r2, [sp, #4]
 8001854:	f852 0b0c 	ldr.w	r0, [r2], #12
 8001858:	2600      	movs	r6, #0
 800185a:	42b0      	cmp	r0, r6
 800185c:	d0f1      	beq.n	8001842 <netBufferCopy+0x1a>
 800185e:	f832 1036 	ldrh.w	r1, [r2, r6, lsl #3]
 8001862:	42a9      	cmp	r1, r5
 8001864:	d832      	bhi.n	80018cc <netBufferCopy+0xa4>
 8001866:	1a6d      	subs	r5, r5, r1
 8001868:	3601      	adds	r6, #1
 800186a:	e7f6      	b.n	800185a <netBufferCopy+0x32>
 800186c:	1a64      	subs	r4, r4, r1
 800186e:	3701      	adds	r7, #1
 8001870:	e7e5      	b.n	800183e <netBufferCopy+0x16>
 8001872:	9a01      	ldr	r2, [sp, #4]
 8001874:	930c      	str	r3, [sp, #48]	; 0x30
 8001876:	eb08 0ac7 	add.w	sl, r8, r7, lsl #3
 800187a:	eb02 09c6 	add.w	r9, r2, r6, lsl #3
 800187e:	f8ba b00c 	ldrh.w	fp, [sl, #12]
 8001882:	f8b9 200c 	ldrh.w	r2, [r9, #12]
 8001886:	f8da 0008 	ldr.w	r0, [sl, #8]
 800188a:	f8d9 1008 	ldr.w	r1, [r9, #8]
 800188e:	ebab 0b04 	sub.w	fp, fp, r4
 8001892:	1b52      	subs	r2, r2, r5
 8001894:	4593      	cmp	fp, r2
 8001896:	bf28      	it	cs
 8001898:	4693      	movcs	fp, r2
 800189a:	459b      	cmp	fp, r3
 800189c:	bf28      	it	cs
 800189e:	469b      	movcs	fp, r3
 80018a0:	465a      	mov	r2, fp
 80018a2:	4429      	add	r1, r5
 80018a4:	4420      	add	r0, r4
 80018a6:	f007 fe3a 	bl	800951e <memcpy>
 80018aa:	f8ba 200c 	ldrh.w	r2, [sl, #12]
 80018ae:	9b0c      	ldr	r3, [sp, #48]	; 0x30
 80018b0:	445c      	add	r4, fp
 80018b2:	42a2      	cmp	r2, r4
 80018b4:	f8b9 200c 	ldrh.w	r2, [r9, #12]
 80018b8:	445d      	add	r5, fp
 80018ba:	bf9c      	itt	ls
 80018bc:	3701      	addls	r7, #1
 80018be:	2400      	movls	r4, #0
 80018c0:	42aa      	cmp	r2, r5
 80018c2:	eba3 030b 	sub.w	r3, r3, fp
 80018c6:	bf9c      	itt	ls
 80018c8:	3601      	addls	r6, #1
 80018ca:	2500      	movls	r5, #0
 80018cc:	b13b      	cbz	r3, 80018de <netBufferCopy+0xb6>
 80018ce:	f8d8 2000 	ldr.w	r2, [r8]
 80018d2:	42ba      	cmp	r2, r7
 80018d4:	d903      	bls.n	80018de <netBufferCopy+0xb6>
 80018d6:	9a01      	ldr	r2, [sp, #4]
 80018d8:	6812      	ldr	r2, [r2, #0]
 80018da:	42b2      	cmp	r2, r6
 80018dc:	d8c9      	bhi.n	8001872 <netBufferCopy+0x4a>
 80018de:	1e18      	subs	r0, r3, #0
 80018e0:	bf18      	it	ne
 80018e2:	2001      	movne	r0, #1
 80018e4:	e7ae      	b.n	8001844 <netBufferCopy+0x1c>

080018e6 <netBufferAppend>:
 80018e6:	b530      	push	{r4, r5, lr}
 80018e8:	e9d0 4300 	ldrd	r4, r3, [r0]
 80018ec:	429c      	cmp	r4, r3
 80018ee:	d209      	bcs.n	8001904 <netBufferAppend+0x1e>
 80018f0:	eb00 05c4 	add.w	r5, r0, r4, lsl #3
 80018f4:	2300      	movs	r3, #0
 80018f6:	3401      	adds	r4, #1
 80018f8:	60a9      	str	r1, [r5, #8]
 80018fa:	81aa      	strh	r2, [r5, #12]
 80018fc:	81eb      	strh	r3, [r5, #14]
 80018fe:	6004      	str	r4, [r0, #0]
 8001900:	4618      	mov	r0, r3
 8001902:	bd30      	pop	{r4, r5, pc}
 8001904:	2001      	movs	r0, #1
 8001906:	e7fc      	b.n	8001902 <netBufferAppend+0x1c>

08001908 <netBufferWrite>:
 8001908:	e92d 47f0 	stmdb	sp!, {r4, r5, r6, r7, r8, r9, sl, lr}
 800190c:	4681      	mov	r9, r0
 800190e:	2500      	movs	r5, #0
 8001910:	4608      	mov	r0, r1
 8001912:	4616      	mov	r6, r2
 8001914:	461f      	mov	r7, r3
 8001916:	46c8      	mov	r8, r9
 8001918:	46aa      	mov	sl, r5
 800191a:	f8d9 3000 	ldr.w	r3, [r9]
 800191e:	4553      	cmp	r3, sl
 8001920:	d901      	bls.n	8001926 <netBufferWrite+0x1e>
 8001922:	42bd      	cmp	r5, r7
 8001924:	d302      	bcc.n	800192c <netBufferWrite+0x24>
 8001926:	4628      	mov	r0, r5
 8001928:	e8bd 87f0 	ldmia.w	sp!, {r4, r5, r6, r7, r8, r9, sl, pc}
 800192c:	f8b8 400c 	ldrh.w	r4, [r8, #12]
 8001930:	4284      	cmp	r4, r0
 8001932:	d913      	bls.n	800195c <netBufferWrite+0x54>
 8001934:	1a24      	subs	r4, r4, r0
 8001936:	1b7a      	subs	r2, r7, r5
 8001938:	4294      	cmp	r4, r2
 800193a:	f8d8 3008 	ldr.w	r3, [r8, #8]
 800193e:	bf28      	it	cs
 8001940:	4614      	movcs	r4, r2
 8001942:	4631      	mov	r1, r6
 8001944:	4622      	mov	r2, r4
 8001946:	4418      	add	r0, r3
 8001948:	f007 fde9 	bl	800951e <memcpy>
 800194c:	4426      	add	r6, r4
 800194e:	4425      	add	r5, r4
 8001950:	2000      	movs	r0, #0
 8001952:	f10a 0a01 	add.w	sl, sl, #1
 8001956:	f108 0808 	add.w	r8, r8, #8
 800195a:	e7de      	b.n	800191a <netBufferWrite+0x12>
 800195c:	1b00      	subs	r0, r0, r4
 800195e:	e7f8      	b.n	8001952 <netBufferWrite+0x4a>

08001960 <netProcessLinkChange>:
 8001960:	b573      	push	{r0, r1, r4, r5, r6, lr}
 8001962:	f8d0 30a8 	ldr.w	r3, [r0, #168]	; 0xa8
 8001966:	4d49      	ldr	r5, [pc, #292]	; (8001a8c <netProcessLinkChange+0x12c>)
 8001968:	f100 0210 	add.w	r2, r0, #16
 800196c:	4604      	mov	r4, r0
 800196e:	9201      	str	r2, [sp, #4]
 8001970:	2b00      	cmp	r3, #0
 8001972:	f000 8082 	beq.w	8001a7a <netProcessLinkChange+0x11a>
 8001976:	f7ff f945 	bl	8000c04 <osSuspendAllTasks>
 800197a:	682b      	ldr	r3, [r5, #0]
 800197c:	9a01      	ldr	r2, [sp, #4]
 800197e:	68d8      	ldr	r0, [r3, #12]
 8001980:	4943      	ldr	r1, [pc, #268]	; (8001a90 <netProcessLinkChange+0x130>)
 8001982:	f007 fd17 	bl	80093b4 <fiprintf>
 8001986:	f7ff f947 	bl	8000c18 <osResumeAllTasks>
 800198a:	f8d4 30ac 	ldr.w	r3, [r4, #172]	; 0xac
 800198e:	4a41      	ldr	r2, [pc, #260]	; (8001a94 <netProcessLinkChange+0x134>)
 8001990:	4293      	cmp	r3, r2
 8001992:	d14c      	bne.n	8001a2e <netProcessLinkChange+0xce>
 8001994:	f7ff f936 	bl	8000c04 <osSuspendAllTasks>
 8001998:	682b      	ldr	r3, [r5, #0]
 800199a:	483f      	ldr	r0, [pc, #252]	; (8001a98 <netProcessLinkChange+0x138>)
 800199c:	68d9      	ldr	r1, [r3, #12]
 800199e:	f007 fd81 	bl	80094a4 <fputs>
 80019a2:	f7ff f939 	bl	8000c18 <osResumeAllTasks>
 80019a6:	f894 30b0 	ldrb.w	r3, [r4, #176]	; 0xb0
 80019aa:	2b02      	cmp	r3, #2
 80019ac:	d15d      	bne.n	8001a6a <netProcessLinkChange+0x10a>
 80019ae:	f7ff f929 	bl	8000c04 <osSuspendAllTasks>
 80019b2:	682b      	ldr	r3, [r5, #0]
 80019b4:	4839      	ldr	r0, [pc, #228]	; (8001a9c <netProcessLinkChange+0x13c>)
 80019b6:	68d9      	ldr	r1, [r3, #12]
 80019b8:	f007 fd74 	bl	80094a4 <fputs>
 80019bc:	f7ff f92c 	bl	8000c18 <osResumeAllTasks>
 80019c0:	4620      	mov	r0, r4
 80019c2:	f004 fad1 	bl	8005f68 <ipv4LinkChangeEvent>
 80019c6:	4620      	mov	r0, r4
 80019c8:	f002 ffbe 	bl	8004948 <dnsFlushCache>
 80019cc:	4d34      	ldr	r5, [pc, #208]	; (8001aa0 <netProcessLinkChange+0x140>)
 80019ce:	2600      	movs	r6, #0
 80019d0:	f8d5 3770 	ldr.w	r3, [r5, #1904]	; 0x770
 80019d4:	b153      	cbz	r3, 80019ec <netProcessLinkChange+0x8c>
 80019d6:	f8d5 276c 	ldr.w	r2, [r5, #1900]	; 0x76c
 80019da:	b10a      	cbz	r2, 80019e0 <netProcessLinkChange+0x80>
 80019dc:	42a2      	cmp	r2, r4
 80019de:	d105      	bne.n	80019ec <netProcessLinkChange+0x8c>
 80019e0:	f8d5 2774 	ldr.w	r2, [r5, #1908]	; 0x774
 80019e4:	f8d4 10a8 	ldr.w	r1, [r4, #168]	; 0xa8
 80019e8:	4620      	mov	r0, r4
 80019ea:	4798      	blx	r3
 80019ec:	3601      	adds	r6, #1
 80019ee:	2e06      	cmp	r6, #6
 80019f0:	f105 050c 	add.w	r5, r5, #12
 80019f4:	d1ec      	bne.n	80019d0 <netProcessLinkChange+0x70>
 80019f6:	4c2b      	ldr	r4, [pc, #172]	; (8001aa4 <netProcessLinkChange+0x144>)
 80019f8:	2500      	movs	r5, #0
 80019fa:	6863      	ldr	r3, [r4, #4]
 80019fc:	2b01      	cmp	r3, #1
 80019fe:	d102      	bne.n	8001a06 <netProcessLinkChange+0xa6>
 8001a00:	4620      	mov	r0, r4
 8001a02:	f001 fa83 	bl	8002f0c <tcpUpdateEvents>
 8001a06:	6863      	ldr	r3, [r4, #4]
 8001a08:	2b02      	cmp	r3, #2
 8001a0a:	d102      	bne.n	8001a12 <netProcessLinkChange+0xb2>
 8001a0c:	4620      	mov	r0, r4
 8001a0e:	f002 f891 	bl	8003b34 <udpUpdateEvents>
 8001a12:	6863      	ldr	r3, [r4, #4]
 8001a14:	3b03      	subs	r3, #3
 8001a16:	2b01      	cmp	r3, #1
 8001a18:	d802      	bhi.n	8001a20 <netProcessLinkChange+0xc0>
 8001a1a:	4620      	mov	r0, r4
 8001a1c:	f000 fa62 	bl	8001ee4 <rawSocketUpdateEvents>
 8001a20:	3501      	adds	r5, #1
 8001a22:	2d0a      	cmp	r5, #10
 8001a24:	f504 741f 	add.w	r4, r4, #636	; 0x27c
 8001a28:	d1e7      	bne.n	80019fa <netProcessLinkChange+0x9a>
 8001a2a:	b002      	add	sp, #8
 8001a2c:	bd70      	pop	{r4, r5, r6, pc}
 8001a2e:	4a1e      	ldr	r2, [pc, #120]	; (8001aa8 <netProcessLinkChange+0x148>)
 8001a30:	4293      	cmp	r3, r2
 8001a32:	d105      	bne.n	8001a40 <netProcessLinkChange+0xe0>
 8001a34:	f7ff f8e6 	bl	8000c04 <osSuspendAllTasks>
 8001a38:	682b      	ldr	r3, [r5, #0]
 8001a3a:	481c      	ldr	r0, [pc, #112]	; (8001aac <netProcessLinkChange+0x14c>)
 8001a3c:	68d9      	ldr	r1, [r3, #12]
 8001a3e:	e7ae      	b.n	800199e <netProcessLinkChange+0x3e>
 8001a40:	4a1b      	ldr	r2, [pc, #108]	; (8001ab0 <netProcessLinkChange+0x150>)
 8001a42:	4293      	cmp	r3, r2
 8001a44:	d105      	bne.n	8001a52 <netProcessLinkChange+0xf2>
 8001a46:	f7ff f8dd 	bl	8000c04 <osSuspendAllTasks>
 8001a4a:	682b      	ldr	r3, [r5, #0]
 8001a4c:	4819      	ldr	r0, [pc, #100]	; (8001ab4 <netProcessLinkChange+0x154>)
 8001a4e:	68d9      	ldr	r1, [r3, #12]
 8001a50:	e7a5      	b.n	800199e <netProcessLinkChange+0x3e>
 8001a52:	2b00      	cmp	r3, #0
 8001a54:	d0a7      	beq.n	80019a6 <netProcessLinkChange+0x46>
 8001a56:	f7ff f8d5 	bl	8000c04 <osSuspendAllTasks>
 8001a5a:	682b      	ldr	r3, [r5, #0]
 8001a5c:	f8d4 20ac 	ldr.w	r2, [r4, #172]	; 0xac
 8001a60:	4915      	ldr	r1, [pc, #84]	; (8001ab8 <netProcessLinkChange+0x158>)
 8001a62:	68d8      	ldr	r0, [r3, #12]
 8001a64:	f007 fca6 	bl	80093b4 <fiprintf>
 8001a68:	e79b      	b.n	80019a2 <netProcessLinkChange+0x42>
 8001a6a:	2b01      	cmp	r3, #1
 8001a6c:	d1a8      	bne.n	80019c0 <netProcessLinkChange+0x60>
 8001a6e:	f7ff f8c9 	bl	8000c04 <osSuspendAllTasks>
 8001a72:	682b      	ldr	r3, [r5, #0]
 8001a74:	4811      	ldr	r0, [pc, #68]	; (8001abc <netProcessLinkChange+0x15c>)
 8001a76:	68d9      	ldr	r1, [r3, #12]
 8001a78:	e79e      	b.n	80019b8 <netProcessLinkChange+0x58>
 8001a7a:	f7ff f8c3 	bl	8000c04 <osSuspendAllTasks>
 8001a7e:	682b      	ldr	r3, [r5, #0]
 8001a80:	9a01      	ldr	r2, [sp, #4]
 8001a82:	490f      	ldr	r1, [pc, #60]	; (8001ac0 <netProcessLinkChange+0x160>)
 8001a84:	68d8      	ldr	r0, [r3, #12]
 8001a86:	f007 fc95 	bl	80093b4 <fiprintf>
 8001a8a:	e797      	b.n	80019bc <netProcessLinkChange+0x5c>
 8001a8c:	20000010 	.word	0x20000010
 8001a90:	0800a907 	.word	0x0800a907
 8001a94:	3b9aca00 	.word	0x3b9aca00
 8001a98:	0800a91c 	.word	0x0800a91c
 8001a9c:	0800a983 	.word	0x0800a983
 8001aa0:	20008864 	.word	0x20008864
 8001aa4:	2000907c 	.word	0x2000907c
 8001aa8:	05f5e100 	.word	0x05f5e100
 8001aac:	0800a937 	.word	0x0800a937
 8001ab0:	00989680 	.word	0x00989680
 8001ab4:	0800a951 	.word	0x0800a951
 8001ab8:	0800a96a 	.word	0x0800a96a
 8001abc:	0800a9a1 	.word	0x0800a9a1
 8001ac0:	0800a9bf 	.word	0x0800a9bf

08001ac4 <netTick>:
 8001ac4:	b570      	push	{r4, r5, r6, lr}
 8001ac6:	4c35      	ldr	r4, [pc, #212]	; (8001b9c <netTick+0xd8>)
 8001ac8:	4d35      	ldr	r5, [pc, #212]	; (8001ba0 <netTick+0xdc>)
 8001aca:	6822      	ldr	r2, [r4, #0]
 8001acc:	3264      	adds	r2, #100	; 0x64
 8001ace:	f5b2 7f7a 	cmp.w	r2, #1000	; 0x3e8
 8001ad2:	6022      	str	r2, [r4, #0]
 8001ad4:	d258      	bcs.n	8001b88 <netTick+0xc4>
 8001ad6:	4c33      	ldr	r4, [pc, #204]	; (8001ba4 <netTick+0xe0>)
 8001ad8:	6822      	ldr	r2, [r4, #0]
 8001ada:	3264      	adds	r2, #100	; 0x64
 8001adc:	2ac7      	cmp	r2, #199	; 0xc7
 8001ade:	6022      	str	r2, [r4, #0]
 8001ae0:	d849      	bhi.n	8001b76 <netTick+0xb2>
 8001ae2:	4c31      	ldr	r4, [pc, #196]	; (8001ba8 <netTick+0xe4>)
 8001ae4:	6822      	ldr	r2, [r4, #0]
 8001ae6:	3264      	adds	r2, #100	; 0x64
 8001ae8:	f5b2 7f7a 	cmp.w	r2, #1000	; 0x3e8
 8001aec:	6022      	str	r2, [r4, #0]
 8001aee:	d239      	bcs.n	8001b64 <netTick+0xa0>
 8001af0:	4c2e      	ldr	r4, [pc, #184]	; (8001bac <netTick+0xe8>)
 8001af2:	6823      	ldr	r3, [r4, #0]
 8001af4:	3364      	adds	r3, #100	; 0x64
 8001af6:	2bc7      	cmp	r3, #199	; 0xc7
 8001af8:	6023      	str	r3, [r4, #0]
 8001afa:	d905      	bls.n	8001b08 <netTick+0x44>
 8001afc:	f8d5 0768 	ldr.w	r0, [r5, #1896]	; 0x768
 8001b00:	f002 fafc 	bl	80040fc <dhcpClientTick>
 8001b04:	2300      	movs	r3, #0
 8001b06:	6023      	str	r3, [r4, #0]
 8001b08:	4c29      	ldr	r4, [pc, #164]	; (8001bb0 <netTick+0xec>)
 8001b0a:	6823      	ldr	r3, [r4, #0]
 8001b0c:	3364      	adds	r3, #100	; 0x64
 8001b0e:	2b63      	cmp	r3, #99	; 0x63
 8001b10:	6023      	str	r3, [r4, #0]
 8001b12:	d903      	bls.n	8001b1c <netTick+0x58>
 8001b14:	f001 ff66 	bl	80039e4 <tcpTick>
 8001b18:	2300      	movs	r3, #0
 8001b1a:	6023      	str	r3, [r4, #0]
 8001b1c:	4c25      	ldr	r4, [pc, #148]	; (8001bb4 <netTick+0xf0>)
 8001b1e:	6823      	ldr	r3, [r4, #0]
 8001b20:	3364      	adds	r3, #100	; 0x64
 8001b22:	2bc7      	cmp	r3, #199	; 0xc7
 8001b24:	6023      	str	r3, [r4, #0]
 8001b26:	d903      	bls.n	8001b30 <netTick+0x6c>
 8001b28:	f002 ff22 	bl	8004970 <dnsTick>
 8001b2c:	2300      	movs	r3, #0
 8001b2e:	6023      	str	r3, [r4, #0]
 8001b30:	2500      	movs	r5, #0
 8001b32:	4c1b      	ldr	r4, [pc, #108]	; (8001ba0 <netTick+0xdc>)
 8001b34:	462e      	mov	r6, r5
 8001b36:	f8d4 27bc 	ldr.w	r2, [r4, #1980]	; 0x7bc
 8001b3a:	b16a      	cbz	r2, 8001b58 <netTick+0x94>
 8001b3c:	f8d4 37b4 	ldr.w	r3, [r4, #1972]	; 0x7b4
 8001b40:	f8d4 17b8 	ldr.w	r1, [r4, #1976]	; 0x7b8
 8001b44:	3364      	adds	r3, #100	; 0x64
 8001b46:	428b      	cmp	r3, r1
 8001b48:	f8c4 37b4 	str.w	r3, [r4, #1972]	; 0x7b4
 8001b4c:	d304      	bcc.n	8001b58 <netTick+0x94>
 8001b4e:	f8d4 07c0 	ldr.w	r0, [r4, #1984]	; 0x7c0
 8001b52:	4790      	blx	r2
 8001b54:	f8c4 67b4 	str.w	r6, [r4, #1972]	; 0x7b4
 8001b58:	3501      	adds	r5, #1
 8001b5a:	2d06      	cmp	r5, #6
 8001b5c:	f104 0410 	add.w	r4, r4, #16
 8001b60:	d1e9      	bne.n	8001b36 <netTick+0x72>
 8001b62:	bd70      	pop	{r4, r5, r6, pc}
 8001b64:	f8d5 3194 	ldr.w	r3, [r5, #404]	; 0x194
 8001b68:	b113      	cbz	r3, 8001b70 <netTick+0xac>
 8001b6a:	4813      	ldr	r0, [pc, #76]	; (8001bb8 <netTick+0xf4>)
 8001b6c:	f004 fd09 	bl	8006582 <ipv4FragTick>
 8001b70:	2300      	movs	r3, #0
 8001b72:	6023      	str	r3, [r4, #0]
 8001b74:	e7bc      	b.n	8001af0 <netTick+0x2c>
 8001b76:	f8d5 3194 	ldr.w	r3, [r5, #404]	; 0x194
 8001b7a:	b113      	cbz	r3, 8001b82 <netTick+0xbe>
 8001b7c:	480e      	ldr	r0, [pc, #56]	; (8001bb8 <netTick+0xf4>)
 8001b7e:	f003 fef5 	bl	800596c <arpTick>
 8001b82:	2300      	movs	r3, #0
 8001b84:	6023      	str	r3, [r4, #0]
 8001b86:	e7ac      	b.n	8001ae2 <netTick+0x1e>
 8001b88:	f8d5 3194 	ldr.w	r3, [r5, #404]	; 0x194
 8001b8c:	b11b      	cbz	r3, 8001b96 <netTick+0xd2>
 8001b8e:	f105 00e0 	add.w	r0, r5, #224	; 0xe0
 8001b92:	f000 f8f5 	bl	8001d80 <nicTick>
 8001b96:	2300      	movs	r3, #0
 8001b98:	6023      	str	r3, [r4, #0]
 8001b9a:	e79c      	b.n	8001ad6 <netTick+0x12>
 8001b9c:	20009078 	.word	0x20009078
 8001ba0:	20008864 	.word	0x20008864
 8001ba4:	2000ad40 	.word	0x2000ad40
 8001ba8:	2000ad44 	.word	0x2000ad44
 8001bac:	2000a9f8 	.word	0x2000a9f8
 8001bb0:	2000a954 	.word	0x2000a954
 8001bb4:	2000a9fc 	.word	0x2000a9fc
 8001bb8:	20008944 	.word	0x20008944

08001bbc <netStartTimer>:
 8001bbc:	b538      	push	{r3, r4, r5, lr}
 8001bbe:	4604      	mov	r4, r0
 8001bc0:	460d      	mov	r5, r1
 8001bc2:	f7ff f872 	bl	8000caa <osGetSystemTime>
 8001bc6:	2301      	movs	r3, #1
 8001bc8:	e9c4 0501 	strd	r0, r5, [r4, #4]
 8001bcc:	6023      	str	r3, [r4, #0]
 8001bce:	bd38      	pop	{r3, r4, r5, pc}

08001bd0 <netStopTimer>:
 8001bd0:	2300      	movs	r3, #0
 8001bd2:	6003      	str	r3, [r0, #0]
 8001bd4:	4770      	bx	lr

08001bd6 <netTimerRunning>:
 8001bd6:	6800      	ldr	r0, [r0, #0]
 8001bd8:	4770      	bx	lr

08001bda <netTimerExpired>:
 8001bda:	b510      	push	{r4, lr}
 8001bdc:	4604      	mov	r4, r0
 8001bde:	f7ff f864 	bl	8000caa <osGetSystemTime>
 8001be2:	4603      	mov	r3, r0
 8001be4:	6820      	ldr	r0, [r4, #0]
 8001be6:	b128      	cbz	r0, 8001bf4 <netTimerExpired+0x1a>
 8001be8:	e9d4 0201 	ldrd	r0, r2, [r4, #4]
 8001bec:	4410      	add	r0, r2
 8001bee:	1a1b      	subs	r3, r3, r0
 8001bf0:	43d8      	mvns	r0, r3
 8001bf2:	0fc0      	lsrs	r0, r0, #31
 8001bf4:	bd10      	pop	{r4, pc}

08001bf6 <netGetRandBit>:
 8001bf6:	b5f0      	push	{r4, r5, r6, r7, lr}
 8001bf8:	7b46      	ldrb	r6, [r0, #13]
 8001bfa:	7a87      	ldrb	r7, [r0, #10]
 8001bfc:	7e01      	ldrb	r1, [r0, #24]
 8001bfe:	f890 e025 	ldrb.w	lr, [r0, #37]	; 0x25
 8001c02:	f3c7 0240 	ubfx	r2, r7, #1, #1
 8001c06:	f3c6 1400 	ubfx	r4, r6, #4, #1
 8001c0a:	4603      	mov	r3, r0
 8001c0c:	4054      	eors	r4, r2
 8001c0e:	7d82      	ldrb	r2, [r0, #22]
 8001c10:	7ddd      	ldrb	r5, [r3, #23]
 8001c12:	ea4f 0cd6 	mov.w	ip, r6, lsr #3
 8001c16:	ea81 0152 	eor.w	r1, r1, r2, lsr #1
 8001c1a:	ea0c 0c96 	and.w	ip, ip, r6, lsr #2
 8001c1e:	f001 0101 	and.w	r1, r1, #1
 8001c22:	f00c 0c01 	and.w	ip, ip, #1
 8001c26:	f3c5 0680 	ubfx	r6, r5, #2, #1
 8001c2a:	f890 2020 	ldrb.w	r2, [r0, #32]
 8001c2e:	ea84 0001 	eor.w	r0, r4, r1
 8001c32:	ea84 040c 	eor.w	r4, r4, ip
 8001c36:	4074      	eors	r4, r6
 8001c38:	09ee      	lsrs	r6, r5, #7
 8001c3a:	ea06 1695 	and.w	r6, r6, r5, lsr #6
 8001c3e:	f893 5022 	ldrb.w	r5, [r3, #34]	; 0x22
 8001c42:	ea86 16d5 	eor.w	r6, r6, r5, lsr #7
 8001c46:	ea4f 159e 	mov.w	r5, lr, lsr #6
 8001c4a:	f3c2 0280 	ubfx	r2, r2, #2, #1
 8001c4e:	ea05 155e 	and.w	r5, r5, lr, lsr #5
 8001c52:	ea82 12de 	eor.w	r2, r2, lr, lsr #7
 8001c56:	f005 0501 	and.w	r5, r5, #1
 8001c5a:	f3c7 1700 	ubfx	r7, r7, #4, #1
 8001c5e:	4050      	eors	r0, r2
 8001c60:	406a      	eors	r2, r5
 8001c62:	407a      	eors	r2, r7
 8001c64:	4071      	eors	r1, r6
 8001c66:	f103 0525 	add.w	r5, r3, #37	; 0x25
 8001c6a:	1c9f      	adds	r7, r3, #2
 8001c6c:	782e      	ldrb	r6, [r5, #0]
 8001c6e:	f815 cd01 	ldrb.w	ip, [r5, #-1]!
 8001c72:	0076      	lsls	r6, r6, #1
 8001c74:	ea46 16dc 	orr.w	r6, r6, ip, lsr #7
 8001c78:	42af      	cmp	r7, r5
 8001c7a:	706e      	strb	r6, [r5, #1]
 8001c7c:	d1f6      	bne.n	8001c6c <netGetRandBit+0x76>
 8001c7e:	789d      	ldrb	r5, [r3, #2]
 8001c80:	ea42 0245 	orr.w	r2, r2, r5, lsl #1
 8001c84:	709a      	strb	r2, [r3, #2]
 8001c86:	7b5a      	ldrb	r2, [r3, #13]
 8001c88:	f022 0220 	bic.w	r2, r2, #32
 8001c8c:	ea42 1444 	orr.w	r4, r2, r4, lsl #5
 8001c90:	7e1a      	ldrb	r2, [r3, #24]
 8001c92:	735c      	strb	r4, [r3, #13]
 8001c94:	f022 0202 	bic.w	r2, r2, #2
 8001c98:	ea42 0141 	orr.w	r1, r2, r1, lsl #1
 8001c9c:	7619      	strb	r1, [r3, #24]
 8001c9e:	bdf0      	pop	{r4, r5, r6, r7, pc}

08001ca0 <netInitRand>:
 8001ca0:	b530      	push	{r4, r5, lr}
 8001ca2:	4c1f      	ldr	r4, [pc, #124]	; (8001d20 <netInitRand+0x80>)
 8001ca4:	f8b4 30b8 	ldrh.w	r3, [r4, #184]	; 0xb8
 8001ca8:	e9d4 013a 	ldrd	r0, r1, [r4, #232]	; 0xe8
 8001cac:	b085      	sub	sp, #20
 8001cae:	3301      	adds	r3, #1
 8001cb0:	b29b      	uxth	r3, r3
 8001cb2:	ad01      	add	r5, sp, #4
 8001cb4:	e885 0003 	stmia.w	r5, {r0, r1}
 8001cb8:	f8a4 30b8 	strh.w	r3, [r4, #184]	; 0xb8
 8001cbc:	2224      	movs	r2, #36	; 0x24
 8001cbe:	ba5b      	rev16	r3, r3
 8001cc0:	2100      	movs	r1, #0
 8001cc2:	f104 00ba 	add.w	r0, r4, #186	; 0xba
 8001cc6:	f8ad 300c 	strh.w	r3, [sp, #12]
 8001cca:	f007 fc50 	bl	800956e <memset>
 8001cce:	f104 02a8 	add.w	r2, r4, #168	; 0xa8
 8001cd2:	2300      	movs	r3, #0
 8001cd4:	3301      	adds	r3, #1
 8001cd6:	f812 1b01 	ldrb.w	r1, [r2], #1
 8001cda:	7451      	strb	r1, [r2, #17]
 8001cdc:	2b0a      	cmp	r3, #10
 8001cde:	d1f9      	bne.n	8001cd4 <netInitRand+0x34>
 8001ce0:	4a10      	ldr	r2, [pc, #64]	; (8001d24 <netInitRand+0x84>)
 8001ce2:	f815 1b01 	ldrb.w	r1, [r5], #1
 8001ce6:	f802 1b01 	strb.w	r1, [r2], #1
 8001cea:	3b01      	subs	r3, #1
 8001cec:	d1f9      	bne.n	8001ce2 <netInitRand+0x42>
 8001cee:	490e      	ldr	r1, [pc, #56]	; (8001d28 <netInitRand+0x88>)
 8001cf0:	220b      	movs	r2, #11
 8001cf2:	780b      	ldrb	r3, [r1, #0]
 8001cf4:	784d      	ldrb	r5, [r1, #1]
 8001cf6:	08db      	lsrs	r3, r3, #3
 8001cf8:	ea43 1345 	orr.w	r3, r3, r5, lsl #5
 8001cfc:	3a01      	subs	r2, #1
 8001cfe:	f801 3b01 	strb.w	r3, [r1], #1
 8001d02:	d1f6      	bne.n	8001cf2 <netInitRand+0x52>
 8001d04:	23e0      	movs	r3, #224	; 0xe0
 8001d06:	4d09      	ldr	r5, [pc, #36]	; (8001d2c <netInitRand+0x8c>)
 8001d08:	f884 30dd 	strb.w	r3, [r4, #221]	; 0xdd
 8001d0c:	f44f 6490 	mov.w	r4, #1152	; 0x480
 8001d10:	4628      	mov	r0, r5
 8001d12:	f7ff ff70 	bl	8001bf6 <netGetRandBit>
 8001d16:	3c01      	subs	r4, #1
 8001d18:	d1fa      	bne.n	8001d10 <netInitRand+0x70>
 8001d1a:	b005      	add	sp, #20
 8001d1c:	bd30      	pop	{r4, r5, pc}
 8001d1e:	bf00      	nop
 8001d20:	20008864 	.word	0x20008864
 8001d24:	2000892a 	.word	0x2000892a
 8001d28:	20008929 	.word	0x20008929
 8001d2c:	2000891c 	.word	0x2000891c

08001d30 <netGetRand>:
 8001d30:	b538      	push	{r3, r4, r5, lr}
 8001d32:	2400      	movs	r4, #0
 8001d34:	4625      	mov	r5, r4
 8001d36:	4807      	ldr	r0, [pc, #28]	; (8001d54 <netGetRand+0x24>)
 8001d38:	f7ff ff5d 	bl	8001bf6 <netGetRandBit>
 8001d3c:	40a8      	lsls	r0, r5
 8001d3e:	3501      	adds	r5, #1
 8001d40:	2d20      	cmp	r5, #32
 8001d42:	ea44 0400 	orr.w	r4, r4, r0
 8001d46:	d1f6      	bne.n	8001d36 <netGetRand+0x6>
 8001d48:	4b03      	ldr	r3, [pc, #12]	; (8001d58 <netGetRand+0x28>)
 8001d4a:	f8d3 00a0 	ldr.w	r0, [r3, #160]	; 0xa0
 8001d4e:	4420      	add	r0, r4
 8001d50:	bd38      	pop	{r3, r4, r5, pc}
 8001d52:	bf00      	nop
 8001d54:	2000891c 	.word	0x2000891c
 8001d58:	20008864 	.word	0x20008864

08001d5c <netGetRandRange>:
 8001d5c:	4281      	cmp	r1, r0
 8001d5e:	b538      	push	{r3, r4, r5, lr}
 8001d60:	4605      	mov	r5, r0
 8001d62:	460c      	mov	r4, r1
 8001d64:	dd08      	ble.n	8001d78 <netGetRandRange+0x1c>
 8001d66:	f7ff ffe3 	bl	8001d30 <netGetRand>
 8001d6a:	1b64      	subs	r4, r4, r5
 8001d6c:	3401      	adds	r4, #1
 8001d6e:	fbb0 f3f4 	udiv	r3, r0, r4
 8001d72:	fb03 0414 	mls	r4, r3, r4, r0
 8001d76:	4425      	add	r5, r4
 8001d78:	4628      	mov	r0, r5
 8001d7a:	bd38      	pop	{r3, r4, r5, pc}

08001d7c <nicGetLogicalInterface>:
 8001d7c:	4770      	bx	lr

08001d7e <nicGetPhysicalInterface>:
 8001d7e:	4770      	bx	lr

08001d80 <nicTick>:
 8001d80:	6b43      	ldr	r3, [r0, #52]	; 0x34
 8001d82:	b510      	push	{r4, lr}
 8001d84:	4604      	mov	r4, r0
 8001d86:	b173      	cbz	r3, 8001da6 <nicTick+0x26>
 8001d88:	695b      	ldr	r3, [r3, #20]
 8001d8a:	4798      	blx	r3
 8001d8c:	6b63      	ldr	r3, [r4, #52]	; 0x34
 8001d8e:	4620      	mov	r0, r4
 8001d90:	68db      	ldr	r3, [r3, #12]
 8001d92:	4798      	blx	r3
 8001d94:	f8d4 30b4 	ldr.w	r3, [r4, #180]	; 0xb4
 8001d98:	b12b      	cbz	r3, 8001da6 <nicTick+0x26>
 8001d9a:	6b63      	ldr	r3, [r4, #52]	; 0x34
 8001d9c:	4620      	mov	r0, r4
 8001d9e:	691b      	ldr	r3, [r3, #16]
 8001da0:	e8bd 4010 	ldmia.w	sp!, {r4, lr}
 8001da4:	4718      	bx	r3
 8001da6:	bd10      	pop	{r4, pc}

08001da8 <nicSendPacket>:
 8001da8:	e92d 41f0 	stmdb	sp!, {r4, r5, r6, r7, r8, lr}
 8001dac:	4604      	mov	r4, r0
 8001dae:	4616      	mov	r6, r2
 8001db0:	461f      	mov	r7, r3
 8001db2:	460d      	mov	r5, r1
 8001db4:	f7fe ff79 	bl	8000caa <osGetSystemTime>
 8001db8:	4a18      	ldr	r2, [pc, #96]	; (8001e1c <nicSendPacket+0x74>)
 8001dba:	f8d2 30a0 	ldr.w	r3, [r2, #160]	; 0xa0
 8001dbe:	4418      	add	r0, r3
 8001dc0:	f8d4 30b4 	ldr.w	r3, [r4, #180]	; 0xb4
 8001dc4:	f8c2 00a0 	str.w	r0, [r2, #160]	; 0xa0
 8001dc8:	b333      	cbz	r3, 8001e18 <nicSendPacket+0x70>
 8001dca:	6b63      	ldr	r3, [r4, #52]	; 0x34
 8001dcc:	b323      	cbz	r3, 8001e18 <nicSendPacket+0x70>
 8001dce:	781b      	ldrb	r3, [r3, #0]
 8001dd0:	2b04      	cmp	r3, #4
 8001dd2:	d112      	bne.n	8001dfa <nicSendPacket+0x52>
 8001dd4:	6b63      	ldr	r3, [r4, #52]	; 0x34
 8001dd6:	4620      	mov	r0, r4
 8001dd8:	695b      	ldr	r3, [r3, #20]
 8001dda:	4798      	blx	r3
 8001ddc:	6b63      	ldr	r3, [r4, #52]	; 0x34
 8001dde:	4629      	mov	r1, r5
 8001de0:	f8d3 801c 	ldr.w	r8, [r3, #28]
 8001de4:	4632      	mov	r2, r6
 8001de6:	463b      	mov	r3, r7
 8001de8:	4620      	mov	r0, r4
 8001dea:	47c0      	blx	r8
 8001dec:	f8d4 30b4 	ldr.w	r3, [r4, #180]	; 0xb4
 8001df0:	4605      	mov	r5, r0
 8001df2:	b963      	cbnz	r3, 8001e0e <nicSendPacket+0x66>
 8001df4:	4628      	mov	r0, r5
 8001df6:	e8bd 81f0 	ldmia.w	sp!, {r4, r5, r6, r7, r8, pc}
 8001dfa:	f04f 31ff 	mov.w	r1, #4294967295	; 0xffffffff
 8001dfe:	f104 0054 	add.w	r0, r4, #84	; 0x54
 8001e02:	f7fe ff2e 	bl	8000c62 <osWaitForEvent>
 8001e06:	2800      	cmp	r0, #0
 8001e08:	d1e4      	bne.n	8001dd4 <nicSendPacket+0x2c>
 8001e0a:	4605      	mov	r5, r0
 8001e0c:	e7f2      	b.n	8001df4 <nicSendPacket+0x4c>
 8001e0e:	6b63      	ldr	r3, [r4, #52]	; 0x34
 8001e10:	4620      	mov	r0, r4
 8001e12:	691b      	ldr	r3, [r3, #16]
 8001e14:	4798      	blx	r3
 8001e16:	e7ed      	b.n	8001df4 <nicSendPacket+0x4c>
 8001e18:	2507      	movs	r5, #7
 8001e1a:	e7eb      	b.n	8001df4 <nicSendPacket+0x4c>
 8001e1c:	20008864 	.word	0x20008864

08001e20 <nicUpdateMacAddrFilter>:
 8001e20:	b538      	push	{r3, r4, r5, lr}
 8001e22:	6b43      	ldr	r3, [r0, #52]	; 0x34
 8001e24:	4604      	mov	r4, r0
 8001e26:	b17b      	cbz	r3, 8001e48 <nicUpdateMacAddrFilter+0x28>
 8001e28:	695b      	ldr	r3, [r3, #20]
 8001e2a:	4798      	blx	r3
 8001e2c:	6b63      	ldr	r3, [r4, #52]	; 0x34
 8001e2e:	4620      	mov	r0, r4
 8001e30:	6a1b      	ldr	r3, [r3, #32]
 8001e32:	4798      	blx	r3
 8001e34:	f8d4 30b4 	ldr.w	r3, [r4, #180]	; 0xb4
 8001e38:	4605      	mov	r5, r0
 8001e3a:	b11b      	cbz	r3, 8001e44 <nicUpdateMacAddrFilter+0x24>
 8001e3c:	6b63      	ldr	r3, [r4, #52]	; 0x34
 8001e3e:	4620      	mov	r0, r4
 8001e40:	691b      	ldr	r3, [r3, #16]
 8001e42:	4798      	blx	r3
 8001e44:	4628      	mov	r0, r5
 8001e46:	bd38      	pop	{r3, r4, r5, pc}
 8001e48:	2507      	movs	r5, #7
 8001e4a:	e7fb      	b.n	8001e44 <nicUpdateMacAddrFilter+0x24>

08001e4c <nicProcessPacket>:
 8001e4c:	e92d 41f0 	stmdb	sp!, {r4, r5, r6, r7, r8, lr}
 8001e50:	4604      	mov	r4, r0
 8001e52:	4616      	mov	r6, r2
 8001e54:	461f      	mov	r7, r3
 8001e56:	460d      	mov	r5, r1
 8001e58:	f7fe ff27 	bl	8000caa <osGetSystemTime>
 8001e5c:	4a0f      	ldr	r2, [pc, #60]	; (8001e9c <nicProcessPacket+0x50>)
 8001e5e:	f8d2 30a0 	ldr.w	r3, [r2, #160]	; 0xa0
 8001e62:	4418      	add	r0, r3
 8001e64:	f8d4 30b4 	ldr.w	r3, [r4, #180]	; 0xb4
 8001e68:	f8c2 00a0 	str.w	r0, [r2, #160]	; 0xa0
 8001e6c:	b19b      	cbz	r3, 8001e96 <nicProcessPacket+0x4a>
 8001e6e:	6b63      	ldr	r3, [r4, #52]	; 0x34
 8001e70:	4620      	mov	r0, r4
 8001e72:	691b      	ldr	r3, [r3, #16]
 8001e74:	4798      	blx	r3
 8001e76:	6b63      	ldr	r3, [r4, #52]	; 0x34
 8001e78:	781b      	ldrb	r3, [r3, #0]
 8001e7a:	2b01      	cmp	r3, #1
 8001e7c:	d105      	bne.n	8001e8a <nicProcessPacket+0x3e>
 8001e7e:	463b      	mov	r3, r7
 8001e80:	4632      	mov	r2, r6
 8001e82:	4629      	mov	r1, r5
 8001e84:	4620      	mov	r0, r4
 8001e86:	f7fe ff3b 	bl	8000d00 <ethProcessFrame>
 8001e8a:	6b63      	ldr	r3, [r4, #52]	; 0x34
 8001e8c:	4620      	mov	r0, r4
 8001e8e:	695b      	ldr	r3, [r3, #20]
 8001e90:	e8bd 41f0 	ldmia.w	sp!, {r4, r5, r6, r7, r8, lr}
 8001e94:	4718      	bx	r3
 8001e96:	e8bd 81f0 	ldmia.w	sp!, {r4, r5, r6, r7, r8, pc}
 8001e9a:	bf00      	nop
 8001e9c:	20008864 	.word	0x20008864

08001ea0 <nicNotifyLinkChange>:
 8001ea0:	b510      	push	{r4, lr}
 8001ea2:	4604      	mov	r4, r0
 8001ea4:	f7fe ff01 	bl	8000caa <osGetSystemTime>
 8001ea8:	4a0c      	ldr	r2, [pc, #48]	; (8001edc <nicNotifyLinkChange+0x3c>)
 8001eaa:	f8d2 30a0 	ldr.w	r3, [r2, #160]	; 0xa0
 8001eae:	4418      	add	r0, r3
 8001eb0:	f8d4 30b4 	ldr.w	r3, [r4, #180]	; 0xb4
 8001eb4:	f8c2 00a0 	str.w	r0, [r2, #160]	; 0xa0
 8001eb8:	b11b      	cbz	r3, 8001ec2 <nicNotifyLinkChange+0x22>
 8001eba:	6b63      	ldr	r3, [r4, #52]	; 0x34
 8001ebc:	4620      	mov	r0, r4
 8001ebe:	691b      	ldr	r3, [r3, #16]
 8001ec0:	4798      	blx	r3
 8001ec2:	4b07      	ldr	r3, [pc, #28]	; (8001ee0 <nicNotifyLinkChange+0x40>)
 8001ec4:	429c      	cmp	r4, r3
 8001ec6:	d102      	bne.n	8001ece <nicNotifyLinkChange+0x2e>
 8001ec8:	4620      	mov	r0, r4
 8001eca:	f7ff fd49 	bl	8001960 <netProcessLinkChange>
 8001ece:	6b63      	ldr	r3, [r4, #52]	; 0x34
 8001ed0:	4620      	mov	r0, r4
 8001ed2:	695b      	ldr	r3, [r3, #20]
 8001ed4:	e8bd 4010 	ldmia.w	sp!, {r4, lr}
 8001ed8:	4718      	bx	r3
 8001eda:	bf00      	nop
 8001edc:	20008864 	.word	0x20008864
 8001ee0:	20008944 	.word	0x20008944

08001ee4 <rawSocketUpdateEvents>:
 8001ee4:	2300      	movs	r3, #0
 8001ee6:	b510      	push	{r4, lr}
 8001ee8:	f8c0 3084 	str.w	r3, [r0, #132]	; 0x84
 8001eec:	f8d0 3278 	ldr.w	r3, [r0, #632]	; 0x278
 8001ef0:	4604      	mov	r4, r0
 8001ef2:	b113      	cbz	r3, 8001efa <rawSocketUpdateEvents+0x16>
 8001ef4:	2380      	movs	r3, #128	; 0x80
 8001ef6:	f8c0 3084 	str.w	r3, [r0, #132]	; 0x84
 8001efa:	68e2      	ldr	r2, [r4, #12]
 8001efc:	b142      	cbz	r2, 8001f10 <rawSocketUpdateEvents+0x2c>
 8001efe:	f8d2 20a8 	ldr.w	r2, [r2, #168]	; 0xa8
 8001f02:	f8d4 3084 	ldr.w	r3, [r4, #132]	; 0x84
 8001f06:	b1a2      	cbz	r2, 8001f32 <rawSocketUpdateEvents+0x4e>
 8001f08:	f443 7300 	orr.w	r3, r3, #512	; 0x200
 8001f0c:	f8c4 3084 	str.w	r3, [r4, #132]	; 0x84
 8001f10:	e9d4 2320 	ldrd	r2, r3, [r4, #128]	; 0x80
 8001f14:	4013      	ands	r3, r2
 8001f16:	f8c4 3084 	str.w	r3, [r4, #132]	; 0x84
 8001f1a:	b16b      	cbz	r3, 8001f38 <rawSocketUpdateEvents+0x54>
 8001f1c:	f104 0034 	add.w	r0, r4, #52	; 0x34
 8001f20:	f7fe fe99 	bl	8000c56 <osSetEvent>
 8001f24:	f8d4 0088 	ldr.w	r0, [r4, #136]	; 0x88
 8001f28:	b130      	cbz	r0, 8001f38 <rawSocketUpdateEvents+0x54>
 8001f2a:	e8bd 4010 	ldmia.w	sp!, {r4, lr}
 8001f2e:	f7fe be92 	b.w	8000c56 <osSetEvent>
 8001f32:	f443 6380 	orr.w	r3, r3, #1024	; 0x400
 8001f36:	e7e9      	b.n	8001f0c <rawSocketUpdateEvents+0x28>
 8001f38:	bd10      	pop	{r4, pc}
	...

08001f3c <rawSocketProcessIpPacket>:
 8001f3c:	e92d 4ff0 	stmdb	sp!, {r4, r5, r6, r7, r8, r9, sl, fp, lr}
 8001f40:	4681      	mov	r9, r0
 8001f42:	b085      	sub	sp, #20
 8001f44:	4610      	mov	r0, r2
 8001f46:	469b      	mov	fp, r3
 8001f48:	460d      	mov	r5, r1
 8001f4a:	4692      	mov	sl, r2
 8001f4c:	f7ff fb86 	bl	800165c <netBufferGetLength>
 8001f50:	f8df 8118 	ldr.w	r8, [pc, #280]	; 800206c <rawSocketProcessIpPacket+0x130>
 8001f54:	eba0 070b 	sub.w	r7, r0, fp
 8001f58:	2300      	movs	r3, #0
 8001f5a:	f8d8 2004 	ldr.w	r2, [r8, #4]
 8001f5e:	2a03      	cmp	r2, #3
 8001f60:	d121      	bne.n	8001fa6 <rawSocketProcessIpPacket+0x6a>
 8001f62:	f8d8 200c 	ldr.w	r2, [r8, #12]
 8001f66:	b10a      	cbz	r2, 8001f6c <rawSocketProcessIpPacket+0x30>
 8001f68:	454a      	cmp	r2, r9
 8001f6a:	d11c      	bne.n	8001fa6 <rawSocketProcessIpPacket+0x6a>
 8001f6c:	682a      	ldr	r2, [r5, #0]
 8001f6e:	2a0c      	cmp	r2, #12
 8001f70:	d119      	bne.n	8001fa6 <rawSocketProcessIpPacket+0x6a>
 8001f72:	7b6a      	ldrb	r2, [r5, #13]
 8001f74:	f8d8 1008 	ldr.w	r1, [r8, #8]
 8001f78:	4291      	cmp	r1, r2
 8001f7a:	d114      	bne.n	8001fa6 <rawSocketProcessIpPacket+0x6a>
 8001f7c:	f8d8 2010 	ldr.w	r2, [r8, #16]
 8001f80:	b132      	cbz	r2, 8001f90 <rawSocketProcessIpPacket+0x54>
 8001f82:	2a04      	cmp	r2, #4
 8001f84:	d10f      	bne.n	8001fa6 <rawSocketProcessIpPacket+0x6a>
 8001f86:	f8d8 1014 	ldr.w	r1, [r8, #20]
 8001f8a:	68aa      	ldr	r2, [r5, #8]
 8001f8c:	4291      	cmp	r1, r2
 8001f8e:	d10a      	bne.n	8001fa6 <rawSocketProcessIpPacket+0x6a>
 8001f90:	f8d8 201c 	ldr.w	r2, [r8, #28]
 8001f94:	2a00      	cmp	r2, #0
 8001f96:	d062      	beq.n	800205e <rawSocketProcessIpPacket+0x122>
 8001f98:	2a04      	cmp	r2, #4
 8001f9a:	d104      	bne.n	8001fa6 <rawSocketProcessIpPacket+0x6a>
 8001f9c:	f8d8 1020 	ldr.w	r1, [r8, #32]
 8001fa0:	686a      	ldr	r2, [r5, #4]
 8001fa2:	4291      	cmp	r1, r2
 8001fa4:	d05b      	beq.n	800205e <rawSocketProcessIpPacket+0x122>
 8001fa6:	3301      	adds	r3, #1
 8001fa8:	2b0a      	cmp	r3, #10
 8001faa:	f508 781f 	add.w	r8, r8, #636	; 0x27c
 8001fae:	d1d4      	bne.n	8001f5a <rawSocketProcessIpPacket+0x1e>
 8001fb0:	20d1      	movs	r0, #209	; 0xd1
 8001fb2:	b005      	add	sp, #20
 8001fb4:	e8bd 8ff0 	ldmia.w	sp!, {r4, r5, r6, r7, r8, r9, sl, fp, pc}
 8001fb8:	f107 0034 	add.w	r0, r7, #52	; 0x34
 8001fbc:	f7ff fbc2 	bl	8001744 <netBufferAlloc>
 8001fc0:	b908      	cbnz	r0, 8001fc6 <rawSocketProcessIpPacket+0x8a>
 8001fc2:	2064      	movs	r0, #100	; 0x64
 8001fc4:	e7f5      	b.n	8001fb2 <rawSocketProcessIpPacket+0x76>
 8001fc6:	4631      	mov	r1, r6
 8001fc8:	9003      	str	r0, [sp, #12]
 8001fca:	f7ff fbd8 	bl	800177e <netBufferAt>
 8001fce:	9b03      	ldr	r3, [sp, #12]
 8001fd0:	61c3      	str	r3, [r0, #28]
 8001fd2:	4604      	mov	r4, r0
 8001fd4:	f8c8 0278 	str.w	r0, [r8, #632]	; 0x278
 8001fd8:	2300      	movs	r3, #0
 8001fda:	e9c4 3900 	strd	r3, r9, [r4]
 8001fde:	8223      	strh	r3, [r4, #16]
 8001fe0:	682b      	ldr	r3, [r5, #0]
 8001fe2:	2b0c      	cmp	r3, #12
 8001fe4:	d106      	bne.n	8001ff4 <rawSocketProcessIpPacket+0xb8>
 8001fe6:	2304      	movs	r3, #4
 8001fe8:	686a      	ldr	r2, [r5, #4]
 8001fea:	60a3      	str	r3, [r4, #8]
 8001fec:	6163      	str	r3, [r4, #20]
 8001fee:	68ab      	ldr	r3, [r5, #8]
 8001ff0:	60e2      	str	r2, [r4, #12]
 8001ff2:	61a3      	str	r3, [r4, #24]
 8001ff4:	2134      	movs	r1, #52	; 0x34
 8001ff6:	6221      	str	r1, [r4, #32]
 8001ff8:	9700      	str	r7, [sp, #0]
 8001ffa:	69e0      	ldr	r0, [r4, #28]
 8001ffc:	465b      	mov	r3, fp
 8001ffe:	4652      	mov	r2, sl
 8002000:	f7ff fc12 	bl	8001828 <netBufferCopy>
 8002004:	9b0e      	ldr	r3, [sp, #56]	; 0x38
 8002006:	3424      	adds	r4, #36	; 0x24
 8002008:	f103 0508 	add.w	r5, r3, #8
 800200c:	6818      	ldr	r0, [r3, #0]
 800200e:	6859      	ldr	r1, [r3, #4]
 8002010:	4622      	mov	r2, r4
 8002012:	c203      	stmia	r2!, {r0, r1}
 8002014:	3308      	adds	r3, #8
 8002016:	42ab      	cmp	r3, r5
 8002018:	4614      	mov	r4, r2
 800201a:	d1f7      	bne.n	800200c <rawSocketProcessIpPacket+0xd0>
 800201c:	6818      	ldr	r0, [r3, #0]
 800201e:	6010      	str	r0, [r2, #0]
 8002020:	791b      	ldrb	r3, [r3, #4]
 8002022:	7113      	strb	r3, [r2, #4]
 8002024:	4640      	mov	r0, r8
 8002026:	f7ff ff5d 	bl	8001ee4 <rawSocketUpdateEvents>
 800202a:	2000      	movs	r0, #0
 800202c:	e7c1      	b.n	8001fb2 <rawSocketProcessIpPacket+0x76>
 800202e:	3301      	adds	r3, #1
 8002030:	4626      	mov	r6, r4
 8002032:	6834      	ldr	r4, [r6, #0]
 8002034:	2c00      	cmp	r4, #0
 8002036:	d1fa      	bne.n	800202e <rawSocketProcessIpPacket+0xf2>
 8002038:	2b03      	cmp	r3, #3
 800203a:	d80e      	bhi.n	800205a <rawSocketProcessIpPacket+0x11e>
 800203c:	f107 0034 	add.w	r0, r7, #52	; 0x34
 8002040:	f7ff fb80 	bl	8001744 <netBufferAlloc>
 8002044:	9003      	str	r0, [sp, #12]
 8002046:	2800      	cmp	r0, #0
 8002048:	d0bb      	beq.n	8001fc2 <rawSocketProcessIpPacket+0x86>
 800204a:	4621      	mov	r1, r4
 800204c:	f7ff fb97 	bl	800177e <netBufferAt>
 8002050:	9b03      	ldr	r3, [sp, #12]
 8002052:	6030      	str	r0, [r6, #0]
 8002054:	4604      	mov	r4, r0
 8002056:	61c3      	str	r3, [r0, #28]
 8002058:	e7be      	b.n	8001fd8 <rawSocketProcessIpPacket+0x9c>
 800205a:	20db      	movs	r0, #219	; 0xdb
 800205c:	e7a9      	b.n	8001fb2 <rawSocketProcessIpPacket+0x76>
 800205e:	f8d8 6278 	ldr.w	r6, [r8, #632]	; 0x278
 8002062:	2e00      	cmp	r6, #0
 8002064:	d0a8      	beq.n	8001fb8 <rawSocketProcessIpPacket+0x7c>
 8002066:	2301      	movs	r3, #1
 8002068:	e7e3      	b.n	8002032 <rawSocketProcessIpPacket+0xf6>
 800206a:	bf00      	nop
 800206c:	2000907c 	.word	0x2000907c

08002070 <rawSocketProcessEthPacket>:
 8002070:	e92d 4ff7 	stmdb	sp!, {r0, r1, r2, r4, r5, r6, r7, r8, r9, sl, fp, lr}
 8002074:	9d0c      	ldr	r5, [sp, #48]	; 0x30
 8002076:	4e41      	ldr	r6, [pc, #260]	; (800217c <rawSocketProcessEthPacket+0x10c>)
 8002078:	4681      	mov	r9, r0
 800207a:	468a      	mov	sl, r1
 800207c:	4693      	mov	fp, r2
 800207e:	4698      	mov	r8, r3
 8002080:	2400      	movs	r4, #0
 8002082:	f240 57dc 	movw	r7, #1500	; 0x5dc
 8002086:	6873      	ldr	r3, [r6, #4]
 8002088:	2b04      	cmp	r3, #4
 800208a:	d007      	beq.n	800209c <rawSocketProcessEthPacket+0x2c>
 800208c:	3401      	adds	r4, #1
 800208e:	2c0a      	cmp	r4, #10
 8002090:	f506 761f 	add.w	r6, r6, #636	; 0x27c
 8002094:	d1f7      	bne.n	8002086 <rawSocketProcessEthPacket+0x16>
 8002096:	b003      	add	sp, #12
 8002098:	e8bd 8ff0 	ldmia.w	sp!, {r4, r5, r6, r7, r8, r9, sl, fp, pc}
 800209c:	68f3      	ldr	r3, [r6, #12]
 800209e:	b10b      	cbz	r3, 80020a4 <rawSocketProcessEthPacket+0x34>
 80020a0:	454b      	cmp	r3, r9
 80020a2:	d1f3      	bne.n	800208c <rawSocketProcessEthPacket+0x1c>
 80020a4:	68b3      	ldr	r3, [r6, #8]
 80020a6:	b13b      	cbz	r3, 80020b8 <rawSocketProcessEthPacket+0x48>
 80020a8:	42bb      	cmp	r3, r7
 80020aa:	f8ba 000c 	ldrh.w	r0, [sl, #12]
 80020ae:	d108      	bne.n	80020c2 <rawSocketProcessEthPacket+0x52>
 80020b0:	f7fe fd49 	bl	8000b46 <swapInt16>
 80020b4:	42b8      	cmp	r0, r7
 80020b6:	d8e9      	bhi.n	800208c <rawSocketProcessEthPacket+0x1c>
 80020b8:	f8d6 7278 	ldr.w	r7, [r6, #632]	; 0x278
 80020bc:	b13f      	cbz	r7, 80020ce <rawSocketProcessEthPacket+0x5e>
 80020be:	2301      	movs	r3, #1
 80020c0:	e048      	b.n	8002154 <rawSocketProcessEthPacket+0xe4>
 80020c2:	f7fe fd40 	bl	8000b46 <swapInt16>
 80020c6:	68b3      	ldr	r3, [r6, #8]
 80020c8:	4298      	cmp	r0, r3
 80020ca:	d0f5      	beq.n	80020b8 <rawSocketProcessEthPacket+0x48>
 80020cc:	e7de      	b.n	800208c <rawSocketProcessEthPacket+0x1c>
 80020ce:	f108 0042 	add.w	r0, r8, #66	; 0x42
 80020d2:	f7ff fb37 	bl	8001744 <netBufferAlloc>
 80020d6:	9001      	str	r0, [sp, #4]
 80020d8:	2800      	cmp	r0, #0
 80020da:	d0dc      	beq.n	8002096 <rawSocketProcessEthPacket+0x26>
 80020dc:	4639      	mov	r1, r7
 80020de:	f7ff fb4e 	bl	800177e <netBufferAt>
 80020e2:	9b01      	ldr	r3, [sp, #4]
 80020e4:	61c3      	str	r3, [r0, #28]
 80020e6:	4604      	mov	r4, r0
 80020e8:	f8c6 0278 	str.w	r0, [r6, #632]	; 0x278
 80020ec:	2300      	movs	r3, #0
 80020ee:	e9c4 3900 	strd	r3, r9, [r4]
 80020f2:	8223      	strh	r3, [r4, #16]
 80020f4:	4b22      	ldr	r3, [pc, #136]	; (8002180 <rawSocketProcessEthPacket+0x110>)
 80020f6:	e893 0003 	ldmia.w	r3, {r0, r1}
 80020fa:	f104 0208 	add.w	r2, r4, #8
 80020fe:	e882 0003 	stmia.w	r2, {r0, r1}
 8002102:	f104 0214 	add.w	r2, r4, #20
 8002106:	e882 0003 	stmia.w	r2, {r0, r1}
 800210a:	2134      	movs	r1, #52	; 0x34
 800210c:	6221      	str	r1, [r4, #32]
 800210e:	69e0      	ldr	r0, [r4, #28]
 8002110:	230e      	movs	r3, #14
 8002112:	4652      	mov	r2, sl
 8002114:	f7ff fbf8 	bl	8001908 <netBufferWrite>
 8002118:	6a21      	ldr	r1, [r4, #32]
 800211a:	69e0      	ldr	r0, [r4, #28]
 800211c:	4643      	mov	r3, r8
 800211e:	465a      	mov	r2, fp
 8002120:	310e      	adds	r1, #14
 8002122:	f7ff fbf1 	bl	8001908 <netBufferWrite>
 8002126:	3424      	adds	r4, #36	; 0x24
 8002128:	462b      	mov	r3, r5
 800212a:	3508      	adds	r5, #8
 800212c:	6818      	ldr	r0, [r3, #0]
 800212e:	6859      	ldr	r1, [r3, #4]
 8002130:	4622      	mov	r2, r4
 8002132:	c203      	stmia	r2!, {r0, r1}
 8002134:	3308      	adds	r3, #8
 8002136:	42ab      	cmp	r3, r5
 8002138:	4614      	mov	r4, r2
 800213a:	d1f7      	bne.n	800212c <rawSocketProcessEthPacket+0xbc>
 800213c:	6818      	ldr	r0, [r3, #0]
 800213e:	6010      	str	r0, [r2, #0]
 8002140:	791b      	ldrb	r3, [r3, #4]
 8002142:	7113      	strb	r3, [r2, #4]
 8002144:	4630      	mov	r0, r6
 8002146:	b003      	add	sp, #12
 8002148:	e8bd 4ff0 	ldmia.w	sp!, {r4, r5, r6, r7, r8, r9, sl, fp, lr}
 800214c:	f7ff beca 	b.w	8001ee4 <rawSocketUpdateEvents>
 8002150:	3301      	adds	r3, #1
 8002152:	4627      	mov	r7, r4
 8002154:	683c      	ldr	r4, [r7, #0]
 8002156:	2c00      	cmp	r4, #0
 8002158:	d1fa      	bne.n	8002150 <rawSocketProcessEthPacket+0xe0>
 800215a:	2b03      	cmp	r3, #3
 800215c:	d89b      	bhi.n	8002096 <rawSocketProcessEthPacket+0x26>
 800215e:	f108 0042 	add.w	r0, r8, #66	; 0x42
 8002162:	f7ff faef 	bl	8001744 <netBufferAlloc>
 8002166:	9001      	str	r0, [sp, #4]
 8002168:	2800      	cmp	r0, #0
 800216a:	d094      	beq.n	8002096 <rawSocketProcessEthPacket+0x26>
 800216c:	4621      	mov	r1, r4
 800216e:	f7ff fb06 	bl	800177e <netBufferAt>
 8002172:	9b01      	ldr	r3, [sp, #4]
 8002174:	6038      	str	r0, [r7, #0]
 8002176:	4604      	mov	r4, r0
 8002178:	61c3      	str	r3, [r0, #28]
 800217a:	e7b7      	b.n	80020ec <rawSocketProcessEthPacket+0x7c>
 800217c:	2000907c 	.word	0x2000907c
 8002180:	0800a8d0 	.word	0x0800a8d0

08002184 <socketInit>:
 8002184:	b570      	push	{r4, r5, r6, lr}
 8002186:	4812      	ldr	r0, [pc, #72]	; (80021d0 <socketInit+0x4c>)
 8002188:	4c12      	ldr	r4, [pc, #72]	; (80021d4 <socketInit+0x50>)
 800218a:	f641 02d8 	movw	r2, #6360	; 0x18d8
 800218e:	2100      	movs	r1, #0
 8002190:	f007 f9ed 	bl	800956e <memset>
 8002194:	2500      	movs	r5, #0
 8002196:	f844 5c34 	str.w	r5, [r4, #-52]
 800219a:	4620      	mov	r0, r4
 800219c:	f7fe fd46 	bl	8000c2c <osCreateEvent>
 80021a0:	b970      	cbnz	r0, 80021c0 <socketInit+0x3c>
 80021a2:	4b0b      	ldr	r3, [pc, #44]	; (80021d0 <socketInit+0x4c>)
 80021a4:	4604      	mov	r4, r0
 80021a6:	42ac      	cmp	r4, r5
 80021a8:	f503 761f 	add.w	r6, r3, #636	; 0x27c
 80021ac:	d101      	bne.n	80021b2 <socketInit+0x2e>
 80021ae:	2065      	movs	r0, #101	; 0x65
 80021b0:	bd70      	pop	{r4, r5, r6, pc}
 80021b2:	f103 0034 	add.w	r0, r3, #52	; 0x34
 80021b6:	f7fe fd49 	bl	8000c4c <osDeleteEvent>
 80021ba:	3401      	adds	r4, #1
 80021bc:	4633      	mov	r3, r6
 80021be:	e7f2      	b.n	80021a6 <socketInit+0x22>
 80021c0:	3501      	adds	r5, #1
 80021c2:	2d0a      	cmp	r5, #10
 80021c4:	f504 741f 	add.w	r4, r4, #636	; 0x27c
 80021c8:	d1e5      	bne.n	8002196 <socketInit+0x12>
 80021ca:	2000      	movs	r0, #0
 80021cc:	e7f0      	b.n	80021b0 <socketInit+0x2c>
 80021ce:	bf00      	nop
 80021d0:	2000907c 	.word	0x2000907c
 80021d4:	200090b0 	.word	0x200090b0

080021d8 <tcpInit>:
 80021d8:	4b01      	ldr	r3, [pc, #4]	; (80021e0 <tcpInit+0x8>)
 80021da:	2000      	movs	r0, #0
 80021dc:	8018      	strh	r0, [r3, #0]
 80021de:	4770      	bx	lr
 80021e0:	20000300 	.word	0x20000300

080021e4 <tcpStateClosed>:
 80021e4:	b410      	push	{r4}
 80021e6:	7b54      	ldrb	r4, [r2, #13]
 80021e8:	0764      	lsls	r4, r4, #29
 80021ea:	d403      	bmi.n	80021f4 <tcpStateClosed+0x10>
 80021ec:	f85d 4b04 	ldr.w	r4, [sp], #4
 80021f0:	f000 bc22 	b.w	8002a38 <tcpRejectSegment>
 80021f4:	f85d 4b04 	ldr.w	r4, [sp], #4
 80021f8:	4770      	bx	lr

080021fa <tcpStateListen>:
 80021fa:	e92d 47f0 	stmdb	sp!, {r4, r5, r6, r7, r8, r9, sl, lr}
 80021fe:	461d      	mov	r5, r3
 8002200:	4688      	mov	r8, r1
 8002202:	7b69      	ldrb	r1, [r5, #13]
 8002204:	9b08      	ldr	r3, [sp, #32]
 8002206:	074c      	lsls	r4, r1, #29
 8002208:	4617      	mov	r7, r2
 800220a:	4606      	mov	r6, r0
 800220c:	f001 023f 	and.w	r2, r1, #63	; 0x3f
 8002210:	d467      	bmi.n	80022e2 <tcpStateListen+0xe8>
 8002212:	06d1      	lsls	r1, r2, #27
 8002214:	d506      	bpl.n	8002224 <tcpStateListen+0x2a>
 8002216:	462a      	mov	r2, r5
 8002218:	4639      	mov	r1, r7
 800221a:	4640      	mov	r0, r8
 800221c:	e8bd 47f0 	ldmia.w	sp!, {r4, r5, r6, r7, r8, r9, sl, lr}
 8002220:	f000 bc0a 	b.w	8002a38 <tcpRejectSegment>
 8002224:	0793      	lsls	r3, r2, #30
 8002226:	d55c      	bpl.n	80022e2 <tcpStateListen+0xe8>
 8002228:	462a      	mov	r2, r5
 800222a:	4639      	mov	r1, r7
 800222c:	f000 fcdd 	bl	8002bea <tcpIsDuplicateSyn>
 8002230:	2800      	cmp	r0, #0
 8002232:	d156      	bne.n	80022e2 <tcpStateListen+0xe8>
 8002234:	f8d6 0210 	ldr.w	r0, [r6, #528]	; 0x210
 8002238:	2800      	cmp	r0, #0
 800223a:	d14f      	bne.n	80022dc <tcpStateListen+0xe2>
 800223c:	2024      	movs	r0, #36	; 0x24
 800223e:	f7ff f9f5 	bl	800162c <memPoolAlloc>
 8002242:	4604      	mov	r4, r0
 8002244:	f8c6 0210 	str.w	r0, [r6, #528]	; 0x210
 8002248:	2c00      	cmp	r4, #0
 800224a:	d04a      	beq.n	80022e2 <tcpStateListen+0xe8>
 800224c:	683b      	ldr	r3, [r7, #0]
 800224e:	2b0c      	cmp	r3, #12
 8002250:	d147      	bne.n	80022e2 <tcpStateListen+0xe8>
 8002252:	2304      	movs	r3, #4
 8002254:	687a      	ldr	r2, [r7, #4]
 8002256:	60a3      	str	r3, [r4, #8]
 8002258:	6163      	str	r3, [r4, #20]
 800225a:	68bb      	ldr	r3, [r7, #8]
 800225c:	61a3      	str	r3, [r4, #24]
 800225e:	2300      	movs	r3, #0
 8002260:	e9c4 3800 	strd	r3, r8, [r4]
 8002264:	60e2      	str	r2, [r4, #12]
 8002266:	782b      	ldrb	r3, [r5, #0]
 8002268:	786a      	ldrb	r2, [r5, #1]
 800226a:	ea43 2302 	orr.w	r3, r3, r2, lsl #8
 800226e:	8223      	strh	r3, [r4, #16]
 8002270:	686b      	ldr	r3, [r5, #4]
 8002272:	61e3      	str	r3, [r4, #28]
 8002274:	f44f 7306 	mov.w	r3, #536	; 0x218
 8002278:	8423      	strh	r3, [r4, #32]
 800227a:	2102      	movs	r1, #2
 800227c:	4628      	mov	r0, r5
 800227e:	f000 fc8f 	bl	8002ba0 <tcpGetOption>
 8002282:	b180      	cbz	r0, 80022a6 <tcpStateListen+0xac>
 8002284:	7843      	ldrb	r3, [r0, #1]
 8002286:	2b04      	cmp	r3, #4
 8002288:	d10d      	bne.n	80022a6 <tcpStateListen+0xac>
 800228a:	8840      	ldrh	r0, [r0, #2]
 800228c:	8420      	strh	r0, [r4, #32]
 800228e:	f7fe fc5a 	bl	8000b46 <swapInt16>
 8002292:	f240 5396 	movw	r3, #1430	; 0x596
 8002296:	4298      	cmp	r0, r3
 8002298:	bf28      	it	cs
 800229a:	4618      	movcs	r0, r3
 800229c:	b280      	uxth	r0, r0
 800229e:	2840      	cmp	r0, #64	; 0x40
 80022a0:	bf38      	it	cc
 80022a2:	2040      	movcc	r0, #64	; 0x40
 80022a4:	8420      	strh	r0, [r4, #32]
 80022a6:	4630      	mov	r0, r6
 80022a8:	e8bd 47f0 	ldmia.w	sp!, {r4, r5, r6, r7, r8, r9, sl, lr}
 80022ac:	f000 be2e 	b.w	8002f0c <tcpUpdateEvents>
 80022b0:	3301      	adds	r3, #1
 80022b2:	4691      	mov	r9, r2
 80022b4:	f8d9 2000 	ldr.w	r2, [r9]
 80022b8:	2a00      	cmp	r2, #0
 80022ba:	d1f9      	bne.n	80022b0 <tcpStateListen+0xb6>
 80022bc:	f8d6 2214 	ldr.w	r2, [r6, #532]	; 0x214
 80022c0:	4293      	cmp	r3, r2
 80022c2:	d304      	bcc.n	80022ce <tcpStateListen+0xd4>
 80022c4:	6803      	ldr	r3, [r0, #0]
 80022c6:	f8c6 3210 	str.w	r3, [r6, #528]	; 0x210
 80022ca:	f7ff f9c5 	bl	8001658 <memPoolFree>
 80022ce:	2024      	movs	r0, #36	; 0x24
 80022d0:	f7ff f9ac 	bl	800162c <memPoolAlloc>
 80022d4:	4604      	mov	r4, r0
 80022d6:	f8c9 0000 	str.w	r0, [r9]
 80022da:	e7b5      	b.n	8002248 <tcpStateListen+0x4e>
 80022dc:	4681      	mov	r9, r0
 80022de:	2301      	movs	r3, #1
 80022e0:	e7e8      	b.n	80022b4 <tcpStateListen+0xba>
 80022e2:	e8bd 87f0 	ldmia.w	sp!, {r4, r5, r6, r7, r8, r9, sl, pc}

080022e6 <tcpStateSynSent>:
 80022e6:	7b4b      	ldrb	r3, [r1, #13]
 80022e8:	b5f7      	push	{r0, r1, r2, r4, r5, r6, r7, lr}
 80022ea:	f003 063f 	and.w	r6, r3, #63	; 0x3f
 80022ee:	f003 0204 	and.w	r2, r3, #4
 80022f2:	f013 0310 	ands.w	r3, r3, #16
 80022f6:	4604      	mov	r4, r0
 80022f8:	460d      	mov	r5, r1
 80022fa:	d072      	beq.n	80023e2 <tcpStateSynSent+0xfc>
 80022fc:	6889      	ldr	r1, [r1, #8]
 80022fe:	f8d0 70ac 	ldr.w	r7, [r0, #172]	; 0xac
 8002302:	42b9      	cmp	r1, r7
 8002304:	d065      	beq.n	80023d2 <tcpStateSynSent+0xec>
 8002306:	2a00      	cmp	r2, #0
 8002308:	d16d      	bne.n	80023e6 <tcpStateSynSent+0x100>
 800230a:	b003      	add	sp, #12
 800230c:	e8bd 40f0 	ldmia.w	sp!, {r4, r5, r6, r7, lr}
 8002310:	f000 bfa8 	b.w	8003264 <tcpSendResetSegment>
 8002314:	07b6      	lsls	r6, r6, #30
 8002316:	d566      	bpl.n	80023e6 <tcpStateSynSent+0x100>
 8002318:	686a      	ldr	r2, [r5, #4]
 800231a:	f8c4 20a4 	str.w	r2, [r4, #164]	; 0xa4
 800231e:	3201      	adds	r2, #1
 8002320:	f8c4 20c0 	str.w	r2, [r4, #192]	; 0xc0
 8002324:	b113      	cbz	r3, 800232c <tcpStateSynSent+0x46>
 8002326:	68ab      	ldr	r3, [r5, #8]
 8002328:	f8c4 30a8 	str.w	r3, [r4, #168]	; 0xa8
 800232c:	4620      	mov	r0, r4
 800232e:	f000 fda9 	bl	8002e84 <tcpComputeRto>
 8002332:	4620      	mov	r0, r4
 8002334:	f000 fc91 	bl	8002c5a <tcpUpdateRetransmitQueue>
 8002338:	2102      	movs	r1, #2
 800233a:	4628      	mov	r0, r5
 800233c:	f000 fc30 	bl	8002ba0 <tcpGetOption>
 8002340:	b190      	cbz	r0, 8002368 <tcpStateSynSent+0x82>
 8002342:	7843      	ldrb	r3, [r0, #1]
 8002344:	2b04      	cmp	r3, #4
 8002346:	d10f      	bne.n	8002368 <tcpStateSynSent+0x82>
 8002348:	8840      	ldrh	r0, [r0, #2]
 800234a:	f8a4 009c 	strh.w	r0, [r4, #156]	; 0x9c
 800234e:	f7fe fbfa 	bl	8000b46 <swapInt16>
 8002352:	f240 5396 	movw	r3, #1430	; 0x596
 8002356:	4298      	cmp	r0, r3
 8002358:	bf28      	it	cs
 800235a:	4618      	movcs	r0, r3
 800235c:	b280      	uxth	r0, r0
 800235e:	2840      	cmp	r0, #64	; 0x40
 8002360:	bf38      	it	cc
 8002362:	2040      	movcc	r0, #64	; 0x40
 8002364:	f8a4 009c 	strh.w	r0, [r4, #156]	; 0x9c
 8002368:	f8b4 309c 	ldrh.w	r3, [r4, #156]	; 0x9c
 800236c:	f8d4 2174 	ldr.w	r2, [r4, #372]	; 0x174
 8002370:	f8d4 10a8 	ldr.w	r1, [r4, #168]	; 0xa8
 8002374:	eb03 0343 	add.w	r3, r3, r3, lsl #1
 8002378:	4293      	cmp	r3, r2
 800237a:	bf28      	it	cs
 800237c:	4613      	movcs	r3, r2
 800237e:	f8d4 20a0 	ldr.w	r2, [r4, #160]	; 0xa0
 8002382:	f8a4 30e2 	strh.w	r3, [r4, #226]	; 0xe2
 8002386:	1a89      	subs	r1, r1, r2
 8002388:	2900      	cmp	r1, #0
 800238a:	f8d4 30c0 	ldr.w	r3, [r4, #192]	; 0xc0
 800238e:	dd16      	ble.n	80023be <tcpStateSynSent+0xd8>
 8002390:	89ea      	ldrh	r2, [r5, #14]
 8002392:	f8a4 20b2 	strh.w	r2, [r4, #178]	; 0xb2
 8002396:	6869      	ldr	r1, [r5, #4]
 8002398:	f8c4 10b8 	str.w	r1, [r4, #184]	; 0xb8
 800239c:	68a9      	ldr	r1, [r5, #8]
 800239e:	f8a4 20b4 	strh.w	r2, [r4, #180]	; 0xb4
 80023a2:	2200      	movs	r2, #0
 80023a4:	e9cd 2200 	strd	r2, r2, [sp]
 80023a8:	f8c4 10bc 	str.w	r1, [r4, #188]	; 0xbc
 80023ac:	f8d4 20ac 	ldr.w	r2, [r4, #172]	; 0xac
 80023b0:	2110      	movs	r1, #16
 80023b2:	4620      	mov	r0, r4
 80023b4:	f000 fe68 	bl	8003088 <tcpSendSegment>
 80023b8:	2104      	movs	r1, #4
 80023ba:	4620      	mov	r0, r4
 80023bc:	e00c      	b.n	80023d8 <tcpStateSynSent+0xf2>
 80023be:	2100      	movs	r1, #0
 80023c0:	2001      	movs	r0, #1
 80023c2:	e9cd 1000 	strd	r1, r0, [sp]
 80023c6:	2112      	movs	r1, #18
 80023c8:	4620      	mov	r0, r4
 80023ca:	f000 fe5d 	bl	8003088 <tcpSendSegment>
 80023ce:	2103      	movs	r1, #3
 80023d0:	e7f3      	b.n	80023ba <tcpStateSynSent+0xd4>
 80023d2:	2a00      	cmp	r2, #0
 80023d4:	d09e      	beq.n	8002314 <tcpStateSynSent+0x2e>
 80023d6:	2100      	movs	r1, #0
 80023d8:	b003      	add	sp, #12
 80023da:	e8bd 40f0 	ldmia.w	sp!, {r4, r5, r6, r7, lr}
 80023de:	f000 be16 	b.w	800300e <tcpChangeState>
 80023e2:	2a00      	cmp	r2, #0
 80023e4:	d096      	beq.n	8002314 <tcpStateSynSent+0x2e>
 80023e6:	b003      	add	sp, #12
 80023e8:	bdf0      	pop	{r4, r5, r6, r7, pc}

080023ea <tcpStateEstablished>:
 80023ea:	e92d 41f3 	stmdb	sp!, {r0, r1, r4, r5, r6, r7, r8, lr}
 80023ee:	9e08      	ldr	r6, [sp, #32]
 80023f0:	4617      	mov	r7, r2
 80023f2:	4632      	mov	r2, r6
 80023f4:	460d      	mov	r5, r1
 80023f6:	4604      	mov	r4, r0
 80023f8:	4698      	mov	r8, r3
 80023fa:	f000 ff48 	bl	800328e <tcpCheckSeqNum>
 80023fe:	4601      	mov	r1, r0
 8002400:	2800      	cmp	r0, #0
 8002402:	d141      	bne.n	8002488 <tcpStateEstablished+0x9e>
 8002404:	7b6b      	ldrb	r3, [r5, #13]
 8002406:	075a      	lsls	r2, r3, #29
 8002408:	d505      	bpl.n	8002416 <tcpStateEstablished+0x2c>
 800240a:	4620      	mov	r0, r4
 800240c:	b002      	add	sp, #8
 800240e:	e8bd 41f0 	ldmia.w	sp!, {r4, r5, r6, r7, r8, lr}
 8002412:	f000 bdfc 	b.w	800300e <tcpChangeState>
 8002416:	4632      	mov	r2, r6
 8002418:	4629      	mov	r1, r5
 800241a:	4620      	mov	r0, r4
 800241c:	f000 ff6a 	bl	80032f4 <tcpCheckSyn>
 8002420:	bb90      	cbnz	r0, 8002488 <tcpStateEstablished+0x9e>
 8002422:	4632      	mov	r2, r6
 8002424:	4629      	mov	r1, r5
 8002426:	4620      	mov	r0, r4
 8002428:	f001 f893 	bl	8003552 <tcpCheckAck>
 800242c:	bb60      	cbnz	r0, 8002488 <tcpStateEstablished+0x9e>
 800242e:	b136      	cbz	r6, 800243e <tcpStateEstablished+0x54>
 8002430:	9600      	str	r6, [sp, #0]
 8002432:	4643      	mov	r3, r8
 8002434:	463a      	mov	r2, r7
 8002436:	4629      	mov	r1, r5
 8002438:	4620      	mov	r0, r4
 800243a:	f001 f968 	bl	800370e <tcpProcessSegmentData>
 800243e:	7b6b      	ldrb	r3, [r5, #13]
 8002440:	07db      	lsls	r3, r3, #31
 8002442:	d515      	bpl.n	8002470 <tcpStateEstablished+0x86>
 8002444:	686a      	ldr	r2, [r5, #4]
 8002446:	f8d4 30c0 	ldr.w	r3, [r4, #192]	; 0xc0
 800244a:	4416      	add	r6, r2
 800244c:	42b3      	cmp	r3, r6
 800244e:	d10f      	bne.n	8002470 <tcpStateEstablished+0x86>
 8002450:	3301      	adds	r3, #1
 8002452:	2200      	movs	r2, #0
 8002454:	e9cd 2200 	strd	r2, r2, [sp]
 8002458:	2110      	movs	r1, #16
 800245a:	f8d4 20ac 	ldr.w	r2, [r4, #172]	; 0xac
 800245e:	f8c4 30c0 	str.w	r3, [r4, #192]	; 0xc0
 8002462:	4620      	mov	r0, r4
 8002464:	f000 fe10 	bl	8003088 <tcpSendSegment>
 8002468:	2105      	movs	r1, #5
 800246a:	4620      	mov	r0, r4
 800246c:	f000 fdcf 	bl	800300e <tcpChangeState>
 8002470:	f8d4 10e8 	ldr.w	r1, [r4, #232]	; 0xe8
 8002474:	2900      	cmp	r1, #0
 8002476:	bf18      	it	ne
 8002478:	f44f 4180 	movne.w	r1, #16384	; 0x4000
 800247c:	4620      	mov	r0, r4
 800247e:	b002      	add	sp, #8
 8002480:	e8bd 41f0 	ldmia.w	sp!, {r4, r5, r6, r7, r8, lr}
 8002484:	f000 bf52 	b.w	800332c <tcpNagleAlgo>
 8002488:	b002      	add	sp, #8
 800248a:	e8bd 81f0 	ldmia.w	sp!, {r4, r5, r6, r7, r8, pc}

0800248e <tcpStateSynReceived>:
 800248e:	e92d 41f0 	stmdb	sp!, {r4, r5, r6, r7, r8, lr}
 8002492:	f8dd 8018 	ldr.w	r8, [sp, #24]
 8002496:	4616      	mov	r6, r2
 8002498:	4642      	mov	r2, r8
 800249a:	460d      	mov	r5, r1
 800249c:	4604      	mov	r4, r0
 800249e:	461f      	mov	r7, r3
 80024a0:	f000 fef5 	bl	800328e <tcpCheckSeqNum>
 80024a4:	4601      	mov	r1, r0
 80024a6:	bb80      	cbnz	r0, 800250a <tcpStateSynReceived+0x7c>
 80024a8:	7b6b      	ldrb	r3, [r5, #13]
 80024aa:	075a      	lsls	r2, r3, #29
 80024ac:	d504      	bpl.n	80024b8 <tcpStateSynReceived+0x2a>
 80024ae:	4620      	mov	r0, r4
 80024b0:	e8bd 41f0 	ldmia.w	sp!, {r4, r5, r6, r7, r8, lr}
 80024b4:	f000 bdab 	b.w	800300e <tcpChangeState>
 80024b8:	4642      	mov	r2, r8
 80024ba:	4629      	mov	r1, r5
 80024bc:	4620      	mov	r0, r4
 80024be:	f000 ff19 	bl	80032f4 <tcpCheckSyn>
 80024c2:	bb10      	cbnz	r0, 800250a <tcpStateSynReceived+0x7c>
 80024c4:	7b6b      	ldrb	r3, [r5, #13]
 80024c6:	06db      	lsls	r3, r3, #27
 80024c8:	d51f      	bpl.n	800250a <tcpStateSynReceived+0x7c>
 80024ca:	68a9      	ldr	r1, [r5, #8]
 80024cc:	f8d4 30ac 	ldr.w	r3, [r4, #172]	; 0xac
 80024d0:	4299      	cmp	r1, r3
 80024d2:	d004      	beq.n	80024de <tcpStateSynReceived+0x50>
 80024d4:	4620      	mov	r0, r4
 80024d6:	e8bd 41f0 	ldmia.w	sp!, {r4, r5, r6, r7, r8, lr}
 80024da:	f000 bec3 	b.w	8003264 <tcpSendResetSegment>
 80024de:	89eb      	ldrh	r3, [r5, #14]
 80024e0:	f8a4 30b2 	strh.w	r3, [r4, #178]	; 0xb2
 80024e4:	686a      	ldr	r2, [r5, #4]
 80024e6:	f8a4 30b4 	strh.w	r3, [r4, #180]	; 0xb4
 80024ea:	e9c4 212e 	strd	r2, r1, [r4, #184]	; 0xb8
 80024ee:	4620      	mov	r0, r4
 80024f0:	2104      	movs	r1, #4
 80024f2:	f000 fd8c 	bl	800300e <tcpChangeState>
 80024f6:	f8cd 8018 	str.w	r8, [sp, #24]
 80024fa:	463b      	mov	r3, r7
 80024fc:	4632      	mov	r2, r6
 80024fe:	4629      	mov	r1, r5
 8002500:	4620      	mov	r0, r4
 8002502:	e8bd 41f0 	ldmia.w	sp!, {r4, r5, r6, r7, r8, lr}
 8002506:	f7ff bf70 	b.w	80023ea <tcpStateEstablished>
 800250a:	e8bd 81f0 	ldmia.w	sp!, {r4, r5, r6, r7, r8, pc}

0800250e <tcpStateCloseWait>:
 800250e:	b570      	push	{r4, r5, r6, lr}
 8002510:	460d      	mov	r5, r1
 8002512:	4604      	mov	r4, r0
 8002514:	4616      	mov	r6, r2
 8002516:	f000 feba 	bl	800328e <tcpCheckSeqNum>
 800251a:	4601      	mov	r1, r0
 800251c:	b9f0      	cbnz	r0, 800255c <tcpStateCloseWait+0x4e>
 800251e:	7b6b      	ldrb	r3, [r5, #13]
 8002520:	075b      	lsls	r3, r3, #29
 8002522:	d504      	bpl.n	800252e <tcpStateCloseWait+0x20>
 8002524:	4620      	mov	r0, r4
 8002526:	e8bd 4070 	ldmia.w	sp!, {r4, r5, r6, lr}
 800252a:	f000 bd70 	b.w	800300e <tcpChangeState>
 800252e:	4632      	mov	r2, r6
 8002530:	4629      	mov	r1, r5
 8002532:	4620      	mov	r0, r4
 8002534:	f000 fede 	bl	80032f4 <tcpCheckSyn>
 8002538:	b980      	cbnz	r0, 800255c <tcpStateCloseWait+0x4e>
 800253a:	4632      	mov	r2, r6
 800253c:	4629      	mov	r1, r5
 800253e:	4620      	mov	r0, r4
 8002540:	f001 f807 	bl	8003552 <tcpCheckAck>
 8002544:	b950      	cbnz	r0, 800255c <tcpStateCloseWait+0x4e>
 8002546:	f8d4 10e8 	ldr.w	r1, [r4, #232]	; 0xe8
 800254a:	2900      	cmp	r1, #0
 800254c:	4620      	mov	r0, r4
 800254e:	bf18      	it	ne
 8002550:	f44f 4180 	movne.w	r1, #16384	; 0x4000
 8002554:	e8bd 4070 	ldmia.w	sp!, {r4, r5, r6, lr}
 8002558:	f000 bee8 	b.w	800332c <tcpNagleAlgo>
 800255c:	bd70      	pop	{r4, r5, r6, pc}

0800255e <tcpStateLastAck>:
 800255e:	b570      	push	{r4, r5, r6, lr}
 8002560:	4605      	mov	r5, r0
 8002562:	460c      	mov	r4, r1
 8002564:	4616      	mov	r6, r2
 8002566:	f000 fe92 	bl	800328e <tcpCheckSeqNum>
 800256a:	b9b0      	cbnz	r0, 800259a <tcpStateLastAck+0x3c>
 800256c:	7b63      	ldrb	r3, [r4, #13]
 800256e:	075a      	lsls	r2, r3, #29
 8002570:	d505      	bpl.n	800257e <tcpStateLastAck+0x20>
 8002572:	4628      	mov	r0, r5
 8002574:	2100      	movs	r1, #0
 8002576:	e8bd 4070 	ldmia.w	sp!, {r4, r5, r6, lr}
 800257a:	f000 bd48 	b.w	800300e <tcpChangeState>
 800257e:	4632      	mov	r2, r6
 8002580:	4621      	mov	r1, r4
 8002582:	4628      	mov	r0, r5
 8002584:	f000 feb6 	bl	80032f4 <tcpCheckSyn>
 8002588:	b938      	cbnz	r0, 800259a <tcpStateLastAck+0x3c>
 800258a:	7b63      	ldrb	r3, [r4, #13]
 800258c:	06db      	lsls	r3, r3, #27
 800258e:	d504      	bpl.n	800259a <tcpStateLastAck+0x3c>
 8002590:	68a2      	ldr	r2, [r4, #8]
 8002592:	f8d5 30ac 	ldr.w	r3, [r5, #172]	; 0xac
 8002596:	429a      	cmp	r2, r3
 8002598:	d0eb      	beq.n	8002572 <tcpStateLastAck+0x14>
 800259a:	bd70      	pop	{r4, r5, r6, pc}

0800259c <tcpStateFinWait1>:
 800259c:	e92d 41f3 	stmdb	sp!, {r0, r1, r4, r5, r6, r7, r8, lr}
 80025a0:	9e08      	ldr	r6, [sp, #32]
 80025a2:	4617      	mov	r7, r2
 80025a4:	4632      	mov	r2, r6
 80025a6:	460d      	mov	r5, r1
 80025a8:	4604      	mov	r4, r0
 80025aa:	4698      	mov	r8, r3
 80025ac:	f000 fe6f 	bl	800328e <tcpCheckSeqNum>
 80025b0:	4601      	mov	r1, r0
 80025b2:	2800      	cmp	r0, #0
 80025b4:	d154      	bne.n	8002660 <tcpStateFinWait1+0xc4>
 80025b6:	7b6b      	ldrb	r3, [r5, #13]
 80025b8:	075a      	lsls	r2, r3, #29
 80025ba:	d505      	bpl.n	80025c8 <tcpStateFinWait1+0x2c>
 80025bc:	4620      	mov	r0, r4
 80025be:	b002      	add	sp, #8
 80025c0:	e8bd 41f0 	ldmia.w	sp!, {r4, r5, r6, r7, r8, lr}
 80025c4:	f000 bd23 	b.w	800300e <tcpChangeState>
 80025c8:	4632      	mov	r2, r6
 80025ca:	4629      	mov	r1, r5
 80025cc:	4620      	mov	r0, r4
 80025ce:	f000 fe91 	bl	80032f4 <tcpCheckSyn>
 80025d2:	2800      	cmp	r0, #0
 80025d4:	d144      	bne.n	8002660 <tcpStateFinWait1+0xc4>
 80025d6:	4632      	mov	r2, r6
 80025d8:	4629      	mov	r1, r5
 80025da:	4620      	mov	r0, r4
 80025dc:	f000 ffb9 	bl	8003552 <tcpCheckAck>
 80025e0:	2800      	cmp	r0, #0
 80025e2:	d13d      	bne.n	8002660 <tcpStateFinWait1+0xc4>
 80025e4:	68aa      	ldr	r2, [r5, #8]
 80025e6:	f8d4 30ac 	ldr.w	r3, [r4, #172]	; 0xac
 80025ea:	429a      	cmp	r2, r3
 80025ec:	d109      	bne.n	8002602 <tcpStateFinWait1+0x66>
 80025ee:	f44f 617a 	mov.w	r1, #4000	; 0xfa0
 80025f2:	f504 700e 	add.w	r0, r4, #568	; 0x238
 80025f6:	f7ff fae1 	bl	8001bbc <netStartTimer>
 80025fa:	2108      	movs	r1, #8
 80025fc:	4620      	mov	r0, r4
 80025fe:	f000 fd06 	bl	800300e <tcpChangeState>
 8002602:	b136      	cbz	r6, 8002612 <tcpStateFinWait1+0x76>
 8002604:	9600      	str	r6, [sp, #0]
 8002606:	4643      	mov	r3, r8
 8002608:	463a      	mov	r2, r7
 800260a:	4629      	mov	r1, r5
 800260c:	4620      	mov	r0, r4
 800260e:	f001 f87e 	bl	800370e <tcpProcessSegmentData>
 8002612:	7b6b      	ldrb	r3, [r5, #13]
 8002614:	07db      	lsls	r3, r3, #31
 8002616:	d523      	bpl.n	8002660 <tcpStateFinWait1+0xc4>
 8002618:	686a      	ldr	r2, [r5, #4]
 800261a:	f8d4 30c0 	ldr.w	r3, [r4, #192]	; 0xc0
 800261e:	4416      	add	r6, r2
 8002620:	42b3      	cmp	r3, r6
 8002622:	d11d      	bne.n	8002660 <tcpStateFinWait1+0xc4>
 8002624:	3301      	adds	r3, #1
 8002626:	2200      	movs	r2, #0
 8002628:	e9cd 2200 	strd	r2, r2, [sp]
 800262c:	f8c4 30c0 	str.w	r3, [r4, #192]	; 0xc0
 8002630:	f8d4 20ac 	ldr.w	r2, [r4, #172]	; 0xac
 8002634:	2110      	movs	r1, #16
 8002636:	4620      	mov	r0, r4
 8002638:	f000 fd26 	bl	8003088 <tcpSendSegment>
 800263c:	68aa      	ldr	r2, [r5, #8]
 800263e:	f8d4 30ac 	ldr.w	r3, [r4, #172]	; 0xac
 8002642:	429a      	cmp	r2, r3
 8002644:	d10a      	bne.n	800265c <tcpStateFinWait1+0xc0>
 8002646:	4620      	mov	r0, r4
 8002648:	f000 fb6c 	bl	8002d24 <tcpDeleteControlBlock>
 800264c:	f44f 617a 	mov.w	r1, #4000	; 0xfa0
 8002650:	f504 7011 	add.w	r0, r4, #580	; 0x244
 8002654:	f7ff fab2 	bl	8001bbc <netStartTimer>
 8002658:	210a      	movs	r1, #10
 800265a:	e7af      	b.n	80025bc <tcpStateFinWait1+0x20>
 800265c:	2109      	movs	r1, #9
 800265e:	e7ad      	b.n	80025bc <tcpStateFinWait1+0x20>
 8002660:	b002      	add	sp, #8
 8002662:	e8bd 81f0 	ldmia.w	sp!, {r4, r5, r6, r7, r8, pc}

08002666 <tcpStateFinWait2>:
 8002666:	e92d 41f3 	stmdb	sp!, {r0, r1, r4, r5, r6, r7, r8, lr}
 800266a:	9e08      	ldr	r6, [sp, #32]
 800266c:	4617      	mov	r7, r2
 800266e:	4632      	mov	r2, r6
 8002670:	460d      	mov	r5, r1
 8002672:	4604      	mov	r4, r0
 8002674:	4698      	mov	r8, r3
 8002676:	f000 fe0a 	bl	800328e <tcpCheckSeqNum>
 800267a:	4601      	mov	r1, r0
 800267c:	2800      	cmp	r0, #0
 800267e:	d13c      	bne.n	80026fa <tcpStateFinWait2+0x94>
 8002680:	7b6b      	ldrb	r3, [r5, #13]
 8002682:	075a      	lsls	r2, r3, #29
 8002684:	d505      	bpl.n	8002692 <tcpStateFinWait2+0x2c>
 8002686:	4620      	mov	r0, r4
 8002688:	b002      	add	sp, #8
 800268a:	e8bd 41f0 	ldmia.w	sp!, {r4, r5, r6, r7, r8, lr}
 800268e:	f000 bcbe 	b.w	800300e <tcpChangeState>
 8002692:	4632      	mov	r2, r6
 8002694:	4629      	mov	r1, r5
 8002696:	4620      	mov	r0, r4
 8002698:	f000 fe2c 	bl	80032f4 <tcpCheckSyn>
 800269c:	bb68      	cbnz	r0, 80026fa <tcpStateFinWait2+0x94>
 800269e:	4632      	mov	r2, r6
 80026a0:	4629      	mov	r1, r5
 80026a2:	4620      	mov	r0, r4
 80026a4:	f000 ff55 	bl	8003552 <tcpCheckAck>
 80026a8:	bb38      	cbnz	r0, 80026fa <tcpStateFinWait2+0x94>
 80026aa:	b136      	cbz	r6, 80026ba <tcpStateFinWait2+0x54>
 80026ac:	9600      	str	r6, [sp, #0]
 80026ae:	4643      	mov	r3, r8
 80026b0:	463a      	mov	r2, r7
 80026b2:	4629      	mov	r1, r5
 80026b4:	4620      	mov	r0, r4
 80026b6:	f001 f82a 	bl	800370e <tcpProcessSegmentData>
 80026ba:	7b6b      	ldrb	r3, [r5, #13]
 80026bc:	07db      	lsls	r3, r3, #31
 80026be:	d51c      	bpl.n	80026fa <tcpStateFinWait2+0x94>
 80026c0:	686a      	ldr	r2, [r5, #4]
 80026c2:	f8d4 30c0 	ldr.w	r3, [r4, #192]	; 0xc0
 80026c6:	4416      	add	r6, r2
 80026c8:	42b3      	cmp	r3, r6
 80026ca:	d116      	bne.n	80026fa <tcpStateFinWait2+0x94>
 80026cc:	3301      	adds	r3, #1
 80026ce:	2200      	movs	r2, #0
 80026d0:	f8c4 30c0 	str.w	r3, [r4, #192]	; 0xc0
 80026d4:	2110      	movs	r1, #16
 80026d6:	e9cd 2200 	strd	r2, r2, [sp]
 80026da:	4620      	mov	r0, r4
 80026dc:	f8d4 20ac 	ldr.w	r2, [r4, #172]	; 0xac
 80026e0:	f000 fcd2 	bl	8003088 <tcpSendSegment>
 80026e4:	4620      	mov	r0, r4
 80026e6:	f000 fb1d 	bl	8002d24 <tcpDeleteControlBlock>
 80026ea:	f44f 617a 	mov.w	r1, #4000	; 0xfa0
 80026ee:	f504 7011 	add.w	r0, r4, #580	; 0x244
 80026f2:	f7ff fa63 	bl	8001bbc <netStartTimer>
 80026f6:	210a      	movs	r1, #10
 80026f8:	e7c5      	b.n	8002686 <tcpStateFinWait2+0x20>
 80026fa:	b002      	add	sp, #8
 80026fc:	e8bd 81f0 	ldmia.w	sp!, {r4, r5, r6, r7, r8, pc}

08002700 <tcpStateClosing>:
 8002700:	b570      	push	{r4, r5, r6, lr}
 8002702:	460d      	mov	r5, r1
 8002704:	4604      	mov	r4, r0
 8002706:	4616      	mov	r6, r2
 8002708:	f000 fdc1 	bl	800328e <tcpCheckSeqNum>
 800270c:	4601      	mov	r1, r0
 800270e:	bb18      	cbnz	r0, 8002758 <tcpStateClosing+0x58>
 8002710:	7b6b      	ldrb	r3, [r5, #13]
 8002712:	075b      	lsls	r3, r3, #29
 8002714:	d504      	bpl.n	8002720 <tcpStateClosing+0x20>
 8002716:	4620      	mov	r0, r4
 8002718:	e8bd 4070 	ldmia.w	sp!, {r4, r5, r6, lr}
 800271c:	f000 bc77 	b.w	800300e <tcpChangeState>
 8002720:	4632      	mov	r2, r6
 8002722:	4629      	mov	r1, r5
 8002724:	4620      	mov	r0, r4
 8002726:	f000 fde5 	bl	80032f4 <tcpCheckSyn>
 800272a:	b9a8      	cbnz	r0, 8002758 <tcpStateClosing+0x58>
 800272c:	4632      	mov	r2, r6
 800272e:	4629      	mov	r1, r5
 8002730:	4620      	mov	r0, r4
 8002732:	f000 ff0e 	bl	8003552 <tcpCheckAck>
 8002736:	b978      	cbnz	r0, 8002758 <tcpStateClosing+0x58>
 8002738:	68aa      	ldr	r2, [r5, #8]
 800273a:	f8d4 30ac 	ldr.w	r3, [r4, #172]	; 0xac
 800273e:	429a      	cmp	r2, r3
 8002740:	d10a      	bne.n	8002758 <tcpStateClosing+0x58>
 8002742:	4620      	mov	r0, r4
 8002744:	f000 faee 	bl	8002d24 <tcpDeleteControlBlock>
 8002748:	f44f 617a 	mov.w	r1, #4000	; 0xfa0
 800274c:	f504 7011 	add.w	r0, r4, #580	; 0x244
 8002750:	f7ff fa34 	bl	8001bbc <netStartTimer>
 8002754:	210a      	movs	r1, #10
 8002756:	e7de      	b.n	8002716 <tcpStateClosing+0x16>
 8002758:	bd70      	pop	{r4, r5, r6, pc}

0800275a <tcpStateTimeWait>:
 800275a:	b573      	push	{r0, r1, r4, r5, r6, lr}
 800275c:	460d      	mov	r5, r1
 800275e:	4604      	mov	r4, r0
 8002760:	4616      	mov	r6, r2
 8002762:	f000 fd94 	bl	800328e <tcpCheckSeqNum>
 8002766:	4601      	mov	r1, r0
 8002768:	b960      	cbnz	r0, 8002784 <tcpStateTimeWait+0x2a>
 800276a:	7b6b      	ldrb	r3, [r5, #13]
 800276c:	075b      	lsls	r3, r3, #29
 800276e:	d50b      	bpl.n	8002788 <tcpStateTimeWait+0x2e>
 8002770:	4620      	mov	r0, r4
 8002772:	f000 fc4c 	bl	800300e <tcpChangeState>
 8002776:	f8d4 5090 	ldr.w	r5, [r4, #144]	; 0x90
 800277a:	b91d      	cbnz	r5, 8002784 <tcpStateTimeWait+0x2a>
 800277c:	4620      	mov	r0, r4
 800277e:	f000 fad1 	bl	8002d24 <tcpDeleteControlBlock>
 8002782:	6065      	str	r5, [r4, #4]
 8002784:	b002      	add	sp, #8
 8002786:	bd70      	pop	{r4, r5, r6, pc}
 8002788:	4632      	mov	r2, r6
 800278a:	4629      	mov	r1, r5
 800278c:	4620      	mov	r0, r4
 800278e:	f000 fdb1 	bl	80032f4 <tcpCheckSyn>
 8002792:	2800      	cmp	r0, #0
 8002794:	d1f6      	bne.n	8002784 <tcpStateTimeWait+0x2a>
 8002796:	7b6b      	ldrb	r3, [r5, #13]
 8002798:	f003 0311 	and.w	r3, r3, #17
 800279c:	2b11      	cmp	r3, #17
 800279e:	d1f1      	bne.n	8002784 <tcpStateTimeWait+0x2a>
 80027a0:	e9cd 0000 	strd	r0, r0, [sp]
 80027a4:	f8d4 30c0 	ldr.w	r3, [r4, #192]	; 0xc0
 80027a8:	f8d4 20ac 	ldr.w	r2, [r4, #172]	; 0xac
 80027ac:	2110      	movs	r1, #16
 80027ae:	4620      	mov	r0, r4
 80027b0:	f000 fc6a 	bl	8003088 <tcpSendSegment>
 80027b4:	f44f 617a 	mov.w	r1, #4000	; 0xfa0
 80027b8:	f504 7011 	add.w	r0, r4, #580	; 0x244
 80027bc:	b002      	add	sp, #8
 80027be:	e8bd 4070 	ldmia.w	sp!, {r4, r5, r6, lr}
 80027c2:	f7ff b9fb 	b.w	8001bbc <netStartTimer>
	...

080027c8 <tcpProcessSegment>:
 80027c8:	e92d 4ff0 	stmdb	sp!, {r4, r5, r6, r7, r8, r9, sl, fp, lr}
 80027cc:	4698      	mov	r8, r3
 80027ce:	680b      	ldr	r3, [r1, #0]
 80027d0:	2b0c      	cmp	r3, #12
 80027d2:	b085      	sub	sp, #20
 80027d4:	4682      	mov	sl, r0
 80027d6:	460f      	mov	r7, r1
 80027d8:	4691      	mov	r9, r2
 80027da:	f040 8127 	bne.w	8002a2c <tcpProcessSegment+0x264>
 80027de:	6889      	ldr	r1, [r1, #8]
 80027e0:	f004 f889 	bl	80068f6 <ipv4IsBroadcastAddr>
 80027e4:	2800      	cmp	r0, #0
 80027e6:	f040 8121 	bne.w	8002a2c <tcpProcessSegment+0x264>
 80027ea:	68bb      	ldr	r3, [r7, #8]
 80027ec:	f003 03f0 	and.w	r3, r3, #240	; 0xf0
 80027f0:	2be0      	cmp	r3, #224	; 0xe0
 80027f2:	f000 811b 	beq.w	8002a2c <tcpProcessSegment+0x264>
 80027f6:	4648      	mov	r0, r9
 80027f8:	f7fe ff30 	bl	800165c <netBufferGetLength>
 80027fc:	4641      	mov	r1, r8
 80027fe:	eba0 0608 	sub.w	r6, r0, r8
 8002802:	4648      	mov	r0, r9
 8002804:	f7fe ffbb 	bl	800177e <netBufferAt>
 8002808:	4604      	mov	r4, r0
 800280a:	2800      	cmp	r0, #0
 800280c:	f000 810e 	beq.w	8002a2c <tcpProcessSegment+0x264>
 8002810:	2e13      	cmp	r6, #19
 8002812:	f240 810b 	bls.w	8002a2c <tcpProcessSegment+0x264>
 8002816:	7b03      	ldrb	r3, [r0, #12]
 8002818:	2b4f      	cmp	r3, #79	; 0x4f
 800281a:	ea4f 1213 	mov.w	r2, r3, lsr #4
 800281e:	f240 8105 	bls.w	8002a2c <tcpProcessSegment+0x264>
 8002822:	ebb6 0f82 	cmp.w	r6, r2, lsl #2
 8002826:	f0c0 8101 	bcc.w	8002a2c <tcpProcessSegment+0x264>
 800282a:	4638      	mov	r0, r7
 800282c:	9600      	str	r6, [sp, #0]
 800282e:	f850 1b04 	ldr.w	r1, [r0], #4
 8002832:	4643      	mov	r3, r8
 8002834:	464a      	mov	r2, r9
 8002836:	f7fe fd22 	bl	800127e <ipCalcUpperLayerChecksumEx>
 800283a:	2800      	cmp	r0, #0
 800283c:	f040 80f6 	bne.w	8002a2c <tcpProcessSegment+0x264>
 8002840:	f8df b1f0 	ldr.w	fp, [pc, #496]	; 8002a34 <tcpProcessSegment+0x26c>
 8002844:	4605      	mov	r5, r0
 8002846:	4603      	mov	r3, r0
 8002848:	f8db 2004 	ldr.w	r2, [fp, #4]
 800284c:	2a01      	cmp	r2, #1
 800284e:	d139      	bne.n	80028c4 <tcpProcessSegment+0xfc>
 8002850:	f8db 200c 	ldr.w	r2, [fp, #12]
 8002854:	b10a      	cbz	r2, 800285a <tcpProcessSegment+0x92>
 8002856:	4552      	cmp	r2, sl
 8002858:	d134      	bne.n	80028c4 <tcpProcessSegment+0xfc>
 800285a:	f8bb 2018 	ldrh.w	r2, [fp, #24]
 800285e:	9203      	str	r2, [sp, #12]
 8002860:	b382      	cbz	r2, 80028c4 <tcpProcessSegment+0xfc>
 8002862:	9302      	str	r3, [sp, #8]
 8002864:	8860      	ldrh	r0, [r4, #2]
 8002866:	f7fe f96e 	bl	8000b46 <swapInt16>
 800286a:	9a03      	ldr	r2, [sp, #12]
 800286c:	9b02      	ldr	r3, [sp, #8]
 800286e:	4282      	cmp	r2, r0
 8002870:	d128      	bne.n	80028c4 <tcpProcessSegment+0xfc>
 8002872:	683a      	ldr	r2, [r7, #0]
 8002874:	2a0c      	cmp	r2, #12
 8002876:	d125      	bne.n	80028c4 <tcpProcessSegment+0xfc>
 8002878:	f8db 2010 	ldr.w	r2, [fp, #16]
 800287c:	b132      	cbz	r2, 800288c <tcpProcessSegment+0xc4>
 800287e:	2a04      	cmp	r2, #4
 8002880:	d120      	bne.n	80028c4 <tcpProcessSegment+0xfc>
 8002882:	f8db 1014 	ldr.w	r1, [fp, #20]
 8002886:	68ba      	ldr	r2, [r7, #8]
 8002888:	4291      	cmp	r1, r2
 800288a:	d11b      	bne.n	80028c4 <tcpProcessSegment+0xfc>
 800288c:	f8db 201c 	ldr.w	r2, [fp, #28]
 8002890:	b132      	cbz	r2, 80028a0 <tcpProcessSegment+0xd8>
 8002892:	2a04      	cmp	r2, #4
 8002894:	d116      	bne.n	80028c4 <tcpProcessSegment+0xfc>
 8002896:	f8db 1020 	ldr.w	r1, [fp, #32]
 800289a:	687a      	ldr	r2, [r7, #4]
 800289c:	4291      	cmp	r1, r2
 800289e:	d111      	bne.n	80028c4 <tcpProcessSegment+0xfc>
 80028a0:	f89b 208c 	ldrb.w	r2, [fp, #140]	; 0x8c
 80028a4:	2a01      	cmp	r2, #1
 80028a6:	d102      	bne.n	80028ae <tcpProcessSegment+0xe6>
 80028a8:	2d00      	cmp	r5, #0
 80028aa:	bf08      	it	eq
 80028ac:	465d      	moveq	r5, fp
 80028ae:	f8bb 2024 	ldrh.w	r2, [fp, #36]	; 0x24
 80028b2:	8820      	ldrh	r0, [r4, #0]
 80028b4:	9303      	str	r3, [sp, #12]
 80028b6:	9202      	str	r2, [sp, #8]
 80028b8:	f7fe f945 	bl	8000b46 <swapInt16>
 80028bc:	9a02      	ldr	r2, [sp, #8]
 80028be:	9b03      	ldr	r3, [sp, #12]
 80028c0:	4282      	cmp	r2, r0
 80028c2:	d038      	beq.n	8002936 <tcpProcessSegment+0x16e>
 80028c4:	3301      	adds	r3, #1
 80028c6:	2b0a      	cmp	r3, #10
 80028c8:	f50b 7b1f 	add.w	fp, fp, #636	; 0x27c
 80028cc:	d1bc      	bne.n	8002848 <tcpProcessSegment+0x80>
 80028ce:	7b21      	ldrb	r1, [r4, #12]
 80028d0:	2004      	movs	r0, #4
 80028d2:	0909      	lsrs	r1, r1, #4
 80028d4:	fb10 8801 	smlabb	r8, r0, r1, r8
 80028d8:	fb01 6610 	mls	r6, r1, r0, r6
 80028dc:	bb6d      	cbnz	r5, 800293a <tcpProcessSegment+0x172>
 80028de:	462b      	mov	r3, r5
 80028e0:	462a      	mov	r2, r5
 80028e2:	4631      	mov	r1, r6
 80028e4:	4620      	mov	r0, r4
 80028e6:	f000 ff64 	bl	80037b2 <tcpDumpHeader>
 80028ea:	8820      	ldrh	r0, [r4, #0]
 80028ec:	f7fe f92b 	bl	8000b46 <swapInt16>
 80028f0:	8020      	strh	r0, [r4, #0]
 80028f2:	8860      	ldrh	r0, [r4, #2]
 80028f4:	f7fe f927 	bl	8000b46 <swapInt16>
 80028f8:	8060      	strh	r0, [r4, #2]
 80028fa:	6860      	ldr	r0, [r4, #4]
 80028fc:	f7fe f926 	bl	8000b4c <swapInt32>
 8002900:	6060      	str	r0, [r4, #4]
 8002902:	68a0      	ldr	r0, [r4, #8]
 8002904:	f7fe f922 	bl	8000b4c <swapInt32>
 8002908:	60a0      	str	r0, [r4, #8]
 800290a:	89e0      	ldrh	r0, [r4, #14]
 800290c:	f7fe f91b 	bl	8000b46 <swapInt16>
 8002910:	81e0      	strh	r0, [r4, #14]
 8002912:	8a60      	ldrh	r0, [r4, #18]
 8002914:	f7fe f917 	bl	8000b46 <swapInt16>
 8002918:	8260      	strh	r0, [r4, #18]
 800291a:	b98d      	cbnz	r5, 8002940 <tcpProcessSegment+0x178>
 800291c:	7b63      	ldrb	r3, [r4, #13]
 800291e:	075b      	lsls	r3, r3, #29
 8002920:	f100 8084 	bmi.w	8002a2c <tcpProcessSegment+0x264>
 8002924:	4633      	mov	r3, r6
 8002926:	4622      	mov	r2, r4
 8002928:	4639      	mov	r1, r7
 800292a:	4650      	mov	r0, sl
 800292c:	b005      	add	sp, #20
 800292e:	e8bd 4ff0 	ldmia.w	sp!, {r4, r5, r6, r7, r8, r9, sl, fp, lr}
 8002932:	f000 b881 	b.w	8002a38 <tcpRejectSegment>
 8002936:	465d      	mov	r5, fp
 8002938:	e7c9      	b.n	80028ce <tcpProcessSegment+0x106>
 800293a:	e9d5 3228 	ldrd	r3, r2, [r5, #160]	; 0xa0
 800293e:	e7d0      	b.n	80028e2 <tcpProcessSegment+0x11a>
 8002940:	f895 308c 	ldrb.w	r3, [r5, #140]	; 0x8c
 8002944:	2b0a      	cmp	r3, #10
 8002946:	d86a      	bhi.n	8002a1e <tcpProcessSegment+0x256>
 8002948:	e8df f003 	tbb	[pc, r3]
 800294c:	21190f06 	.word	0x21190f06
 8002950:	453d352b 	.word	0x453d352b
 8002954:	594f      	.short	0x594f
 8002956:	61          	.byte	0x61
 8002957:	00          	.byte	0x00
 8002958:	4633      	mov	r3, r6
 800295a:	4622      	mov	r2, r4
 800295c:	4639      	mov	r1, r7
 800295e:	4650      	mov	r0, sl
 8002960:	b005      	add	sp, #20
 8002962:	e8bd 4ff0 	ldmia.w	sp!, {r4, r5, r6, r7, r8, r9, sl, fp, lr}
 8002966:	f7ff bc3d 	b.w	80021e4 <tcpStateClosed>
 800296a:	4623      	mov	r3, r4
 800296c:	463a      	mov	r2, r7
 800296e:	4651      	mov	r1, sl
 8002970:	4628      	mov	r0, r5
 8002972:	960e      	str	r6, [sp, #56]	; 0x38
 8002974:	b005      	add	sp, #20
 8002976:	e8bd 4ff0 	ldmia.w	sp!, {r4, r5, r6, r7, r8, r9, sl, fp, lr}
 800297a:	f7ff bc3e 	b.w	80021fa <tcpStateListen>
 800297e:	4632      	mov	r2, r6
 8002980:	4621      	mov	r1, r4
 8002982:	4628      	mov	r0, r5
 8002984:	b005      	add	sp, #20
 8002986:	e8bd 4ff0 	ldmia.w	sp!, {r4, r5, r6, r7, r8, r9, sl, fp, lr}
 800298a:	f7ff bcac 	b.w	80022e6 <tcpStateSynSent>
 800298e:	4643      	mov	r3, r8
 8002990:	464a      	mov	r2, r9
 8002992:	4621      	mov	r1, r4
 8002994:	4628      	mov	r0, r5
 8002996:	960e      	str	r6, [sp, #56]	; 0x38
 8002998:	b005      	add	sp, #20
 800299a:	e8bd 4ff0 	ldmia.w	sp!, {r4, r5, r6, r7, r8, r9, sl, fp, lr}
 800299e:	f7ff bd76 	b.w	800248e <tcpStateSynReceived>
 80029a2:	4643      	mov	r3, r8
 80029a4:	464a      	mov	r2, r9
 80029a6:	4621      	mov	r1, r4
 80029a8:	4628      	mov	r0, r5
 80029aa:	960e      	str	r6, [sp, #56]	; 0x38
 80029ac:	b005      	add	sp, #20
 80029ae:	e8bd 4ff0 	ldmia.w	sp!, {r4, r5, r6, r7, r8, r9, sl, fp, lr}
 80029b2:	f7ff bd1a 	b.w	80023ea <tcpStateEstablished>
 80029b6:	4632      	mov	r2, r6
 80029b8:	4621      	mov	r1, r4
 80029ba:	4628      	mov	r0, r5
 80029bc:	b005      	add	sp, #20
 80029be:	e8bd 4ff0 	ldmia.w	sp!, {r4, r5, r6, r7, r8, r9, sl, fp, lr}
 80029c2:	f7ff bda4 	b.w	800250e <tcpStateCloseWait>
 80029c6:	4632      	mov	r2, r6
 80029c8:	4621      	mov	r1, r4
 80029ca:	4628      	mov	r0, r5
 80029cc:	b005      	add	sp, #20
 80029ce:	e8bd 4ff0 	ldmia.w	sp!, {r4, r5, r6, r7, r8, r9, sl, fp, lr}
 80029d2:	f7ff bdc4 	b.w	800255e <tcpStateLastAck>
 80029d6:	4643      	mov	r3, r8
 80029d8:	464a      	mov	r2, r9
 80029da:	4621      	mov	r1, r4
 80029dc:	4628      	mov	r0, r5
 80029de:	960e      	str	r6, [sp, #56]	; 0x38
 80029e0:	b005      	add	sp, #20
 80029e2:	e8bd 4ff0 	ldmia.w	sp!, {r4, r5, r6, r7, r8, r9, sl, fp, lr}
 80029e6:	f7ff bdd9 	b.w	800259c <tcpStateFinWait1>
 80029ea:	4643      	mov	r3, r8
 80029ec:	464a      	mov	r2, r9
 80029ee:	4621      	mov	r1, r4
 80029f0:	4628      	mov	r0, r5
 80029f2:	960e      	str	r6, [sp, #56]	; 0x38
 80029f4:	b005      	add	sp, #20
 80029f6:	e8bd 4ff0 	ldmia.w	sp!, {r4, r5, r6, r7, r8, r9, sl, fp, lr}
 80029fa:	f7ff be34 	b.w	8002666 <tcpStateFinWait2>
 80029fe:	4632      	mov	r2, r6
 8002a00:	4621      	mov	r1, r4
 8002a02:	4628      	mov	r0, r5
 8002a04:	b005      	add	sp, #20
 8002a06:	e8bd 4ff0 	ldmia.w	sp!, {r4, r5, r6, r7, r8, r9, sl, fp, lr}
 8002a0a:	f7ff be79 	b.w	8002700 <tcpStateClosing>
 8002a0e:	4632      	mov	r2, r6
 8002a10:	4621      	mov	r1, r4
 8002a12:	4628      	mov	r0, r5
 8002a14:	b005      	add	sp, #20
 8002a16:	e8bd 4ff0 	ldmia.w	sp!, {r4, r5, r6, r7, r8, r9, sl, fp, lr}
 8002a1a:	f7ff be9e 	b.w	800275a <tcpStateTimeWait>
 8002a1e:	2100      	movs	r1, #0
 8002a20:	4628      	mov	r0, r5
 8002a22:	b005      	add	sp, #20
 8002a24:	e8bd 4ff0 	ldmia.w	sp!, {r4, r5, r6, r7, r8, r9, sl, fp, lr}
 8002a28:	f000 baf1 	b.w	800300e <tcpChangeState>
 8002a2c:	b005      	add	sp, #20
 8002a2e:	e8bd 8ff0 	ldmia.w	sp!, {r4, r5, r6, r7, r8, r9, sl, fp, pc}
 8002a32:	bf00      	nop
 8002a34:	2000907c 	.word	0x2000907c

08002a38 <tcpRejectSegment>:
 8002a38:	e92d 4ff0 	stmdb	sp!, {r4, r5, r6, r7, r8, r9, sl, fp, lr}
 8002a3c:	4692      	mov	sl, r2
 8002a3e:	7b52      	ldrb	r2, [r2, #13]
 8002a40:	4607      	mov	r7, r0
 8002a42:	06d0      	lsls	r0, r2, #27
 8002a44:	b08f      	sub	sp, #60	; 0x3c
 8002a46:	4688      	mov	r8, r1
 8002a48:	f002 053f 	and.w	r5, r2, #63	; 0x3f
 8002a4c:	d55b      	bpl.n	8002b06 <tcpRejectSegment+0xce>
 8002a4e:	f8da 5008 	ldr.w	r5, [sl, #8]
 8002a52:	f04f 0900 	mov.w	r9, #0
 8002a56:	f04f 0b04 	mov.w	fp, #4
 8002a5a:	a903      	add	r1, sp, #12
 8002a5c:	2014      	movs	r0, #20
 8002a5e:	f7fe fc23 	bl	80012a8 <ipAllocBuffer>
 8002a62:	4606      	mov	r6, r0
 8002a64:	2800      	cmp	r0, #0
 8002a66:	d063      	beq.n	8002b30 <tcpRejectSegment+0xf8>
 8002a68:	9903      	ldr	r1, [sp, #12]
 8002a6a:	f7fe fe88 	bl	800177e <netBufferAt>
 8002a6e:	4604      	mov	r4, r0
 8002a70:	f8ba 0002 	ldrh.w	r0, [sl, #2]
 8002a74:	f7fe f867 	bl	8000b46 <swapInt16>
 8002a78:	8020      	strh	r0, [r4, #0]
 8002a7a:	f8ba 0000 	ldrh.w	r0, [sl]
 8002a7e:	f7fe f862 	bl	8000b46 <swapInt16>
 8002a82:	8060      	strh	r0, [r4, #2]
 8002a84:	4628      	mov	r0, r5
 8002a86:	f7fe f861 	bl	8000b4c <swapInt32>
 8002a8a:	6060      	str	r0, [r4, #4]
 8002a8c:	4648      	mov	r0, r9
 8002a8e:	f7fe f85d 	bl	8000b4c <swapInt32>
 8002a92:	f8d8 1000 	ldr.w	r1, [r8]
 8002a96:	60a0      	str	r0, [r4, #8]
 8002a98:	2350      	movs	r3, #80	; 0x50
 8002a9a:	7323      	strb	r3, [r4, #12]
 8002a9c:	290c      	cmp	r1, #12
 8002a9e:	f04f 0300 	mov.w	r3, #0
 8002aa2:	f884 b00d 	strb.w	fp, [r4, #13]
 8002aa6:	73a3      	strb	r3, [r4, #14]
 8002aa8:	73e3      	strb	r3, [r4, #15]
 8002aaa:	7423      	strb	r3, [r4, #16]
 8002aac:	7463      	strb	r3, [r4, #17]
 8002aae:	74a3      	strb	r3, [r4, #18]
 8002ab0:	74e3      	strb	r3, [r4, #19]
 8002ab2:	d138      	bne.n	8002b26 <tcpRejectSegment+0xee>
 8002ab4:	f8d8 3008 	ldr.w	r3, [r8, #8]
 8002ab8:	9305      	str	r3, [sp, #20]
 8002aba:	f8d8 3004 	ldr.w	r3, [r8, #4]
 8002abe:	9306      	str	r3, [sp, #24]
 8002ac0:	4b1c      	ldr	r3, [pc, #112]	; (8002b34 <tcpRejectSegment+0xfc>)
 8002ac2:	9307      	str	r3, [sp, #28]
 8002ac4:	2314      	movs	r3, #20
 8002ac6:	9300      	str	r3, [sp, #0]
 8002ac8:	4632      	mov	r2, r6
 8002aca:	9b03      	ldr	r3, [sp, #12]
 8002acc:	9104      	str	r1, [sp, #16]
 8002ace:	a805      	add	r0, sp, #20
 8002ad0:	f7fe fbd5 	bl	800127e <ipCalcUpperLayerChecksumEx>
 8002ad4:	4d18      	ldr	r5, [pc, #96]	; (8002b38 <tcpRejectSegment+0x100>)
 8002ad6:	8220      	strh	r0, [r4, #16]
 8002ad8:	cd0f      	ldmia	r5!, {r0, r1, r2, r3}
 8002ada:	ac08      	add	r4, sp, #32
 8002adc:	c40f      	stmia	r4!, {r0, r1, r2, r3}
 8002ade:	e895 0003 	ldmia.w	r5, {r0, r1}
 8002ae2:	ab08      	add	r3, sp, #32
 8002ae4:	e884 0003 	stmia.w	r4, {r0, r1}
 8002ae8:	4632      	mov	r2, r6
 8002aea:	9300      	str	r3, [sp, #0]
 8002aec:	a904      	add	r1, sp, #16
 8002aee:	9b03      	ldr	r3, [sp, #12]
 8002af0:	4638      	mov	r0, r7
 8002af2:	f7fe fb37 	bl	8001164 <ipSendDatagram>
 8002af6:	4604      	mov	r4, r0
 8002af8:	4630      	mov	r0, r6
 8002afa:	f7fe fe16 	bl	800172a <netBufferFree>
 8002afe:	4620      	mov	r0, r4
 8002b00:	b00f      	add	sp, #60	; 0x3c
 8002b02:	e8bd 8ff0 	ldmia.w	sp!, {r4, r5, r6, r7, r8, r9, sl, fp, pc}
 8002b06:	f8da 9004 	ldr.w	r9, [sl, #4]
 8002b0a:	07a9      	lsls	r1, r5, #30
 8002b0c:	4499      	add	r9, r3
 8002b0e:	bf48      	it	mi
 8002b10:	f109 0901 	addmi.w	r9, r9, #1
 8002b14:	f015 0501 	ands.w	r5, r5, #1
 8002b18:	bf1c      	itt	ne
 8002b1a:	f109 0901 	addne.w	r9, r9, #1
 8002b1e:	2500      	movne	r5, #0
 8002b20:	f04f 0b14 	mov.w	fp, #20
 8002b24:	e799      	b.n	8002a5a <tcpRejectSegment+0x22>
 8002b26:	4630      	mov	r0, r6
 8002b28:	f7fe fdff 	bl	800172a <netBufferFree>
 8002b2c:	24e4      	movs	r4, #228	; 0xe4
 8002b2e:	e7e6      	b.n	8002afe <tcpRejectSegment+0xc6>
 8002b30:	2464      	movs	r4, #100	; 0x64
 8002b32:	e7e4      	b.n	8002afe <tcpRejectSegment+0xc6>
 8002b34:	14000600 	.word	0x14000600
 8002b38:	0800a9e4 	.word	0x0800a9e4

08002b3c <tcpAddOption>:
 8002b3c:	b5f8      	push	{r3, r4, r5, r6, r7, lr}
 8002b3e:	7b04      	ldrb	r4, [r0, #12]
 8002b40:	0924      	lsrs	r4, r4, #4
 8002b42:	3302      	adds	r3, #2
 8002b44:	00a4      	lsls	r4, r4, #2
 8002b46:	b2dd      	uxtb	r5, r3
 8002b48:	fa54 f383 	uxtab	r3, r4, r3
 8002b4c:	2b3c      	cmp	r3, #60	; 0x3c
 8002b4e:	460f      	mov	r7, r1
 8002b50:	4606      	mov	r6, r0
 8002b52:	4611      	mov	r1, r2
 8002b54:	dc22      	bgt.n	8002b9c <tcpAddOption+0x60>
 8002b56:	f015 0003 	ands.w	r0, r5, #3
 8002b5a:	bf18      	it	ne
 8002b5c:	f1c0 0004 	rsbne	r0, r0, #4
 8002b60:	1933      	adds	r3, r6, r4
 8002b62:	f1a4 0214 	sub.w	r2, r4, #20
 8002b66:	f04f 0c01 	mov.w	ip, #1
 8002b6a:	181c      	adds	r4, r3, r0
 8002b6c:	429c      	cmp	r4, r3
 8002b6e:	d112      	bne.n	8002b96 <tcpAddOption+0x5a>
 8002b70:	1884      	adds	r4, r0, r2
 8002b72:	f106 0314 	add.w	r3, r6, #20
 8002b76:	1918      	adds	r0, r3, r4
 8002b78:	551f      	strb	r7, [r3, r4]
 8002b7a:	1eaa      	subs	r2, r5, #2
 8002b7c:	7045      	strb	r5, [r0, #1]
 8002b7e:	3002      	adds	r0, #2
 8002b80:	3514      	adds	r5, #20
 8002b82:	f006 fccc 	bl	800951e <memcpy>
 8002b86:	4425      	add	r5, r4
 8002b88:	7b33      	ldrb	r3, [r6, #12]
 8002b8a:	08ad      	lsrs	r5, r5, #2
 8002b8c:	f365 1307 	bfi	r3, r5, #4, #4
 8002b90:	7333      	strb	r3, [r6, #12]
 8002b92:	2000      	movs	r0, #0
 8002b94:	bdf8      	pop	{r3, r4, r5, r6, r7, pc}
 8002b96:	f803 cb01 	strb.w	ip, [r3], #1
 8002b9a:	e7e7      	b.n	8002b6c <tcpAddOption+0x30>
 8002b9c:	2001      	movs	r0, #1
 8002b9e:	e7f9      	b.n	8002b94 <tcpAddOption+0x58>

08002ba0 <tcpGetOption>:
 8002ba0:	7b03      	ldrb	r3, [r0, #12]
 8002ba2:	2b4f      	cmp	r3, #79	; 0x4f
 8002ba4:	b570      	push	{r4, r5, r6, lr}
 8002ba6:	ea4f 1213 	mov.w	r2, r3, lsr #4
 8002baa:	d908      	bls.n	8002bbe <tcpGetOption+0x1e>
 8002bac:	f06f 0513 	mvn.w	r5, #19
 8002bb0:	eb05 0582 	add.w	r5, r5, r2, lsl #2
 8002bb4:	2400      	movs	r4, #0
 8002bb6:	f100 0314 	add.w	r3, r0, #20
 8002bba:	42ac      	cmp	r4, r5
 8002bbc:	d301      	bcc.n	8002bc2 <tcpGetOption+0x22>
 8002bbe:	2000      	movs	r0, #0
 8002bc0:	bd70      	pop	{r4, r5, r6, pc}
 8002bc2:	5d1e      	ldrb	r6, [r3, r4]
 8002bc4:	1918      	adds	r0, r3, r4
 8002bc6:	2e00      	cmp	r6, #0
 8002bc8:	d0f9      	beq.n	8002bbe <tcpGetOption+0x1e>
 8002bca:	2e01      	cmp	r6, #1
 8002bcc:	f104 0201 	add.w	r2, r4, #1
 8002bd0:	d009      	beq.n	8002be6 <tcpGetOption+0x46>
 8002bd2:	4295      	cmp	r5, r2
 8002bd4:	d9f3      	bls.n	8002bbe <tcpGetOption+0x1e>
 8002bd6:	7842      	ldrb	r2, [r0, #1]
 8002bd8:	2a01      	cmp	r2, #1
 8002bda:	d9f0      	bls.n	8002bbe <tcpGetOption+0x1e>
 8002bdc:	4422      	add	r2, r4
 8002bde:	42aa      	cmp	r2, r5
 8002be0:	d8ed      	bhi.n	8002bbe <tcpGetOption+0x1e>
 8002be2:	428e      	cmp	r6, r1
 8002be4:	d0ec      	beq.n	8002bc0 <tcpGetOption+0x20>
 8002be6:	4614      	mov	r4, r2
 8002be8:	e7e7      	b.n	8002bba <tcpGetOption+0x1a>

08002bea <tcpIsDuplicateSyn>:
 8002bea:	b530      	push	{r4, r5, lr}
 8002bec:	f8d0 3210 	ldr.w	r3, [r0, #528]	; 0x210
 8002bf0:	2000      	movs	r0, #0
 8002bf2:	b903      	cbnz	r3, 8002bf6 <tcpIsDuplicateSyn+0xc>
 8002bf4:	bd30      	pop	{r4, r5, pc}
 8002bf6:	689c      	ldr	r4, [r3, #8]
 8002bf8:	2c04      	cmp	r4, #4
 8002bfa:	d112      	bne.n	8002c22 <tcpIsDuplicateSyn+0x38>
 8002bfc:	695c      	ldr	r4, [r3, #20]
 8002bfe:	2c04      	cmp	r4, #4
 8002c00:	d10f      	bne.n	8002c22 <tcpIsDuplicateSyn+0x38>
 8002c02:	680c      	ldr	r4, [r1, #0]
 8002c04:	2c0c      	cmp	r4, #12
 8002c06:	d10c      	bne.n	8002c22 <tcpIsDuplicateSyn+0x38>
 8002c08:	68dd      	ldr	r5, [r3, #12]
 8002c0a:	684c      	ldr	r4, [r1, #4]
 8002c0c:	42a5      	cmp	r5, r4
 8002c0e:	d108      	bne.n	8002c22 <tcpIsDuplicateSyn+0x38>
 8002c10:	699d      	ldr	r5, [r3, #24]
 8002c12:	688c      	ldr	r4, [r1, #8]
 8002c14:	42a5      	cmp	r5, r4
 8002c16:	d104      	bne.n	8002c22 <tcpIsDuplicateSyn+0x38>
 8002c18:	8a1d      	ldrh	r5, [r3, #16]
 8002c1a:	8814      	ldrh	r4, [r2, #0]
 8002c1c:	42a5      	cmp	r5, r4
 8002c1e:	bf08      	it	eq
 8002c20:	2001      	moveq	r0, #1
 8002c22:	681b      	ldr	r3, [r3, #0]
 8002c24:	e7e5      	b.n	8002bf2 <tcpIsDuplicateSyn+0x8>

08002c26 <tcpIsDuplicateAck>:
 8002c26:	b510      	push	{r4, lr}
 8002c28:	4604      	mov	r4, r0
 8002c2a:	f8d0 01fc 	ldr.w	r0, [r0, #508]	; 0x1fc
 8002c2e:	b178      	cbz	r0, 8002c50 <tcpIsDuplicateAck+0x2a>
 8002c30:	b97a      	cbnz	r2, 8002c52 <tcpIsDuplicateAck+0x2c>
 8002c32:	7b4b      	ldrb	r3, [r1, #13]
 8002c34:	f013 0303 	ands.w	r3, r3, #3
 8002c38:	d10b      	bne.n	8002c52 <tcpIsDuplicateAck+0x2c>
 8002c3a:	6888      	ldr	r0, [r1, #8]
 8002c3c:	f8d4 20a8 	ldr.w	r2, [r4, #168]	; 0xa8
 8002c40:	4290      	cmp	r0, r2
 8002c42:	d108      	bne.n	8002c56 <tcpIsDuplicateAck+0x30>
 8002c44:	f8b4 00b2 	ldrh.w	r0, [r4, #178]	; 0xb2
 8002c48:	89ca      	ldrh	r2, [r1, #14]
 8002c4a:	1a13      	subs	r3, r2, r0
 8002c4c:	4258      	negs	r0, r3
 8002c4e:	4158      	adcs	r0, r3
 8002c50:	bd10      	pop	{r4, pc}
 8002c52:	2000      	movs	r0, #0
 8002c54:	e7fc      	b.n	8002c50 <tcpIsDuplicateAck+0x2a>
 8002c56:	4618      	mov	r0, r3
 8002c58:	e7fa      	b.n	8002c50 <tcpIsDuplicateAck+0x2a>

08002c5a <tcpUpdateRetransmitQueue>:
 8002c5a:	e92d 47f0 	stmdb	sp!, {r4, r5, r6, r7, r8, r9, sl, lr}
 8002c5e:	2700      	movs	r7, #0
 8002c60:	f8d0 51fc 	ldr.w	r5, [r0, #508]	; 0x1fc
 8002c64:	4604      	mov	r4, r0
 8002c66:	f500 7800 	add.w	r8, r0, #512	; 0x200
 8002c6a:	46b9      	mov	r9, r7
 8002c6c:	b945      	cbnz	r5, 8002c80 <tcpUpdateRetransmitQueue+0x26>
 8002c6e:	f8d4 31fc 	ldr.w	r3, [r4, #508]	; 0x1fc
 8002c72:	bbb3      	cbnz	r3, 8002ce2 <tcpUpdateRetransmitQueue+0x88>
 8002c74:	f504 7000 	add.w	r0, r4, #512	; 0x200
 8002c78:	e8bd 47f0 	ldmia.w	sp!, {r4, r5, r6, r7, r8, r9, sl, lr}
 8002c7c:	f7fe bfa8 	b.w	8001bd0 <netStopTimer>
 8002c80:	f895 3029 	ldrb.w	r3, [r5, #41]	; 0x29
 8002c84:	0799      	lsls	r1, r3, #30
 8002c86:	f003 023f 	and.w	r2, r3, #63	; 0x3f
 8002c8a:	d422      	bmi.n	8002cd2 <tcpUpdateRetransmitQueue+0x78>
 8002c8c:	07d3      	lsls	r3, r2, #31
 8002c8e:	686e      	ldr	r6, [r5, #4]
 8002c90:	d500      	bpl.n	8002c94 <tcpUpdateRetransmitQueue+0x3a>
 8002c92:	3601      	adds	r6, #1
 8002c94:	6a28      	ldr	r0, [r5, #32]
 8002c96:	f8d4 a0a8 	ldr.w	sl, [r4, #168]	; 0xa8
 8002c9a:	f7fd ff57 	bl	8000b4c <swapInt32>
 8002c9e:	4430      	add	r0, r6
 8002ca0:	ebaa 0a00 	sub.w	sl, sl, r0
 8002ca4:	f1ba 0f00 	cmp.w	sl, #0
 8002ca8:	682e      	ldr	r6, [r5, #0]
 8002caa:	db0f      	blt.n	8002ccc <tcpUpdateRetransmitQueue+0x72>
 8002cac:	b99f      	cbnz	r7, 8002cd6 <tcpUpdateRetransmitQueue+0x7c>
 8002cae:	f8c4 61fc 	str.w	r6, [r4, #508]	; 0x1fc
 8002cb2:	4628      	mov	r0, r5
 8002cb4:	f7fe fcd0 	bl	8001658 <memPoolFree>
 8002cb8:	f8d4 61fc 	ldr.w	r6, [r4, #508]	; 0x1fc
 8002cbc:	f8d4 10dc 	ldr.w	r1, [r4, #220]	; 0xdc
 8002cc0:	4640      	mov	r0, r8
 8002cc2:	f7fe ff7b 	bl	8001bbc <netStartTimer>
 8002cc6:	463d      	mov	r5, r7
 8002cc8:	f8c4 920c 	str.w	r9, [r4, #524]	; 0x20c
 8002ccc:	462f      	mov	r7, r5
 8002cce:	4635      	mov	r5, r6
 8002cd0:	e7cc      	b.n	8002c6c <tcpUpdateRetransmitQueue+0x12>
 8002cd2:	2601      	movs	r6, #1
 8002cd4:	e7de      	b.n	8002c94 <tcpUpdateRetransmitQueue+0x3a>
 8002cd6:	603e      	str	r6, [r7, #0]
 8002cd8:	4628      	mov	r0, r5
 8002cda:	f7fe fcbd 	bl	8001658 <memPoolFree>
 8002cde:	683e      	ldr	r6, [r7, #0]
 8002ce0:	e7ec      	b.n	8002cbc <tcpUpdateRetransmitQueue+0x62>
 8002ce2:	e8bd 87f0 	ldmia.w	sp!, {r4, r5, r6, r7, r8, r9, sl, pc}

08002ce6 <tcpFlushRetransmitQueue>:
 8002ce6:	b538      	push	{r3, r4, r5, lr}
 8002ce8:	4604      	mov	r4, r0
 8002cea:	f8d0 01fc 	ldr.w	r0, [r0, #508]	; 0x1fc
 8002cee:	b938      	cbnz	r0, 8002d00 <tcpFlushRetransmitQueue+0x1a>
 8002cf0:	f8c4 01fc 	str.w	r0, [r4, #508]	; 0x1fc
 8002cf4:	f504 7000 	add.w	r0, r4, #512	; 0x200
 8002cf8:	e8bd 4038 	ldmia.w	sp!, {r3, r4, r5, lr}
 8002cfc:	f7fe bf68 	b.w	8001bd0 <netStopTimer>
 8002d00:	6805      	ldr	r5, [r0, #0]
 8002d02:	f7fe fca9 	bl	8001658 <memPoolFree>
 8002d06:	4628      	mov	r0, r5
 8002d08:	e7f1      	b.n	8002cee <tcpFlushRetransmitQueue+0x8>

08002d0a <tcpFlushSynQueue>:
 8002d0a:	b538      	push	{r3, r4, r5, lr}
 8002d0c:	4604      	mov	r4, r0
 8002d0e:	f8d0 0210 	ldr.w	r0, [r0, #528]	; 0x210
 8002d12:	b910      	cbnz	r0, 8002d1a <tcpFlushSynQueue+0x10>
 8002d14:	f8c4 0210 	str.w	r0, [r4, #528]	; 0x210
 8002d18:	bd38      	pop	{r3, r4, r5, pc}
 8002d1a:	6805      	ldr	r5, [r0, #0]
 8002d1c:	f7fe fc9c 	bl	8001658 <memPoolFree>
 8002d20:	4628      	mov	r0, r5
 8002d22:	e7f6      	b.n	8002d12 <tcpFlushSynQueue+0x8>

08002d24 <tcpDeleteControlBlock>:
 8002d24:	b510      	push	{r4, lr}
 8002d26:	4604      	mov	r4, r0
 8002d28:	f7ff ffdd 	bl	8002ce6 <tcpFlushRetransmitQueue>
 8002d2c:	4620      	mov	r0, r4
 8002d2e:	f7ff ffec 	bl	8002d0a <tcpFlushSynQueue>
 8002d32:	2100      	movs	r1, #0
 8002d34:	f104 00f4 	add.w	r0, r4, #244	; 0xf4
 8002d38:	f7fe fc9e 	bl	8001678 <netBufferSetLength>
 8002d3c:	f504 70bc 	add.w	r0, r4, #376	; 0x178
 8002d40:	2100      	movs	r1, #0
 8002d42:	e8bd 4010 	ldmia.w	sp!, {r4, lr}
 8002d46:	f7fe bc97 	b.w	8001678 <netBufferSetLength>

08002d4a <tcpUpdateSackBlocks>:
 8002d4a:	e92d 43f8 	stmdb	sp!, {r3, r4, r5, r6, r7, r8, r9, lr}
 8002d4e:	4604      	mov	r4, r0
 8002d50:	4688      	mov	r8, r1
 8002d52:	4616      	mov	r6, r2
 8002d54:	2500      	movs	r5, #0
 8002d56:	f500 7915 	add.w	r9, r0, #596	; 0x254
 8002d5a:	f8d4 7274 	ldr.w	r7, [r4, #628]	; 0x274
 8002d5e:	f8d8 3000 	ldr.w	r3, [r8]
 8002d62:	42af      	cmp	r7, r5
 8002d64:	d819      	bhi.n	8002d9a <tcpUpdateSackBlocks+0x50>
 8002d66:	f8d4 20c0 	ldr.w	r2, [r4, #192]	; 0xc0
 8002d6a:	1a9b      	subs	r3, r3, r2
 8002d6c:	2b00      	cmp	r3, #0
 8002d6e:	dd12      	ble.n	8002d96 <tcpUpdateSackBlocks+0x4c>
 8002d70:	2218      	movs	r2, #24
 8002d72:	f504 7115 	add.w	r1, r4, #596	; 0x254
 8002d76:	f504 7017 	add.w	r0, r4, #604	; 0x25c
 8002d7a:	f006 fbde 	bl	800953a <memmove>
 8002d7e:	f8d8 3000 	ldr.w	r3, [r8]
 8002d82:	f8c4 3254 	str.w	r3, [r4, #596]	; 0x254
 8002d86:	2f03      	cmp	r7, #3
 8002d88:	6833      	ldr	r3, [r6, #0]
 8002d8a:	f8c4 3258 	str.w	r3, [r4, #600]	; 0x258
 8002d8e:	bf9c      	itt	ls
 8002d90:	3701      	addls	r7, #1
 8002d92:	f8c4 7274 	strls.w	r7, [r4, #628]	; 0x274
 8002d96:	e8bd 83f8 	ldmia.w	sp!, {r3, r4, r5, r6, r7, r8, r9, pc}
 8002d9a:	eb04 02c5 	add.w	r2, r4, r5, lsl #3
 8002d9e:	6831      	ldr	r1, [r6, #0]
 8002da0:	f8d2 c254 	ldr.w	ip, [r2, #596]	; 0x254
 8002da4:	eba1 010c 	sub.w	r1, r1, ip
 8002da8:	2900      	cmp	r1, #0
 8002daa:	ea4f 00c5 	mov.w	r0, r5, lsl #3
 8002dae:	f105 0701 	add.w	r7, r5, #1
 8002db2:	db20      	blt.n	8002df6 <tcpUpdateSackBlocks+0xac>
 8002db4:	f8d2 1258 	ldr.w	r1, [r2, #600]	; 0x258
 8002db8:	1a59      	subs	r1, r3, r1
 8002dba:	2900      	cmp	r1, #0
 8002dbc:	dc1b      	bgt.n	8002df6 <tcpUpdateSackBlocks+0xac>
 8002dbe:	459c      	cmp	ip, r3
 8002dc0:	bf94      	ite	ls
 8002dc2:	f8c8 c000 	strls.w	ip, [r8]
 8002dc6:	f8c8 3000 	strhi.w	r3, [r8]
 8002dca:	6833      	ldr	r3, [r6, #0]
 8002dcc:	f8d2 2258 	ldr.w	r2, [r2, #600]	; 0x258
 8002dd0:	4293      	cmp	r3, r2
 8002dd2:	bf2c      	ite	cs
 8002dd4:	6033      	strcs	r3, [r6, #0]
 8002dd6:	6032      	strcc	r2, [r6, #0]
 8002dd8:	f100 0108 	add.w	r1, r0, #8
 8002ddc:	f1c5 0203 	rsb	r2, r5, #3
 8002de0:	00d2      	lsls	r2, r2, #3
 8002de2:	4449      	add	r1, r9
 8002de4:	4448      	add	r0, r9
 8002de6:	f006 fba8 	bl	800953a <memmove>
 8002dea:	f8d4 3274 	ldr.w	r3, [r4, #628]	; 0x274
 8002dee:	3b01      	subs	r3, #1
 8002df0:	f8c4 3274 	str.w	r3, [r4, #628]	; 0x274
 8002df4:	462f      	mov	r7, r5
 8002df6:	463d      	mov	r5, r7
 8002df8:	e7af      	b.n	8002d5a <tcpUpdateSackBlocks+0x10>

08002dfa <tcpUpdateSendWindow>:
 8002dfa:	b538      	push	{r3, r4, r5, lr}
 8002dfc:	f8d0 20b8 	ldr.w	r2, [r0, #184]	; 0xb8
 8002e00:	684b      	ldr	r3, [r1, #4]
 8002e02:	4293      	cmp	r3, r2
 8002e04:	4604      	mov	r4, r0
 8002e06:	460d      	mov	r5, r1
 8002e08:	d114      	bne.n	8002e34 <tcpUpdateSendWindow+0x3a>
 8002e0a:	688a      	ldr	r2, [r1, #8]
 8002e0c:	f8d0 30bc 	ldr.w	r3, [r0, #188]	; 0xbc
 8002e10:	429a      	cmp	r2, r3
 8002e12:	d112      	bne.n	8002e3a <tcpUpdateSendWindow+0x40>
 8002e14:	89cb      	ldrh	r3, [r1, #14]
 8002e16:	f8b0 10b2 	ldrh.w	r1, [r0, #178]	; 0xb2
 8002e1a:	b29a      	uxth	r2, r3
 8002e1c:	4291      	cmp	r1, r2
 8002e1e:	d208      	bcs.n	8002e32 <tcpUpdateSendWindow+0x38>
 8002e20:	f8a0 30b2 	strh.w	r3, [r0, #178]	; 0xb2
 8002e24:	f8b0 30b4 	ldrh.w	r3, [r0, #180]	; 0xb4
 8002e28:	4293      	cmp	r3, r2
 8002e2a:	bf38      	it	cc
 8002e2c:	4613      	movcc	r3, r2
 8002e2e:	f8a4 30b4 	strh.w	r3, [r4, #180]	; 0xb4
 8002e32:	bd38      	pop	{r3, r4, r5, pc}
 8002e34:	1a9b      	subs	r3, r3, r2
 8002e36:	2b00      	cmp	r3, #0
 8002e38:	dbfb      	blt.n	8002e32 <tcpUpdateSendWindow+0x38>
 8002e3a:	68ab      	ldr	r3, [r5, #8]
 8002e3c:	f8d4 20bc 	ldr.w	r2, [r4, #188]	; 0xbc
 8002e40:	1a9b      	subs	r3, r3, r2
 8002e42:	2b00      	cmp	r3, #0
 8002e44:	dbf5      	blt.n	8002e32 <tcpUpdateSendWindow+0x38>
 8002e46:	89eb      	ldrh	r3, [r5, #14]
 8002e48:	b963      	cbnz	r3, 8002e64 <tcpUpdateSendWindow+0x6a>
 8002e4a:	f8b4 20b2 	ldrh.w	r2, [r4, #178]	; 0xb2
 8002e4e:	b14a      	cbz	r2, 8002e64 <tcpUpdateSendWindow+0x6a>
 8002e50:	f44f 717a 	mov.w	r1, #1000	; 0x3e8
 8002e54:	f8c4 3218 	str.w	r3, [r4, #536]	; 0x218
 8002e58:	f8c4 121c 	str.w	r1, [r4, #540]	; 0x21c
 8002e5c:	f504 7008 	add.w	r0, r4, #544	; 0x220
 8002e60:	f7fe feac 	bl	8001bbc <netStartTimer>
 8002e64:	89ea      	ldrh	r2, [r5, #14]
 8002e66:	f8a4 20b2 	strh.w	r2, [r4, #178]	; 0xb2
 8002e6a:	686b      	ldr	r3, [r5, #4]
 8002e6c:	f8c4 30b8 	str.w	r3, [r4, #184]	; 0xb8
 8002e70:	68ab      	ldr	r3, [r5, #8]
 8002e72:	f8c4 30bc 	str.w	r3, [r4, #188]	; 0xbc
 8002e76:	f8b4 30b4 	ldrh.w	r3, [r4, #180]	; 0xb4
 8002e7a:	b291      	uxth	r1, r2
 8002e7c:	428b      	cmp	r3, r1
 8002e7e:	bf38      	it	cc
 8002e80:	460b      	movcc	r3, r1
 8002e82:	e7d4      	b.n	8002e2e <tcpUpdateSendWindow+0x34>

08002e84 <tcpComputeRto>:
 8002e84:	b538      	push	{r3, r4, r5, lr}
 8002e86:	4604      	mov	r4, r0
 8002e88:	f8d0 00c8 	ldr.w	r0, [r0, #200]	; 0xc8
 8002e8c:	b348      	cbz	r0, 8002ee2 <tcpComputeRto+0x5e>
 8002e8e:	f8d4 30a8 	ldr.w	r3, [r4, #168]	; 0xa8
 8002e92:	f8d4 20cc 	ldr.w	r2, [r4, #204]	; 0xcc
 8002e96:	1a9b      	subs	r3, r3, r2
 8002e98:	2b00      	cmp	r3, #0
 8002e9a:	dd35      	ble.n	8002f08 <tcpComputeRto+0x84>
 8002e9c:	f7fd ff05 	bl	8000caa <osGetSystemTime>
 8002ea0:	e9d4 3235 	ldrd	r3, r2, [r4, #212]	; 0xd4
 8002ea4:	f8d4 50d0 	ldr.w	r5, [r4, #208]	; 0xd0
 8002ea8:	1b41      	subs	r1, r0, r5
 8002eaa:	b9db      	cbnz	r3, 8002ee4 <tcpComputeRto+0x60>
 8002eac:	b9d2      	cbnz	r2, 8002ee4 <tcpComputeRto+0x60>
 8002eae:	f8c4 10d4 	str.w	r1, [r4, #212]	; 0xd4
 8002eb2:	0849      	lsrs	r1, r1, #1
 8002eb4:	f8c4 10d8 	str.w	r1, [r4, #216]	; 0xd8
 8002eb8:	e9d4 3235 	ldrd	r3, r2, [r4, #212]	; 0xd4
 8002ebc:	eb03 0382 	add.w	r3, r3, r2, lsl #2
 8002ec0:	f5b3 7f7a 	cmp.w	r3, #1000	; 0x3e8
 8002ec4:	bf38      	it	cc
 8002ec6:	f44f 737a 	movcc.w	r3, #1000	; 0x3e8
 8002eca:	f64e 2260 	movw	r2, #60000	; 0xea60
 8002ece:	4293      	cmp	r3, r2
 8002ed0:	bf94      	ite	ls
 8002ed2:	f8c4 30dc 	strls.w	r3, [r4, #220]	; 0xdc
 8002ed6:	f8c4 20dc 	strhi.w	r2, [r4, #220]	; 0xdc
 8002eda:	2300      	movs	r3, #0
 8002edc:	f8c4 30c8 	str.w	r3, [r4, #200]	; 0xc8
 8002ee0:	2001      	movs	r0, #1
 8002ee2:	bd38      	pop	{r3, r4, r5, pc}
 8002ee4:	428b      	cmp	r3, r1
 8002ee6:	bf2a      	itet	cs
 8002ee8:	18ed      	addcs	r5, r5, r3
 8002eea:	1ac8      	subcc	r0, r1, r3
 8002eec:	1a28      	subcs	r0, r5, r0
 8002eee:	eb02 0242 	add.w	r2, r2, r2, lsl #1
 8002ef2:	ebc3 03c3 	rsb	r3, r3, r3, lsl #3
 8002ef6:	4402      	add	r2, r0
 8002ef8:	440b      	add	r3, r1
 8002efa:	0892      	lsrs	r2, r2, #2
 8002efc:	08db      	lsrs	r3, r3, #3
 8002efe:	f8c4 20d8 	str.w	r2, [r4, #216]	; 0xd8
 8002f02:	f8c4 30d4 	str.w	r3, [r4, #212]	; 0xd4
 8002f06:	e7d7      	b.n	8002eb8 <tcpComputeRto+0x34>
 8002f08:	2000      	movs	r0, #0
 8002f0a:	e7ea      	b.n	8002ee2 <tcpComputeRto+0x5e>

08002f0c <tcpUpdateEvents>:
 8002f0c:	b5f8      	push	{r3, r4, r5, r6, r7, lr}
 8002f0e:	f890 208c 	ldrb.w	r2, [r0, #140]	; 0x8c
 8002f12:	2300      	movs	r3, #0
 8002f14:	4604      	mov	r4, r0
 8002f16:	f8c0 3084 	str.w	r3, [r0, #132]	; 0x84
 8002f1a:	2a0a      	cmp	r2, #10
 8002f1c:	d80a      	bhi.n	8002f34 <tcpUpdateEvents+0x28>
 8002f1e:	e8df f002 	tbb	[pc, r2]
 8002f22:	0936      	.short	0x0936
 8002f24:	33060909 	.word	0x33060909
 8002f28:	33310633 	.word	0x33310633
 8002f2c:	36          	.byte	0x36
 8002f2d:	00          	.byte	0x00
 8002f2e:	2302      	movs	r3, #2
 8002f30:	f8c4 3084 	str.w	r3, [r4, #132]	; 0x84
 8002f34:	1e93      	subs	r3, r2, #2
 8002f36:	2b01      	cmp	r3, #1
 8002f38:	f8d4 3084 	ldr.w	r3, [r4, #132]	; 0x84
 8002f3c:	d82a      	bhi.n	8002f94 <tcpUpdateEvents+0x88>
 8002f3e:	f043 0330 	orr.w	r3, r3, #48	; 0x30
 8002f42:	f8c4 3084 	str.w	r3, [r4, #132]	; 0x84
 8002f46:	68e2      	ldr	r2, [r4, #12]
 8002f48:	b14a      	cbz	r2, 8002f5e <tcpUpdateEvents+0x52>
 8002f4a:	f8d2 20a8 	ldr.w	r2, [r2, #168]	; 0xa8
 8002f4e:	f8d4 3084 	ldr.w	r3, [r4, #132]	; 0x84
 8002f52:	2a00      	cmp	r2, #0
 8002f54:	d050      	beq.n	8002ff8 <tcpUpdateEvents+0xec>
 8002f56:	f443 7300 	orr.w	r3, r3, #512	; 0x200
 8002f5a:	f8c4 3084 	str.w	r3, [r4, #132]	; 0x84
 8002f5e:	e9d4 2320 	ldrd	r2, r3, [r4, #128]	; 0x80
 8002f62:	4013      	ands	r3, r2
 8002f64:	f8c4 3084 	str.w	r3, [r4, #132]	; 0x84
 8002f68:	2b00      	cmp	r3, #0
 8002f6a:	d04f      	beq.n	800300c <tcpUpdateEvents+0x100>
 8002f6c:	f104 0034 	add.w	r0, r4, #52	; 0x34
 8002f70:	f7fd fe71 	bl	8000c56 <osSetEvent>
 8002f74:	f8d4 0088 	ldr.w	r0, [r4, #136]	; 0x88
 8002f78:	2800      	cmp	r0, #0
 8002f7a:	d047      	beq.n	800300c <tcpUpdateEvents+0x100>
 8002f7c:	e8bd 40f8 	ldmia.w	sp!, {r3, r4, r5, r6, r7, lr}
 8002f80:	f7fd be69 	b.w	8000c56 <osSetEvent>
 8002f84:	2342      	movs	r3, #66	; 0x42
 8002f86:	e7d3      	b.n	8002f30 <tcpUpdateEvents+0x24>
 8002f88:	f44f 7381 	mov.w	r3, #258	; 0x102
 8002f8c:	e7d0      	b.n	8002f30 <tcpUpdateEvents+0x24>
 8002f8e:	f44f 73a2 	mov.w	r3, #324	; 0x144
 8002f92:	e7cd      	b.n	8002f30 <tcpUpdateEvents+0x24>
 8002f94:	1f11      	subs	r1, r2, #4
 8002f96:	2901      	cmp	r1, #1
 8002f98:	d81c      	bhi.n	8002fd4 <tcpUpdateEvents+0xc8>
 8002f9a:	e9d4 152a 	ldrd	r1, r5, [r4, #168]	; 0xa8
 8002f9e:	f8b4 60b0 	ldrh.w	r6, [r4, #176]	; 0xb0
 8002fa2:	f8d4 7174 	ldr.w	r7, [r4, #372]	; 0x174
 8002fa6:	1a70      	subs	r0, r6, r1
 8002fa8:	4428      	add	r0, r5
 8002faa:	42b8      	cmp	r0, r7
 8002fac:	bf3c      	itt	cc
 8002fae:	f043 0308 	orrcc.w	r3, r3, #8
 8002fb2:	f8c4 3084 	strcc.w	r3, [r4, #132]	; 0x84
 8002fb6:	b956      	cbnz	r6, 8002fce <tcpUpdateEvents+0xc2>
 8002fb8:	f8d4 3084 	ldr.w	r3, [r4, #132]	; 0x84
 8002fbc:	1b49      	subs	r1, r1, r5
 8002fbe:	2900      	cmp	r1, #0
 8002fc0:	bfb4      	ite	lt
 8002fc2:	f043 0310 	orrlt.w	r3, r3, #16
 8002fc6:	f043 0330 	orrge.w	r3, r3, #48	; 0x30
 8002fca:	f8c4 3084 	str.w	r3, [r4, #132]	; 0x84
 8002fce:	2a04      	cmp	r2, #4
 8002fd0:	d009      	beq.n	8002fe6 <tcpUpdateEvents+0xda>
 8002fd2:	e00c      	b.n	8002fee <tcpUpdateEvents+0xe2>
 8002fd4:	2a01      	cmp	r2, #1
 8002fd6:	d012      	beq.n	8002ffe <tcpUpdateEvents+0xf2>
 8002fd8:	3a07      	subs	r2, #7
 8002fda:	f043 0338 	orr.w	r3, r3, #56	; 0x38
 8002fde:	2a01      	cmp	r2, #1
 8002fe0:	f8c4 3084 	str.w	r3, [r4, #132]	; 0x84
 8002fe4:	d803      	bhi.n	8002fee <tcpUpdateEvents+0xe2>
 8002fe6:	f8b4 30c4 	ldrh.w	r3, [r4, #196]	; 0xc4
 8002fea:	2b00      	cmp	r3, #0
 8002fec:	d0ab      	beq.n	8002f46 <tcpUpdateEvents+0x3a>
 8002fee:	f8d4 3084 	ldr.w	r3, [r4, #132]	; 0x84
 8002ff2:	f043 0380 	orr.w	r3, r3, #128	; 0x80
 8002ff6:	e7a4      	b.n	8002f42 <tcpUpdateEvents+0x36>
 8002ff8:	f443 6380 	orr.w	r3, r3, #1024	; 0x400
 8002ffc:	e7ad      	b.n	8002f5a <tcpUpdateEvents+0x4e>
 8002ffe:	f8d4 2210 	ldr.w	r2, [r4, #528]	; 0x210
 8003002:	2a00      	cmp	r2, #0
 8003004:	d09f      	beq.n	8002f46 <tcpUpdateEvents+0x3a>
 8003006:	f043 0381 	orr.w	r3, r3, #129	; 0x81
 800300a:	e79a      	b.n	8002f42 <tcpUpdateEvents+0x36>
 800300c:	bdf8      	pop	{r3, r4, r5, r6, r7, pc}

0800300e <tcpChangeState>:
 800300e:	b949      	cbnz	r1, 8003024 <tcpChangeState+0x16>
 8003010:	f890 208c 	ldrb.w	r2, [r0, #140]	; 0x8c
 8003014:	2a06      	cmp	r2, #6
 8003016:	f04f 0301 	mov.w	r3, #1
 800301a:	d001      	beq.n	8003020 <tcpChangeState+0x12>
 800301c:	2a0a      	cmp	r2, #10
 800301e:	d105      	bne.n	800302c <tcpChangeState+0x1e>
 8003020:	f8c0 3094 	str.w	r3, [r0, #148]	; 0x94
 8003024:	f880 108c 	strb.w	r1, [r0, #140]	; 0x8c
 8003028:	f7ff bf70 	b.w	8002f0c <tcpUpdateEvents>
 800302c:	f8c0 3098 	str.w	r3, [r0, #152]	; 0x98
 8003030:	e7f8      	b.n	8003024 <tcpChangeState+0x16>

08003032 <tcpReadTxBuffer>:
 8003032:	b5f7      	push	{r0, r1, r2, r4, r5, r6, r7, lr}
 8003034:	4606      	mov	r6, r0
 8003036:	3901      	subs	r1, #1
 8003038:	f8d6 40a0 	ldr.w	r4, [r6, #160]	; 0xa0
 800303c:	f8d0 0174 	ldr.w	r0, [r0, #372]	; 0x174
 8003040:	1b09      	subs	r1, r1, r4
 8003042:	fbb1 f4f0 	udiv	r4, r1, r0
 8003046:	fb00 1414 	mls	r4, r0, r4, r1
 800304a:	4617      	mov	r7, r2
 800304c:	18e2      	adds	r2, r4, r3
 800304e:	4290      	cmp	r0, r2
 8003050:	461d      	mov	r5, r3
 8003052:	f106 01f4 	add.w	r1, r6, #244	; 0xf4
 8003056:	d306      	bcc.n	8003066 <tcpReadTxBuffer+0x34>
 8003058:	4622      	mov	r2, r4
 800305a:	4638      	mov	r0, r7
 800305c:	b003      	add	sp, #12
 800305e:	e8bd 40f0 	ldmia.w	sp!, {r4, r5, r6, r7, lr}
 8003062:	f7fe bba1 	b.w	80017a8 <netBufferConcat>
 8003066:	1b03      	subs	r3, r0, r4
 8003068:	4622      	mov	r2, r4
 800306a:	4638      	mov	r0, r7
 800306c:	9101      	str	r1, [sp, #4]
 800306e:	f7fe fb9b 	bl	80017a8 <netBufferConcat>
 8003072:	9901      	ldr	r1, [sp, #4]
 8003074:	4602      	mov	r2, r0
 8003076:	b920      	cbnz	r0, 8003082 <tcpReadTxBuffer+0x50>
 8003078:	f8d6 3174 	ldr.w	r3, [r6, #372]	; 0x174
 800307c:	1aeb      	subs	r3, r5, r3
 800307e:	4423      	add	r3, r4
 8003080:	e7eb      	b.n	800305a <tcpReadTxBuffer+0x28>
 8003082:	b003      	add	sp, #12
 8003084:	bdf0      	pop	{r4, r5, r6, r7, pc}
	...

08003088 <tcpSendSegment>:
 8003088:	e92d 4ff0 	stmdb	sp!, {r4, r5, r6, r7, r8, r9, sl, fp, lr}
 800308c:	469b      	mov	fp, r3
 800308e:	f8b0 309e 	ldrh.w	r3, [r0, #158]	; 0x9e
 8003092:	b08f      	sub	sp, #60	; 0x3c
 8003094:	ba5b      	rev16	r3, r3
 8003096:	4604      	mov	r4, r0
 8003098:	4689      	mov	r9, r1
 800309a:	203c      	movs	r0, #60	; 0x3c
 800309c:	a903      	add	r1, sp, #12
 800309e:	f8dd 8060 	ldr.w	r8, [sp, #96]	; 0x60
 80030a2:	f8ad 300a 	strh.w	r3, [sp, #10]
 80030a6:	4692      	mov	sl, r2
 80030a8:	f7fe f8fe 	bl	80012a8 <ipAllocBuffer>
 80030ac:	4607      	mov	r7, r0
 80030ae:	2800      	cmp	r0, #0
 80030b0:	f000 8096 	beq.w	80031e0 <tcpSendSegment+0x158>
 80030b4:	9903      	ldr	r1, [sp, #12]
 80030b6:	f7fe fb62 	bl	800177e <netBufferAt>
 80030ba:	4605      	mov	r5, r0
 80030bc:	8b20      	ldrh	r0, [r4, #24]
 80030be:	f7fd fd42 	bl	8000b46 <swapInt16>
 80030c2:	8028      	strh	r0, [r5, #0]
 80030c4:	8ca0      	ldrh	r0, [r4, #36]	; 0x24
 80030c6:	f7fd fd3e 	bl	8000b46 <swapInt16>
 80030ca:	8068      	strh	r0, [r5, #2]
 80030cc:	4650      	mov	r0, sl
 80030ce:	f7fd fd3d 	bl	8000b4c <swapInt32>
 80030d2:	6068      	str	r0, [r5, #4]
 80030d4:	f019 0010 	ands.w	r0, r9, #16
 80030d8:	d002      	beq.n	80030e0 <tcpSendSegment+0x58>
 80030da:	4658      	mov	r0, fp
 80030dc:	f7fd fd36 	bl	8000b4c <swapInt32>
 80030e0:	2350      	movs	r3, #80	; 0x50
 80030e2:	732b      	strb	r3, [r5, #12]
 80030e4:	f009 033f 	and.w	r3, r9, #63	; 0x3f
 80030e8:	60a8      	str	r0, [r5, #8]
 80030ea:	736b      	strb	r3, [r5, #13]
 80030ec:	f8b4 00c6 	ldrh.w	r0, [r4, #198]	; 0xc6
 80030f0:	f7fd fd29 	bl	8000b46 <swapInt16>
 80030f4:	2300      	movs	r3, #0
 80030f6:	f019 0f02 	tst.w	r9, #2
 80030fa:	81e8      	strh	r0, [r5, #14]
 80030fc:	742b      	strb	r3, [r5, #16]
 80030fe:	746b      	strb	r3, [r5, #17]
 8003100:	74ab      	strb	r3, [r5, #18]
 8003102:	74eb      	strb	r3, [r5, #19]
 8003104:	d006      	beq.n	8003114 <tcpSendSegment+0x8c>
 8003106:	2302      	movs	r3, #2
 8003108:	f10d 020a 	add.w	r2, sp, #10
 800310c:	4619      	mov	r1, r3
 800310e:	4628      	mov	r0, r5
 8003110:	f7ff fd14 	bl	8002b3c <tcpAddOption>
 8003114:	7b2b      	ldrb	r3, [r5, #12]
 8003116:	9903      	ldr	r1, [sp, #12]
 8003118:	091b      	lsrs	r3, r3, #4
 800311a:	eb01 0183 	add.w	r1, r1, r3, lsl #2
 800311e:	4638      	mov	r0, r7
 8003120:	f7fe faaa 	bl	8001678 <netBufferSetLength>
 8003124:	f1b8 0f00 	cmp.w	r8, #0
 8003128:	d00b      	beq.n	8003142 <tcpSendSegment+0xba>
 800312a:	4643      	mov	r3, r8
 800312c:	463a      	mov	r2, r7
 800312e:	4651      	mov	r1, sl
 8003130:	4620      	mov	r0, r4
 8003132:	f7ff ff7e 	bl	8003032 <tcpReadTxBuffer>
 8003136:	4606      	mov	r6, r0
 8003138:	b118      	cbz	r0, 8003142 <tcpSendSegment+0xba>
 800313a:	4638      	mov	r0, r7
 800313c:	f7fe faf5 	bl	800172a <netBufferFree>
 8003140:	e03d      	b.n	80031be <tcpSendSegment+0x136>
 8003142:	69e3      	ldr	r3, [r4, #28]
 8003144:	2b04      	cmp	r3, #4
 8003146:	d136      	bne.n	80031b6 <tcpSendSegment+0x12e>
 8003148:	f895 900c 	ldrb.w	r9, [r5, #12]
 800314c:	ea4f 1919 	mov.w	r9, r9, lsr #4
 8003150:	fb13 8909 	smlabb	r9, r3, r9, r8
 8003154:	6963      	ldr	r3, [r4, #20]
 8003156:	9305      	str	r3, [sp, #20]
 8003158:	6a23      	ldr	r3, [r4, #32]
 800315a:	9306      	str	r3, [sp, #24]
 800315c:	260c      	movs	r6, #12
 800315e:	f44f 63c0 	mov.w	r3, #1536	; 0x600
 8003162:	fa1f f089 	uxth.w	r0, r9
 8003166:	f8ad 301c 	strh.w	r3, [sp, #28]
 800316a:	9604      	str	r6, [sp, #16]
 800316c:	f7fd fceb 	bl	8000b46 <swapInt16>
 8003170:	9b03      	ldr	r3, [sp, #12]
 8003172:	f8ad 001e 	strh.w	r0, [sp, #30]
 8003176:	f8cd 9000 	str.w	r9, [sp]
 800317a:	463a      	mov	r2, r7
 800317c:	4631      	mov	r1, r6
 800317e:	a805      	add	r0, sp, #20
 8003180:	f7fe f87d 	bl	800127e <ipCalcUpperLayerChecksumEx>
 8003184:	9b19      	ldr	r3, [sp, #100]	; 0x64
 8003186:	8228      	strh	r0, [r5, #16]
 8003188:	b9eb      	cbnz	r3, 80031c6 <tcpSendSegment+0x13e>
 800318a:	4e35      	ldr	r6, [pc, #212]	; (8003260 <tcpSendSegment+0x1d8>)
 800318c:	ce0f      	ldmia	r6!, {r0, r1, r2, r3}
 800318e:	ad08      	add	r5, sp, #32
 8003190:	c50f      	stmia	r5!, {r0, r1, r2, r3}
 8003192:	e896 0003 	ldmia.w	r6, {r0, r1}
 8003196:	f894 302c 	ldrb.w	r3, [r4, #44]	; 0x2c
 800319a:	f88d 3020 	strb.w	r3, [sp, #32]
 800319e:	ab08      	add	r3, sp, #32
 80031a0:	e885 0003 	stmia.w	r5, {r0, r1}
 80031a4:	463a      	mov	r2, r7
 80031a6:	9300      	str	r3, [sp, #0]
 80031a8:	68e0      	ldr	r0, [r4, #12]
 80031aa:	9b03      	ldr	r3, [sp, #12]
 80031ac:	a904      	add	r1, sp, #16
 80031ae:	f7fd ffd9 	bl	8001164 <ipSendDatagram>
 80031b2:	4606      	mov	r6, r0
 80031b4:	e7c1      	b.n	800313a <tcpSendSegment+0xb2>
 80031b6:	4638      	mov	r0, r7
 80031b8:	f7fe fab7 	bl	800172a <netBufferFree>
 80031bc:	26e4      	movs	r6, #228	; 0xe4
 80031be:	4630      	mov	r0, r6
 80031c0:	b00f      	add	sp, #60	; 0x3c
 80031c2:	e8bd 8ff0 	ldmia.w	sp!, {r4, r5, r6, r7, r8, r9, sl, fp, pc}
 80031c6:	f8d4 31fc 	ldr.w	r3, [r4, #508]	; 0x1fc
 80031ca:	b95b      	cbnz	r3, 80031e4 <tcpSendSegment+0x15c>
 80031cc:	2058      	movs	r0, #88	; 0x58
 80031ce:	f7fe fa2d 	bl	800162c <memPoolAlloc>
 80031d2:	4606      	mov	r6, r0
 80031d4:	f8c4 01fc 	str.w	r0, [r4, #508]	; 0x1fc
 80031d8:	b97e      	cbnz	r6, 80031fa <tcpSendSegment+0x172>
 80031da:	4638      	mov	r0, r7
 80031dc:	f7fe faa5 	bl	800172a <netBufferFree>
 80031e0:	2664      	movs	r6, #100	; 0x64
 80031e2:	e7ec      	b.n	80031be <tcpSendSegment+0x136>
 80031e4:	4699      	mov	r9, r3
 80031e6:	681b      	ldr	r3, [r3, #0]
 80031e8:	2b00      	cmp	r3, #0
 80031ea:	d1fb      	bne.n	80031e4 <tcpSendSegment+0x15c>
 80031ec:	2058      	movs	r0, #88	; 0x58
 80031ee:	f7fe fa1d 	bl	800162c <memPoolAlloc>
 80031f2:	4606      	mov	r6, r0
 80031f4:	f8c9 0000 	str.w	r0, [r9]
 80031f8:	e7ee      	b.n	80031d8 <tcpSendSegment+0x150>
 80031fa:	7b2a      	ldrb	r2, [r5, #12]
 80031fc:	2300      	movs	r3, #0
 80031fe:	0912      	lsrs	r2, r2, #4
 8003200:	60b3      	str	r3, [r6, #8]
 8003202:	e9c6 3800 	strd	r3, r8, [r6]
 8003206:	0092      	lsls	r2, r2, #2
 8003208:	4629      	mov	r1, r5
 800320a:	f106 001c 	add.w	r0, r6, #28
 800320e:	f006 f986 	bl	800951e <memcpy>
 8003212:	ab04      	add	r3, sp, #16
 8003214:	cb0f      	ldmia	r3, {r0, r1, r2, r3}
 8003216:	360c      	adds	r6, #12
 8003218:	e886 000f 	stmia.w	r6, {r0, r1, r2, r3}
 800321c:	f8d4 60c8 	ldr.w	r6, [r4, #200]	; 0xc8
 8003220:	b96e      	cbnz	r6, 800323e <tcpSendSegment+0x1b6>
 8003222:	f7fd fd42 	bl	8000caa <osGetSystemTime>
 8003226:	f8c4 00d0 	str.w	r0, [r4, #208]	; 0xd0
 800322a:	6868      	ldr	r0, [r5, #4]
 800322c:	f7fd fc8e 	bl	8000b4c <swapInt32>
 8003230:	2301      	movs	r3, #1
 8003232:	f8c4 00cc 	str.w	r0, [r4, #204]	; 0xcc
 8003236:	f8c4 30c8 	str.w	r3, [r4, #200]	; 0xc8
 800323a:	f8c4 60ec 	str.w	r6, [r4, #236]	; 0xec
 800323e:	f504 7600 	add.w	r6, r4, #512	; 0x200
 8003242:	4630      	mov	r0, r6
 8003244:	f7fe fcc7 	bl	8001bd6 <netTimerRunning>
 8003248:	4605      	mov	r5, r0
 800324a:	2800      	cmp	r0, #0
 800324c:	d19d      	bne.n	800318a <tcpSendSegment+0x102>
 800324e:	f8d4 10dc 	ldr.w	r1, [r4, #220]	; 0xdc
 8003252:	4630      	mov	r0, r6
 8003254:	f7fe fcb2 	bl	8001bbc <netStartTimer>
 8003258:	f8c4 520c 	str.w	r5, [r4, #524]	; 0x20c
 800325c:	e795      	b.n	800318a <tcpSendSegment+0x102>
 800325e:	bf00      	nop
 8003260:	0800a9e4 	.word	0x0800a9e4

08003264 <tcpSendResetSegment>:
 8003264:	b507      	push	{r0, r1, r2, lr}
 8003266:	f890 308c 	ldrb.w	r3, [r0, #140]	; 0x8c
 800326a:	460a      	mov	r2, r1
 800326c:	1ed9      	subs	r1, r3, #3
 800326e:	2902      	cmp	r1, #2
 8003270:	d902      	bls.n	8003278 <tcpSendResetSegment+0x14>
 8003272:	3b07      	subs	r3, #7
 8003274:	2b01      	cmp	r3, #1
 8003276:	d808      	bhi.n	800328a <tcpSendResetSegment+0x26>
 8003278:	2300      	movs	r3, #0
 800327a:	e9cd 3300 	strd	r3, r3, [sp]
 800327e:	2104      	movs	r1, #4
 8003280:	f7ff ff02 	bl	8003088 <tcpSendSegment>
 8003284:	b003      	add	sp, #12
 8003286:	f85d fb04 	ldr.w	pc, [sp], #4
 800328a:	2000      	movs	r0, #0
 800328c:	e7fa      	b.n	8003284 <tcpSendResetSegment+0x20>

0800328e <tcpCheckSeqNum>:
 800328e:	b573      	push	{r0, r1, r4, r5, r6, lr}
 8003290:	f8b0 50c6 	ldrh.w	r5, [r0, #198]	; 0xc6
 8003294:	b9ea      	cbnz	r2, 80032d2 <tcpCheckSeqNum+0x44>
 8003296:	684c      	ldr	r4, [r1, #4]
 8003298:	f8d0 30c0 	ldr.w	r3, [r0, #192]	; 0xc0
 800329c:	b985      	cbnz	r5, 80032c0 <tcpCheckSeqNum+0x32>
 800329e:	42a3      	cmp	r3, r4
 80032a0:	d014      	beq.n	80032cc <tcpCheckSeqNum+0x3e>
 80032a2:	7b4b      	ldrb	r3, [r1, #13]
 80032a4:	f013 0304 	ands.w	r3, r3, #4
 80032a8:	d108      	bne.n	80032bc <tcpCheckSeqNum+0x2e>
 80032aa:	e9cd 3300 	strd	r3, r3, [sp]
 80032ae:	2110      	movs	r1, #16
 80032b0:	f8d0 30c0 	ldr.w	r3, [r0, #192]	; 0xc0
 80032b4:	f8d0 20ac 	ldr.w	r2, [r0, #172]	; 0xac
 80032b8:	f7ff fee6 	bl	8003088 <tcpSendSegment>
 80032bc:	2501      	movs	r5, #1
 80032be:	e005      	b.n	80032cc <tcpCheckSeqNum+0x3e>
 80032c0:	1ae4      	subs	r4, r4, r3
 80032c2:	d4ee      	bmi.n	80032a2 <tcpCheckSeqNum+0x14>
 80032c4:	1b64      	subs	r4, r4, r5
 80032c6:	2c00      	cmp	r4, #0
 80032c8:	daeb      	bge.n	80032a2 <tcpCheckSeqNum+0x14>
 80032ca:	2500      	movs	r5, #0
 80032cc:	4628      	mov	r0, r5
 80032ce:	b002      	add	sp, #8
 80032d0:	bd70      	pop	{r4, r5, r6, pc}
 80032d2:	2d00      	cmp	r5, #0
 80032d4:	d0e5      	beq.n	80032a2 <tcpCheckSeqNum+0x14>
 80032d6:	684e      	ldr	r6, [r1, #4]
 80032d8:	f8d0 30c0 	ldr.w	r3, [r0, #192]	; 0xc0
 80032dc:	1af4      	subs	r4, r6, r3
 80032de:	d402      	bmi.n	80032e6 <tcpCheckSeqNum+0x58>
 80032e0:	1b64      	subs	r4, r4, r5
 80032e2:	2c00      	cmp	r4, #0
 80032e4:	dbf1      	blt.n	80032ca <tcpCheckSeqNum+0x3c>
 80032e6:	43dc      	mvns	r4, r3
 80032e8:	18a3      	adds	r3, r4, r2
 80032ea:	199b      	adds	r3, r3, r6
 80032ec:	d4d9      	bmi.n	80032a2 <tcpCheckSeqNum+0x14>
 80032ee:	1b5b      	subs	r3, r3, r5
 80032f0:	2b00      	cmp	r3, #0
 80032f2:	e7e9      	b.n	80032c8 <tcpCheckSeqNum+0x3a>

080032f4 <tcpCheckSyn>:
 80032f4:	b537      	push	{r0, r1, r2, r4, r5, lr}
 80032f6:	7b4c      	ldrb	r4, [r1, #13]
 80032f8:	f004 053f 	and.w	r5, r4, #63	; 0x3f
 80032fc:	f014 0402 	ands.w	r4, r4, #2
 8003300:	4613      	mov	r3, r2
 8003302:	d011      	beq.n	8003328 <tcpCheckSyn+0x34>
 8003304:	f015 0210 	ands.w	r2, r5, #16
 8003308:	d005      	beq.n	8003316 <tcpCheckSyn+0x22>
 800330a:	6889      	ldr	r1, [r1, #8]
 800330c:	f7ff ffaa 	bl	8003264 <tcpSendResetSegment>
 8003310:	2001      	movs	r0, #1
 8003312:	b003      	add	sp, #12
 8003314:	bd30      	pop	{r4, r5, pc}
 8003316:	6849      	ldr	r1, [r1, #4]
 8003318:	3301      	adds	r3, #1
 800331a:	440b      	add	r3, r1
 800331c:	e9cd 2200 	strd	r2, r2, [sp]
 8003320:	2114      	movs	r1, #20
 8003322:	f7ff feb1 	bl	8003088 <tcpSendSegment>
 8003326:	e7f3      	b.n	8003310 <tcpCheckSyn+0x1c>
 8003328:	4620      	mov	r0, r4
 800332a:	e7f2      	b.n	8003312 <tcpCheckSyn+0x1e>

0800332c <tcpNagleAlgo>:
 800332c:	e92d 43f7 	stmdb	sp!, {r0, r1, r2, r4, r5, r6, r7, r8, r9, lr}
 8003330:	f8b0 30e2 	ldrh.w	r3, [r0, #226]	; 0xe2
 8003334:	f8b0 50b2 	ldrh.w	r5, [r0, #178]	; 0xb2
 8003338:	f8d0 2174 	ldr.w	r2, [r0, #372]	; 0x174
 800333c:	429d      	cmp	r5, r3
 800333e:	bf28      	it	cs
 8003340:	461d      	movcs	r5, r3
 8003342:	4604      	mov	r4, r0
 8003344:	e9d0 302a 	ldrd	r3, r0, [r0, #168]	; 0xa8
 8003348:	1a1b      	subs	r3, r3, r0
 800334a:	4295      	cmp	r5, r2
 800334c:	bf94      	ite	ls
 800334e:	195d      	addls	r5, r3, r5
 8003350:	189d      	addhi	r5, r3, r2
 8003352:	f401 4980 	and.w	r9, r1, #16384	; 0x4000
 8003356:	f401 4700 	and.w	r7, r1, #32768	; 0x8000
 800335a:	f04f 0801 	mov.w	r8, #1
 800335e:	f8b4 10b0 	ldrh.w	r1, [r4, #176]	; 0xb0
 8003362:	b349      	cbz	r1, 80033b8 <tcpNagleAlgo+0x8c>
 8003364:	2d00      	cmp	r5, #0
 8003366:	dd27      	ble.n	80033b8 <tcpNagleAlgo+0x8c>
 8003368:	f8b4 009c 	ldrh.w	r0, [r4, #156]	; 0x9c
 800336c:	42a9      	cmp	r1, r5
 800336e:	460b      	mov	r3, r1
 8003370:	bf28      	it	cs
 8003372:	462b      	movcs	r3, r5
 8003374:	4298      	cmp	r0, r3
 8003376:	4606      	mov	r6, r0
 8003378:	bf28      	it	cs
 800337a:	461e      	movcs	r6, r3
 800337c:	f1b9 0f00 	cmp.w	r9, #0
 8003380:	d017      	beq.n	80033b2 <tcpNagleAlgo+0x86>
 8003382:	b1ce      	cbz	r6, 80033b8 <tcpNagleAlgo+0x8c>
 8003384:	e9cd 6800 	strd	r6, r8, [sp]
 8003388:	f8d4 30c0 	ldr.w	r3, [r4, #192]	; 0xc0
 800338c:	f8d4 20ac 	ldr.w	r2, [r4, #172]	; 0xac
 8003390:	2118      	movs	r1, #24
 8003392:	4620      	mov	r0, r4
 8003394:	f7ff fe78 	bl	8003088 <tcpSendSegment>
 8003398:	b990      	cbnz	r0, 80033c0 <tcpNagleAlgo+0x94>
 800339a:	f8d4 30ac 	ldr.w	r3, [r4, #172]	; 0xac
 800339e:	4433      	add	r3, r6
 80033a0:	f8c4 30ac 	str.w	r3, [r4, #172]	; 0xac
 80033a4:	f8b4 30b0 	ldrh.w	r3, [r4, #176]	; 0xb0
 80033a8:	1b9b      	subs	r3, r3, r6
 80033aa:	f8a4 30b0 	strh.w	r3, [r4, #176]	; 0xb0
 80033ae:	1bad      	subs	r5, r5, r6
 80033b0:	e7d5      	b.n	800335e <tcpNagleAlgo+0x32>
 80033b2:	b147      	cbz	r7, 80033c6 <tcpNagleAlgo+0x9a>
 80033b4:	4298      	cmp	r0, r3
 80033b6:	d9e5      	bls.n	8003384 <tcpNagleAlgo+0x58>
 80033b8:	4620      	mov	r0, r4
 80033ba:	f7ff fda7 	bl	8002f0c <tcpUpdateEvents>
 80033be:	2000      	movs	r0, #0
 80033c0:	b003      	add	sp, #12
 80033c2:	e8bd 83f0 	ldmia.w	sp!, {r4, r5, r6, r7, r8, r9, pc}
 80033c6:	4298      	cmp	r0, r3
 80033c8:	f8d4 20ac 	ldr.w	r2, [r4, #172]	; 0xac
 80033cc:	d804      	bhi.n	80033d8 <tcpNagleAlgo+0xac>
 80033ce:	e9cd 6800 	strd	r6, r8, [sp]
 80033d2:	f8d4 30c0 	ldr.w	r3, [r4, #192]	; 0xc0
 80033d6:	e7db      	b.n	8003390 <tcpNagleAlgo+0x64>
 80033d8:	f8d4 00a8 	ldr.w	r0, [r4, #168]	; 0xa8
 80033dc:	4290      	cmp	r0, r2
 80033de:	d107      	bne.n	80033f0 <tcpNagleAlgo+0xc4>
 80033e0:	42a9      	cmp	r1, r5
 80033e2:	d805      	bhi.n	80033f0 <tcpNagleAlgo+0xc4>
 80033e4:	e9cd 6800 	strd	r6, r8, [sp]
 80033e8:	f8d4 30c0 	ldr.w	r3, [r4, #192]	; 0xc0
 80033ec:	4602      	mov	r2, r0
 80033ee:	e7cf      	b.n	8003390 <tcpNagleAlgo+0x64>
 80033f0:	f8b4 10b4 	ldrh.w	r1, [r4, #180]	; 0xb4
 80033f4:	ebb3 0f51 	cmp.w	r3, r1, lsr #1
 80033f8:	d2e9      	bcs.n	80033ce <tcpNagleAlgo+0xa2>
 80033fa:	e7dd      	b.n	80033b8 <tcpNagleAlgo+0x8c>

080033fc <tcpRetransmitSegment>:
 80033fc:	e92d 43f0 	stmdb	sp!, {r4, r5, r6, r7, r8, r9, lr}
 8003400:	f8d0 51fc 	ldr.w	r5, [r0, #508]	; 0x1fc
 8003404:	b08b      	sub	sp, #44	; 0x2c
 8003406:	4606      	mov	r6, r0
 8003408:	f04f 0800 	mov.w	r8, #0
 800340c:	f10d 0910 	add.w	r9, sp, #16
 8003410:	b925      	cbnz	r5, 800341c <tcpRetransmitSegment+0x20>
 8003412:	2400      	movs	r4, #0
 8003414:	4620      	mov	r0, r4
 8003416:	b00b      	add	sp, #44	; 0x2c
 8003418:	e8bd 83f0 	ldmia.w	sp!, {r4, r5, r6, r7, r8, r9, pc}
 800341c:	686b      	ldr	r3, [r5, #4]
 800341e:	4498      	add	r8, r3
 8003420:	f8b6 309c 	ldrh.w	r3, [r6, #156]	; 0x9c
 8003424:	4543      	cmp	r3, r8
 8003426:	d3f4      	bcc.n	8003412 <tcpRetransmitSegment+0x16>
 8003428:	a903      	add	r1, sp, #12
 800342a:	2000      	movs	r0, #0
 800342c:	f7fd ff3c 	bl	80012a8 <ipAllocBuffer>
 8003430:	f105 041c 	add.w	r4, r5, #28
 8003434:	4607      	mov	r7, r0
 8003436:	b390      	cbz	r0, 800349e <tcpRetransmitSegment+0xa2>
 8003438:	f895 2028 	ldrb.w	r2, [r5, #40]	; 0x28
 800343c:	0912      	lsrs	r2, r2, #4
 800343e:	4621      	mov	r1, r4
 8003440:	0092      	lsls	r2, r2, #2
 8003442:	f7fe fa50 	bl	80018e6 <netBufferAppend>
 8003446:	4604      	mov	r4, r0
 8003448:	bb10      	cbnz	r0, 8003490 <tcpRetransmitSegment+0x94>
 800344a:	6a28      	ldr	r0, [r5, #32]
 800344c:	f7fd fb7e 	bl	8000b4c <swapInt32>
 8003450:	686b      	ldr	r3, [r5, #4]
 8003452:	4601      	mov	r1, r0
 8003454:	463a      	mov	r2, r7
 8003456:	4630      	mov	r0, r6
 8003458:	f7ff fdeb 	bl	8003032 <tcpReadTxBuffer>
 800345c:	4604      	mov	r4, r0
 800345e:	b9b8      	cbnz	r0, 8003490 <tcpRetransmitSegment+0x94>
 8003460:	f8df c040 	ldr.w	ip, [pc, #64]	; 80034a4 <tcpRetransmitSegment+0xa8>
 8003464:	e8bc 000f 	ldmia.w	ip!, {r0, r1, r2, r3}
 8003468:	ac04      	add	r4, sp, #16
 800346a:	c40f      	stmia	r4!, {r0, r1, r2, r3}
 800346c:	e89c 0003 	ldmia.w	ip, {r0, r1}
 8003470:	f896 302c 	ldrb.w	r3, [r6, #44]	; 0x2c
 8003474:	f88d 3010 	strb.w	r3, [sp, #16]
 8003478:	e884 0003 	stmia.w	r4, {r0, r1}
 800347c:	9b03      	ldr	r3, [sp, #12]
 800347e:	68f0      	ldr	r0, [r6, #12]
 8003480:	f8cd 9000 	str.w	r9, [sp]
 8003484:	463a      	mov	r2, r7
 8003486:	f105 010c 	add.w	r1, r5, #12
 800348a:	f7fd fe6b 	bl	8001164 <ipSendDatagram>
 800348e:	4604      	mov	r4, r0
 8003490:	4638      	mov	r0, r7
 8003492:	f7fe f94a 	bl	800172a <netBufferFree>
 8003496:	2c00      	cmp	r4, #0
 8003498:	d1bc      	bne.n	8003414 <tcpRetransmitSegment+0x18>
 800349a:	682d      	ldr	r5, [r5, #0]
 800349c:	e7b8      	b.n	8003410 <tcpRetransmitSegment+0x14>
 800349e:	2464      	movs	r4, #100	; 0x64
 80034a0:	e7b8      	b.n	8003414 <tcpRetransmitSegment+0x18>
 80034a2:	bf00      	nop
 80034a4:	0800a9e4 	.word	0x0800a9e4

080034a8 <tcpFastRetransmit>:
 80034a8:	e9d0 322a 	ldrd	r3, r2, [r0, #168]	; 0xa8
 80034ac:	f8b0 109c 	ldrh.w	r1, [r0, #156]	; 0x9c
 80034b0:	1ad3      	subs	r3, r2, r3
 80034b2:	085b      	lsrs	r3, r3, #1
 80034b4:	0049      	lsls	r1, r1, #1
 80034b6:	428b      	cmp	r3, r1
 80034b8:	b510      	push	{r4, lr}
 80034ba:	bf38      	it	cc
 80034bc:	460b      	movcc	r3, r1
 80034be:	4604      	mov	r4, r0
 80034c0:	3a01      	subs	r2, #1
 80034c2:	f8a0 30e4 	strh.w	r3, [r0, #228]	; 0xe4
 80034c6:	f8c0 20f0 	str.w	r2, [r0, #240]	; 0xf0
 80034ca:	f7ff ff97 	bl	80033fc <tcpRetransmitSegment>
 80034ce:	f8b4 309c 	ldrh.w	r3, [r4, #156]	; 0x9c
 80034d2:	f8b4 20e4 	ldrh.w	r2, [r4, #228]	; 0xe4
 80034d6:	eb03 0343 	add.w	r3, r3, r3, lsl #1
 80034da:	4413      	add	r3, r2
 80034dc:	f8a4 30e2 	strh.w	r3, [r4, #226]	; 0xe2
 80034e0:	2301      	movs	r3, #1
 80034e2:	f884 30e0 	strb.w	r3, [r4, #224]	; 0xe0
 80034e6:	bd10      	pop	{r4, pc}

080034e8 <tcpFastRecovery>:
 80034e8:	b538      	push	{r3, r4, r5, lr}
 80034ea:	4615      	mov	r5, r2
 80034ec:	688b      	ldr	r3, [r1, #8]
 80034ee:	f8d0 20f0 	ldr.w	r2, [r0, #240]	; 0xf0
 80034f2:	1a9b      	subs	r3, r3, r2
 80034f4:	2b00      	cmp	r3, #0
 80034f6:	4604      	mov	r4, r0
 80034f8:	dd07      	ble.n	800350a <tcpFastRecovery+0x22>
 80034fa:	f8b0 30e4 	ldrh.w	r3, [r0, #228]	; 0xe4
 80034fe:	f8a0 30e2 	strh.w	r3, [r0, #226]	; 0xe2
 8003502:	2300      	movs	r3, #0
 8003504:	f884 30e0 	strb.w	r3, [r4, #224]	; 0xe0
 8003508:	bd38      	pop	{r3, r4, r5, pc}
 800350a:	f7ff ff77 	bl	80033fc <tcpRetransmitSegment>
 800350e:	f8b4 30e2 	ldrh.w	r3, [r4, #226]	; 0xe2
 8003512:	42ab      	cmp	r3, r5
 8003514:	bf84      	itt	hi
 8003516:	1b5b      	subhi	r3, r3, r5
 8003518:	f8a4 30e2 	strhhi.w	r3, [r4, #226]	; 0xe2
 800351c:	f8b4 309c 	ldrh.w	r3, [r4, #156]	; 0x9c
 8003520:	429d      	cmp	r5, r3
 8003522:	bf22      	ittt	cs
 8003524:	f8b4 20e2 	ldrhcs.w	r2, [r4, #226]	; 0xe2
 8003528:	189b      	addcs	r3, r3, r2
 800352a:	f8a4 30e2 	strhcs.w	r3, [r4, #226]	; 0xe2
 800352e:	2301      	movs	r3, #1
 8003530:	e7e8      	b.n	8003504 <tcpFastRecovery+0x1c>

08003532 <tcpFastLossRecovery>:
 8003532:	b510      	push	{r4, lr}
 8003534:	f8d0 20f0 	ldr.w	r2, [r0, #240]	; 0xf0
 8003538:	688b      	ldr	r3, [r1, #8]
 800353a:	1a9b      	subs	r3, r3, r2
 800353c:	2b00      	cmp	r3, #0
 800353e:	4604      	mov	r4, r0
 8003540:	dd03      	ble.n	800354a <tcpFastLossRecovery+0x18>
 8003542:	2300      	movs	r3, #0
 8003544:	f884 30e0 	strb.w	r3, [r4, #224]	; 0xe0
 8003548:	bd10      	pop	{r4, pc}
 800354a:	f7ff ff57 	bl	80033fc <tcpRetransmitSegment>
 800354e:	2302      	movs	r3, #2
 8003550:	e7f8      	b.n	8003544 <tcpFastLossRecovery+0x12>

08003552 <tcpCheckAck>:
 8003552:	7b4b      	ldrb	r3, [r1, #13]
 8003554:	06db      	lsls	r3, r3, #27
 8003556:	b5f7      	push	{r0, r1, r2, r4, r5, r6, r7, lr}
 8003558:	4604      	mov	r4, r0
 800355a:	460d      	mov	r5, r1
 800355c:	d513      	bpl.n	8003586 <tcpCheckAck+0x34>
 800355e:	688b      	ldr	r3, [r1, #8]
 8003560:	f8d0 60a8 	ldr.w	r6, [r0, #168]	; 0xa8
 8003564:	1b9e      	subs	r6, r3, r6
 8003566:	2e00      	cmp	r6, #0
 8003568:	db45      	blt.n	80035f6 <tcpCheckAck+0xa4>
 800356a:	f8d0 60ac 	ldr.w	r6, [r0, #172]	; 0xac
 800356e:	1b9b      	subs	r3, r3, r6
 8003570:	2b00      	cmp	r3, #0
 8003572:	dd0b      	ble.n	800358c <tcpCheckAck+0x3a>
 8003574:	2300      	movs	r3, #0
 8003576:	e9cd 3300 	strd	r3, r3, [sp]
 800357a:	4632      	mov	r2, r6
 800357c:	f8d0 30c0 	ldr.w	r3, [r0, #192]	; 0xc0
 8003580:	2110      	movs	r1, #16
 8003582:	f7ff fd81 	bl	8003088 <tcpSendSegment>
 8003586:	2001      	movs	r0, #1
 8003588:	b003      	add	sp, #12
 800358a:	bdf0      	pop	{r4, r5, r6, r7, pc}
 800358c:	f7ff fb4b 	bl	8002c26 <tcpIsDuplicateAck>
 8003590:	4607      	mov	r7, r0
 8003592:	4620      	mov	r0, r4
 8003594:	f7ff fc31 	bl	8002dfa <tcpUpdateSendWindow>
 8003598:	68ab      	ldr	r3, [r5, #8]
 800359a:	f8d4 00a8 	ldr.w	r0, [r4, #168]	; 0xa8
 800359e:	1a1e      	subs	r6, r3, r0
 80035a0:	2e00      	cmp	r6, #0
 80035a2:	dd4d      	ble.n	8003640 <tcpCheckAck+0xee>
 80035a4:	f8d4 20a0 	ldr.w	r2, [r4, #160]	; 0xa0
 80035a8:	f8c4 30a8 	str.w	r3, [r4, #168]	; 0xa8
 80035ac:	4290      	cmp	r0, r2
 80035ae:	f8d4 20ec 	ldr.w	r2, [r4, #236]	; 0xec
 80035b2:	bf08      	it	eq
 80035b4:	f106 36ff 	addeq.w	r6, r6, #4294967295	; 0xffffffff
 80035b8:	4432      	add	r2, r6
 80035ba:	f8c4 20ec 	str.w	r2, [r4, #236]	; 0xec
 80035be:	4620      	mov	r0, r4
 80035c0:	f7ff fc60 	bl	8002e84 <tcpComputeRto>
 80035c4:	4607      	mov	r7, r0
 80035c6:	4620      	mov	r0, r4
 80035c8:	f7ff fb47 	bl	8002c5a <tcpUpdateRetransmitQueue>
 80035cc:	f894 30e0 	ldrb.w	r3, [r4, #224]	; 0xe0
 80035d0:	2b01      	cmp	r3, #1
 80035d2:	d112      	bne.n	80035fa <tcpCheckAck+0xa8>
 80035d4:	4632      	mov	r2, r6
 80035d6:	4629      	mov	r1, r5
 80035d8:	4620      	mov	r0, r4
 80035da:	f7ff ff85 	bl	80034e8 <tcpFastRecovery>
 80035de:	f8b4 30e2 	ldrh.w	r3, [r4, #226]	; 0xe2
 80035e2:	f8d4 2174 	ldr.w	r2, [r4, #372]	; 0x174
 80035e6:	4293      	cmp	r3, r2
 80035e8:	bf28      	it	cs
 80035ea:	4613      	movcs	r3, r2
 80035ec:	f8a4 30e2 	strh.w	r3, [r4, #226]	; 0xe2
 80035f0:	4620      	mov	r0, r4
 80035f2:	f7ff fc8b 	bl	8002f0c <tcpUpdateEvents>
 80035f6:	2000      	movs	r0, #0
 80035f8:	e7c6      	b.n	8003588 <tcpCheckAck+0x36>
 80035fa:	2200      	movs	r2, #0
 80035fc:	2b02      	cmp	r3, #2
 80035fe:	f8c4 20e8 	str.w	r2, [r4, #232]	; 0xe8
 8003602:	d103      	bne.n	800360c <tcpCheckAck+0xba>
 8003604:	4629      	mov	r1, r5
 8003606:	4620      	mov	r0, r4
 8003608:	f7ff ff93 	bl	8003532 <tcpFastLossRecovery>
 800360c:	f8b4 30e2 	ldrh.w	r3, [r4, #226]	; 0xe2
 8003610:	f8b4 20e4 	ldrh.w	r2, [r4, #228]	; 0xe4
 8003614:	429a      	cmp	r2, r3
 8003616:	d908      	bls.n	800362a <tcpCheckAck+0xd8>
 8003618:	f8b4 209c 	ldrh.w	r2, [r4, #156]	; 0x9c
 800361c:	42b2      	cmp	r2, r6
 800361e:	bf94      	ite	ls
 8003620:	189b      	addls	r3, r3, r2
 8003622:	199b      	addhi	r3, r3, r6
 8003624:	f8a4 30e2 	strh.w	r3, [r4, #226]	; 0xe2
 8003628:	e7d9      	b.n	80035de <tcpCheckAck+0x8c>
 800362a:	2f00      	cmp	r7, #0
 800362c:	d0d7      	beq.n	80035de <tcpCheckAck+0x8c>
 800362e:	f8b4 109c 	ldrh.w	r1, [r4, #156]	; 0x9c
 8003632:	f8d4 20ec 	ldr.w	r2, [r4, #236]	; 0xec
 8003636:	4291      	cmp	r1, r2
 8003638:	bf94      	ite	ls
 800363a:	185b      	addls	r3, r3, r1
 800363c:	189b      	addhi	r3, r3, r2
 800363e:	e7f1      	b.n	8003624 <tcpCheckAck+0xd2>
 8003640:	b347      	cbz	r7, 8003694 <tcpCheckAck+0x142>
 8003642:	f8d4 20e8 	ldr.w	r2, [r4, #232]	; 0xe8
 8003646:	3201      	adds	r2, #1
 8003648:	f894 10e0 	ldrb.w	r1, [r4, #224]	; 0xe0
 800364c:	f8c4 20e8 	str.w	r2, [r4, #232]	; 0xe8
 8003650:	bb31      	cbnz	r1, 80036a0 <tcpCheckAck+0x14e>
 8003652:	f8d4 10ac 	ldr.w	r1, [r4, #172]	; 0xac
 8003656:	1a09      	subs	r1, r1, r0
 8003658:	f8b4 00b0 	ldrh.w	r0, [r4, #176]	; 0xb0
 800365c:	b118      	cbz	r0, 8003666 <tcpCheckAck+0x114>
 800365e:	f8b4 00b2 	ldrh.w	r0, [r4, #178]	; 0xb2
 8003662:	4288      	cmp	r0, r1
 8003664:	d818      	bhi.n	8003698 <tcpCheckAck+0x146>
 8003666:	f8b4 009c 	ldrh.w	r0, [r4, #156]	; 0x9c
 800366a:	eb00 0540 	add.w	r5, r0, r0, lsl #1
 800366e:	428d      	cmp	r5, r1
 8003670:	d214      	bcs.n	800369c <tcpCheckAck+0x14a>
 8003672:	ebb1 0f80 	cmp.w	r1, r0, lsl #2
 8003676:	bf8c      	ite	hi
 8003678:	2103      	movhi	r1, #3
 800367a:	2102      	movls	r1, #2
 800367c:	4291      	cmp	r1, r2
 800367e:	d8ae      	bhi.n	80035de <tcpCheckAck+0x8c>
 8003680:	f8d4 20f0 	ldr.w	r2, [r4, #240]	; 0xf0
 8003684:	1a9b      	subs	r3, r3, r2
 8003686:	3b01      	subs	r3, #1
 8003688:	2b00      	cmp	r3, #0
 800368a:	dda8      	ble.n	80035de <tcpCheckAck+0x8c>
 800368c:	4620      	mov	r0, r4
 800368e:	f7ff ff0b 	bl	80034a8 <tcpFastRetransmit>
 8003692:	e7a4      	b.n	80035de <tcpCheckAck+0x8c>
 8003694:	463a      	mov	r2, r7
 8003696:	e7d7      	b.n	8003648 <tcpCheckAck+0xf6>
 8003698:	2103      	movs	r1, #3
 800369a:	e7ef      	b.n	800367c <tcpCheckAck+0x12a>
 800369c:	2101      	movs	r1, #1
 800369e:	e7ed      	b.n	800367c <tcpCheckAck+0x12a>
 80036a0:	2901      	cmp	r1, #1
 80036a2:	d19c      	bne.n	80035de <tcpCheckAck+0x8c>
 80036a4:	2f00      	cmp	r7, #0
 80036a6:	d09a      	beq.n	80035de <tcpCheckAck+0x8c>
 80036a8:	f8b4 309c 	ldrh.w	r3, [r4, #156]	; 0x9c
 80036ac:	f8b4 20e2 	ldrh.w	r2, [r4, #226]	; 0xe2
 80036b0:	4413      	add	r3, r2
 80036b2:	e7b7      	b.n	8003624 <tcpCheckAck+0xd2>

080036b4 <tcpWriteRxBuffer>:
 80036b4:	e92d 43f7 	stmdb	sp!, {r0, r1, r2, r4, r5, r6, r7, r8, r9, lr}
 80036b8:	4606      	mov	r6, r0
 80036ba:	3901      	subs	r1, #1
 80036bc:	f8d6 70a4 	ldr.w	r7, [r6, #164]	; 0xa4
 80036c0:	f8d0 01f8 	ldr.w	r0, [r0, #504]	; 0x1f8
 80036c4:	9d0a      	ldr	r5, [sp, #40]	; 0x28
 80036c6:	1bc9      	subs	r1, r1, r7
 80036c8:	fbb1 f4f0 	udiv	r4, r1, r0
 80036cc:	fb00 1414 	mls	r4, r0, r4, r1
 80036d0:	1961      	adds	r1, r4, r5
 80036d2:	4288      	cmp	r0, r1
 80036d4:	4690      	mov	r8, r2
 80036d6:	4699      	mov	r9, r3
 80036d8:	f506 77bc 	add.w	r7, r6, #376	; 0x178
 80036dc:	d306      	bcc.n	80036ec <tcpWriteRxBuffer+0x38>
 80036de:	4621      	mov	r1, r4
 80036e0:	4638      	mov	r0, r7
 80036e2:	b003      	add	sp, #12
 80036e4:	e8bd 43f0 	ldmia.w	sp!, {r4, r5, r6, r7, r8, r9, lr}
 80036e8:	f7fe b89e 	b.w	8001828 <netBufferCopy>
 80036ec:	1b00      	subs	r0, r0, r4
 80036ee:	9000      	str	r0, [sp, #0]
 80036f0:	4621      	mov	r1, r4
 80036f2:	4638      	mov	r0, r7
 80036f4:	f7fe f898 	bl	8001828 <netBufferCopy>
 80036f8:	f8d6 21f8 	ldr.w	r2, [r6, #504]	; 0x1f8
 80036fc:	1aad      	subs	r5, r5, r2
 80036fe:	eb02 0309 	add.w	r3, r2, r9
 8003702:	4425      	add	r5, r4
 8003704:	950a      	str	r5, [sp, #40]	; 0x28
 8003706:	1b1b      	subs	r3, r3, r4
 8003708:	4642      	mov	r2, r8
 800370a:	2100      	movs	r1, #0
 800370c:	e7e8      	b.n	80036e0 <tcpWriteRxBuffer+0x2c>

0800370e <tcpProcessSegmentData>:
 800370e:	b57f      	push	{r0, r1, r2, r3, r4, r5, r6, lr}
 8003710:	4604      	mov	r4, r0
 8003712:	6848      	ldr	r0, [r1, #4]
 8003714:	f8d4 50c0 	ldr.w	r5, [r4, #192]	; 0xc0
 8003718:	9908      	ldr	r1, [sp, #32]
 800371a:	9002      	str	r0, [sp, #8]
 800371c:	1b46      	subs	r6, r0, r5
 800371e:	2e00      	cmp	r6, #0
 8003720:	bfbc      	itt	lt
 8003722:	195b      	addlt	r3, r3, r5
 8003724:	1a1b      	sublt	r3, r3, r0
 8003726:	4401      	add	r1, r0
 8003728:	f8b4 00c6 	ldrh.w	r0, [r4, #198]	; 0xc6
 800372c:	9103      	str	r1, [sp, #12]
 800372e:	4428      	add	r0, r5
 8003730:	eba1 0100 	sub.w	r1, r1, r0
 8003734:	bfb8      	it	lt
 8003736:	9502      	strlt	r5, [sp, #8]
 8003738:	2900      	cmp	r1, #0
 800373a:	bfc8      	it	gt
 800373c:	9003      	strgt	r0, [sp, #12]
 800373e:	e9dd 1002 	ldrd	r1, r0, [sp, #8]
 8003742:	1a40      	subs	r0, r0, r1
 8003744:	9000      	str	r0, [sp, #0]
 8003746:	4620      	mov	r0, r4
 8003748:	f7ff ffb4 	bl	80036b4 <tcpWriteRxBuffer>
 800374c:	aa03      	add	r2, sp, #12
 800374e:	a902      	add	r1, sp, #8
 8003750:	4620      	mov	r0, r4
 8003752:	f7ff fafa 	bl	8002d4a <tcpUpdateSackBlocks>
 8003756:	9902      	ldr	r1, [sp, #8]
 8003758:	f8d4 30c0 	ldr.w	r3, [r4, #192]	; 0xc0
 800375c:	1aca      	subs	r2, r1, r3
 800375e:	2a00      	cmp	r2, #0
 8003760:	dd0a      	ble.n	8003778 <tcpProcessSegmentData+0x6a>
 8003762:	2200      	movs	r2, #0
 8003764:	e9cd 2200 	strd	r2, r2, [sp]
 8003768:	2110      	movs	r1, #16
 800376a:	f8d4 20ac 	ldr.w	r2, [r4, #172]	; 0xac
 800376e:	4620      	mov	r0, r4
 8003770:	f7ff fc8a 	bl	8003088 <tcpSendSegment>
 8003774:	b004      	add	sp, #16
 8003776:	bd70      	pop	{r4, r5, r6, pc}
 8003778:	9a03      	ldr	r2, [sp, #12]
 800377a:	1a52      	subs	r2, r2, r1
 800377c:	f8b4 10c4 	ldrh.w	r1, [r4, #196]	; 0xc4
 8003780:	fa11 f182 	uxtah	r1, r1, r2
 8003784:	f8a4 10c4 	strh.w	r1, [r4, #196]	; 0xc4
 8003788:	f8b4 10c6 	ldrh.w	r1, [r4, #198]	; 0xc6
 800378c:	4413      	add	r3, r2
 800378e:	1a8a      	subs	r2, r1, r2
 8003790:	f8a4 20c6 	strh.w	r2, [r4, #198]	; 0xc6
 8003794:	2200      	movs	r2, #0
 8003796:	e9cd 2200 	strd	r2, r2, [sp]
 800379a:	f8c4 30c0 	str.w	r3, [r4, #192]	; 0xc0
 800379e:	f8d4 20ac 	ldr.w	r2, [r4, #172]	; 0xac
 80037a2:	2110      	movs	r1, #16
 80037a4:	4620      	mov	r0, r4
 80037a6:	f7ff fc6f 	bl	8003088 <tcpSendSegment>
 80037aa:	4620      	mov	r0, r4
 80037ac:	f7ff fbae 	bl	8002f0c <tcpUpdateEvents>
 80037b0:	e7e0      	b.n	8003774 <tcpProcessSegmentData+0x66>

080037b2 <tcpDumpHeader>:
 80037b2:	4770      	bx	lr

080037b4 <tcpCheckRetransmitTimer>:
 80037b4:	b570      	push	{r4, r5, r6, lr}
 80037b6:	f890 308c 	ldrb.w	r3, [r0, #140]	; 0x8c
 80037ba:	4604      	mov	r4, r0
 80037bc:	2b00      	cmp	r3, #0
 80037be:	d041      	beq.n	8003844 <tcpCheckRetransmitTimer+0x90>
 80037c0:	f8d0 31fc 	ldr.w	r3, [r0, #508]	; 0x1fc
 80037c4:	b3f3      	cbz	r3, 8003844 <tcpCheckRetransmitTimer+0x90>
 80037c6:	f500 7500 	add.w	r5, r0, #512	; 0x200
 80037ca:	4628      	mov	r0, r5
 80037cc:	f7fe fa05 	bl	8001bda <netTimerExpired>
 80037d0:	b3c0      	cbz	r0, 8003844 <tcpCheckRetransmitTimer+0x90>
 80037d2:	f8d4 020c 	ldr.w	r0, [r4, #524]	; 0x20c
 80037d6:	f8d4 10ac 	ldr.w	r1, [r4, #172]	; 0xac
 80037da:	f8b4 209c 	ldrh.w	r2, [r4, #156]	; 0x9c
 80037de:	b948      	cbnz	r0, 80037f4 <tcpCheckRetransmitTimer+0x40>
 80037e0:	f8d4 30a8 	ldr.w	r3, [r4, #168]	; 0xa8
 80037e4:	1acb      	subs	r3, r1, r3
 80037e6:	085b      	lsrs	r3, r3, #1
 80037e8:	0056      	lsls	r6, r2, #1
 80037ea:	42b3      	cmp	r3, r6
 80037ec:	bf38      	it	cc
 80037ee:	4633      	movcc	r3, r6
 80037f0:	f8a4 30e4 	strh.w	r3, [r4, #228]	; 0xe4
 80037f4:	f8d4 3174 	ldr.w	r3, [r4, #372]	; 0x174
 80037f8:	429a      	cmp	r2, r3
 80037fa:	bf28      	it	cs
 80037fc:	461a      	movcs	r2, r3
 80037fe:	1e4b      	subs	r3, r1, #1
 8003800:	f8c4 30f0 	str.w	r3, [r4, #240]	; 0xf0
 8003804:	2804      	cmp	r0, #4
 8003806:	f04f 0302 	mov.w	r3, #2
 800380a:	f8a4 20e2 	strh.w	r2, [r4, #226]	; 0xe2
 800380e:	f884 30e0 	strb.w	r3, [r4, #224]	; 0xe0
 8003812:	4620      	mov	r0, r4
 8003814:	d817      	bhi.n	8003846 <tcpCheckRetransmitTimer+0x92>
 8003816:	f7ff fdf1 	bl	80033fc <tcpRetransmitSegment>
 800381a:	f8d4 10dc 	ldr.w	r1, [r4, #220]	; 0xdc
 800381e:	f64e 2360 	movw	r3, #60000	; 0xea60
 8003822:	0049      	lsls	r1, r1, #1
 8003824:	4299      	cmp	r1, r3
 8003826:	bf28      	it	cs
 8003828:	4619      	movcs	r1, r3
 800382a:	f8c4 10dc 	str.w	r1, [r4, #220]	; 0xdc
 800382e:	4628      	mov	r0, r5
 8003830:	f7fe f9c4 	bl	8001bbc <netStartTimer>
 8003834:	f8d4 320c 	ldr.w	r3, [r4, #524]	; 0x20c
 8003838:	3301      	adds	r3, #1
 800383a:	f8c4 320c 	str.w	r3, [r4, #524]	; 0x20c
 800383e:	2300      	movs	r3, #0
 8003840:	f8c4 30c8 	str.w	r3, [r4, #200]	; 0xc8
 8003844:	bd70      	pop	{r4, r5, r6, pc}
 8003846:	f7ff fd0d 	bl	8003264 <tcpSendResetSegment>
 800384a:	4628      	mov	r0, r5
 800384c:	f7fe f9c0 	bl	8001bd0 <netStopTimer>
 8003850:	2100      	movs	r1, #0
 8003852:	4620      	mov	r0, r4
 8003854:	f7ff fbdb 	bl	800300e <tcpChangeState>
 8003858:	e7f1      	b.n	800383e <tcpCheckRetransmitTimer+0x8a>

0800385a <tcpCheckPersistTimer>:
 800385a:	b573      	push	{r0, r1, r4, r5, r6, lr}
 800385c:	f890 308c 	ldrb.w	r3, [r0, #140]	; 0x8c
 8003860:	4604      	mov	r4, r0
 8003862:	b363      	cbz	r3, 80038be <tcpCheckPersistTimer+0x64>
 8003864:	f8b0 50b2 	ldrh.w	r5, [r0, #178]	; 0xb2
 8003868:	bb4d      	cbnz	r5, 80038be <tcpCheckPersistTimer+0x64>
 800386a:	f8d0 321c 	ldr.w	r3, [r0, #540]	; 0x21c
 800386e:	b333      	cbz	r3, 80038be <tcpCheckPersistTimer+0x64>
 8003870:	f500 7608 	add.w	r6, r0, #544	; 0x220
 8003874:	4630      	mov	r0, r6
 8003876:	f7fe f9b0 	bl	8001bda <netTimerExpired>
 800387a:	b300      	cbz	r0, 80038be <tcpCheckPersistTimer+0x64>
 800387c:	f8d4 3218 	ldr.w	r3, [r4, #536]	; 0x218
 8003880:	2b04      	cmp	r3, #4
 8003882:	d81e      	bhi.n	80038c2 <tcpCheckPersistTimer+0x68>
 8003884:	f8d4 20a8 	ldr.w	r2, [r4, #168]	; 0xa8
 8003888:	f8d4 30c0 	ldr.w	r3, [r4, #192]	; 0xc0
 800388c:	3a01      	subs	r2, #1
 800388e:	2110      	movs	r1, #16
 8003890:	e9cd 5500 	strd	r5, r5, [sp]
 8003894:	4620      	mov	r0, r4
 8003896:	f7ff fbf7 	bl	8003088 <tcpSendSegment>
 800389a:	f8d4 121c 	ldr.w	r1, [r4, #540]	; 0x21c
 800389e:	f64e 2360 	movw	r3, #60000	; 0xea60
 80038a2:	0049      	lsls	r1, r1, #1
 80038a4:	4299      	cmp	r1, r3
 80038a6:	bf28      	it	cs
 80038a8:	4619      	movcs	r1, r3
 80038aa:	f8c4 121c 	str.w	r1, [r4, #540]	; 0x21c
 80038ae:	4630      	mov	r0, r6
 80038b0:	f7fe f984 	bl	8001bbc <netStartTimer>
 80038b4:	f8d4 3218 	ldr.w	r3, [r4, #536]	; 0x218
 80038b8:	3301      	adds	r3, #1
 80038ba:	f8c4 3218 	str.w	r3, [r4, #536]	; 0x218
 80038be:	b002      	add	sp, #8
 80038c0:	bd70      	pop	{r4, r5, r6, pc}
 80038c2:	f8d4 10ac 	ldr.w	r1, [r4, #172]	; 0xac
 80038c6:	4620      	mov	r0, r4
 80038c8:	f7ff fccc 	bl	8003264 <tcpSendResetSegment>
 80038cc:	4629      	mov	r1, r5
 80038ce:	4620      	mov	r0, r4
 80038d0:	b002      	add	sp, #8
 80038d2:	e8bd 4070 	ldmia.w	sp!, {r4, r5, r6, lr}
 80038d6:	f7ff bb9a 	b.w	800300e <tcpChangeState>

080038da <tcpCheckOverrideTimer>:
 80038da:	e92d 41f3 	stmdb	sp!, {r0, r1, r4, r5, r6, r7, r8, lr}
 80038de:	f890 308c 	ldrb.w	r3, [r0, #140]	; 0x8c
 80038e2:	3b04      	subs	r3, #4
 80038e4:	2b01      	cmp	r3, #1
 80038e6:	4604      	mov	r4, r0
 80038e8:	d84f      	bhi.n	800398a <tcpCheckOverrideTimer+0xb0>
 80038ea:	f8b0 30b0 	ldrh.w	r3, [r0, #176]	; 0xb0
 80038ee:	2b00      	cmp	r3, #0
 80038f0:	d04b      	beq.n	800398a <tcpCheckOverrideTimer+0xb0>
 80038f2:	f500 770b 	add.w	r7, r0, #556	; 0x22c
 80038f6:	4638      	mov	r0, r7
 80038f8:	f7fe f96f 	bl	8001bda <netTimerExpired>
 80038fc:	2800      	cmp	r0, #0
 80038fe:	d044      	beq.n	800398a <tcpCheckOverrideTimer+0xb0>
 8003900:	f8b4 50b2 	ldrh.w	r5, [r4, #178]	; 0xb2
 8003904:	f8b4 30e2 	ldrh.w	r3, [r4, #226]	; 0xe2
 8003908:	f8d4 2174 	ldr.w	r2, [r4, #372]	; 0x174
 800390c:	429d      	cmp	r5, r3
 800390e:	bf28      	it	cs
 8003910:	461d      	movcs	r5, r3
 8003912:	e9d4 312a 	ldrd	r3, r1, [r4, #168]	; 0xa8
 8003916:	1a5b      	subs	r3, r3, r1
 8003918:	4295      	cmp	r5, r2
 800391a:	bf94      	ite	ls
 800391c:	195d      	addls	r5, r3, r5
 800391e:	189d      	addhi	r5, r3, r2
 8003920:	f04f 0801 	mov.w	r8, #1
 8003924:	f8b4 30b0 	ldrh.w	r3, [r4, #176]	; 0xb0
 8003928:	b10b      	cbz	r3, 800392e <tcpCheckOverrideTimer+0x54>
 800392a:	2d00      	cmp	r5, #0
 800392c:	dc0d      	bgt.n	800394a <tcpCheckOverrideTimer+0x70>
 800392e:	4620      	mov	r0, r4
 8003930:	f7ff faec 	bl	8002f0c <tcpUpdateEvents>
 8003934:	f8b4 30b0 	ldrh.w	r3, [r4, #176]	; 0xb0
 8003938:	b33b      	cbz	r3, 800398a <tcpCheckOverrideTimer+0xb0>
 800393a:	f44f 71fa 	mov.w	r1, #500	; 0x1f4
 800393e:	4638      	mov	r0, r7
 8003940:	b002      	add	sp, #8
 8003942:	e8bd 41f0 	ldmia.w	sp!, {r4, r5, r6, r7, r8, lr}
 8003946:	f7fe b939 	b.w	8001bbc <netStartTimer>
 800394a:	f8b4 609c 	ldrh.w	r6, [r4, #156]	; 0x9c
 800394e:	f8d4 20ac 	ldr.w	r2, [r4, #172]	; 0xac
 8003952:	429e      	cmp	r6, r3
 8003954:	bf28      	it	cs
 8003956:	461e      	movcs	r6, r3
 8003958:	42ae      	cmp	r6, r5
 800395a:	bf28      	it	cs
 800395c:	462e      	movcs	r6, r5
 800395e:	e9cd 6800 	strd	r6, r8, [sp]
 8003962:	f8d4 30c0 	ldr.w	r3, [r4, #192]	; 0xc0
 8003966:	2118      	movs	r1, #24
 8003968:	4620      	mov	r0, r4
 800396a:	f7ff fb8d 	bl	8003088 <tcpSendSegment>
 800396e:	2800      	cmp	r0, #0
 8003970:	d1dd      	bne.n	800392e <tcpCheckOverrideTimer+0x54>
 8003972:	f8d4 30ac 	ldr.w	r3, [r4, #172]	; 0xac
 8003976:	4433      	add	r3, r6
 8003978:	f8c4 30ac 	str.w	r3, [r4, #172]	; 0xac
 800397c:	f8b4 30b0 	ldrh.w	r3, [r4, #176]	; 0xb0
 8003980:	1b9b      	subs	r3, r3, r6
 8003982:	f8a4 30b0 	strh.w	r3, [r4, #176]	; 0xb0
 8003986:	1bad      	subs	r5, r5, r6
 8003988:	e7cc      	b.n	8003924 <tcpCheckOverrideTimer+0x4a>
 800398a:	b002      	add	sp, #8
 800398c:	e8bd 81f0 	ldmia.w	sp!, {r4, r5, r6, r7, r8, pc}

08003990 <tcpCheckFinWait2Timer>:
 8003990:	b510      	push	{r4, lr}
 8003992:	f890 308c 	ldrb.w	r3, [r0, #140]	; 0x8c
 8003996:	2b08      	cmp	r3, #8
 8003998:	4604      	mov	r4, r0
 800399a:	d10a      	bne.n	80039b2 <tcpCheckFinWait2Timer+0x22>
 800399c:	f500 700e 	add.w	r0, r0, #568	; 0x238
 80039a0:	f7fe f91b 	bl	8001bda <netTimerExpired>
 80039a4:	b128      	cbz	r0, 80039b2 <tcpCheckFinWait2Timer+0x22>
 80039a6:	4620      	mov	r0, r4
 80039a8:	2100      	movs	r1, #0
 80039aa:	e8bd 4010 	ldmia.w	sp!, {r4, lr}
 80039ae:	f7ff bb2e 	b.w	800300e <tcpChangeState>
 80039b2:	bd10      	pop	{r4, pc}

080039b4 <tcpCheckTimeWaitTimer>:
 80039b4:	b538      	push	{r3, r4, r5, lr}
 80039b6:	f890 308c 	ldrb.w	r3, [r0, #140]	; 0x8c
 80039ba:	2b0a      	cmp	r3, #10
 80039bc:	4604      	mov	r4, r0
 80039be:	d10f      	bne.n	80039e0 <tcpCheckTimeWaitTimer+0x2c>
 80039c0:	f500 7011 	add.w	r0, r0, #580	; 0x244
 80039c4:	f7fe f909 	bl	8001bda <netTimerExpired>
 80039c8:	b150      	cbz	r0, 80039e0 <tcpCheckTimeWaitTimer+0x2c>
 80039ca:	2100      	movs	r1, #0
 80039cc:	4620      	mov	r0, r4
 80039ce:	f7ff fb1e 	bl	800300e <tcpChangeState>
 80039d2:	f8d4 5090 	ldr.w	r5, [r4, #144]	; 0x90
 80039d6:	b91d      	cbnz	r5, 80039e0 <tcpCheckTimeWaitTimer+0x2c>
 80039d8:	4620      	mov	r0, r4
 80039da:	f7ff f9a3 	bl	8002d24 <tcpDeleteControlBlock>
 80039de:	6065      	str	r5, [r4, #4]
 80039e0:	bd38      	pop	{r3, r4, r5, pc}
	...

080039e4 <tcpTick>:
 80039e4:	b538      	push	{r3, r4, r5, lr}
 80039e6:	4c0e      	ldr	r4, [pc, #56]	; (8003a20 <tcpTick+0x3c>)
 80039e8:	2500      	movs	r5, #0
 80039ea:	6863      	ldr	r3, [r4, #4]
 80039ec:	2b01      	cmp	r3, #1
 80039ee:	d111      	bne.n	8003a14 <tcpTick+0x30>
 80039f0:	f894 308c 	ldrb.w	r3, [r4, #140]	; 0x8c
 80039f4:	b173      	cbz	r3, 8003a14 <tcpTick+0x30>
 80039f6:	4620      	mov	r0, r4
 80039f8:	f7ff fedc 	bl	80037b4 <tcpCheckRetransmitTimer>
 80039fc:	4620      	mov	r0, r4
 80039fe:	f7ff ff2c 	bl	800385a <tcpCheckPersistTimer>
 8003a02:	4620      	mov	r0, r4
 8003a04:	f7ff ff69 	bl	80038da <tcpCheckOverrideTimer>
 8003a08:	4620      	mov	r0, r4
 8003a0a:	f7ff ffc1 	bl	8003990 <tcpCheckFinWait2Timer>
 8003a0e:	4620      	mov	r0, r4
 8003a10:	f7ff ffd0 	bl	80039b4 <tcpCheckTimeWaitTimer>
 8003a14:	3501      	adds	r5, #1
 8003a16:	2d0a      	cmp	r5, #10
 8003a18:	f504 741f 	add.w	r4, r4, #636	; 0x27c
 8003a1c:	d1e5      	bne.n	80039ea <tcpTick+0x6>
 8003a1e:	bd38      	pop	{r3, r4, r5, pc}
 8003a20:	2000907c 	.word	0x2000907c

08003a24 <udpInit>:
 8003a24:	b510      	push	{r4, lr}
 8003a26:	4b05      	ldr	r3, [pc, #20]	; (8003a3c <udpInit+0x18>)
 8003a28:	4805      	ldr	r0, [pc, #20]	; (8003a40 <udpInit+0x1c>)
 8003a2a:	2400      	movs	r4, #0
 8003a2c:	22a0      	movs	r2, #160	; 0xa0
 8003a2e:	4621      	mov	r1, r4
 8003a30:	801c      	strh	r4, [r3, #0]
 8003a32:	f005 fd9c 	bl	800956e <memset>
 8003a36:	4620      	mov	r0, r4
 8003a38:	bd10      	pop	{r4, pc}
 8003a3a:	bf00      	nop
 8003a3c:	20000302 	.word	0x20000302
 8003a40:	2000a958 	.word	0x2000a958

08003a44 <udpSendBuffer>:
 8003a44:	e92d 47f0 	stmdb	sp!, {r4, r5, r6, r7, r8, r9, sl, lr}
 8003a48:	b08a      	sub	sp, #40	; 0x28
 8003a4a:	e9dd 9513 	ldrd	r9, r5, [sp, #76]	; 0x4c
 8003a4e:	9003      	str	r0, [sp, #12]
 8003a50:	4648      	mov	r0, r9
 8003a52:	4688      	mov	r8, r1
 8003a54:	4692      	mov	sl, r2
 8003a56:	461f      	mov	r7, r3
 8003a58:	f7fd fe00 	bl	800165c <netBufferGetLength>
 8003a5c:	3d08      	subs	r5, #8
 8003a5e:	4606      	mov	r6, r0
 8003a60:	4629      	mov	r1, r5
 8003a62:	4648      	mov	r0, r9
 8003a64:	f7fd fe8b 	bl	800177e <netBufferAt>
 8003a68:	4604      	mov	r4, r0
 8003a6a:	b918      	cbnz	r0, 8003a74 <udpSendBuffer+0x30>
 8003a6c:	2001      	movs	r0, #1
 8003a6e:	b00a      	add	sp, #40	; 0x28
 8003a70:	e8bd 87f0 	ldmia.w	sp!, {r4, r5, r6, r7, r8, r9, sl, pc}
 8003a74:	4650      	mov	r0, sl
 8003a76:	f7fd f866 	bl	8000b46 <swapInt16>
 8003a7a:	8020      	strh	r0, [r4, #0]
 8003a7c:	f8bd 0048 	ldrh.w	r0, [sp, #72]	; 0x48
 8003a80:	f7fd f861 	bl	8000b46 <swapInt16>
 8003a84:	1b76      	subs	r6, r6, r5
 8003a86:	fa1f fa86 	uxth.w	sl, r6
 8003a8a:	8060      	strh	r0, [r4, #2]
 8003a8c:	4650      	mov	r0, sl
 8003a8e:	f7fd f85a 	bl	8000b46 <swapInt16>
 8003a92:	2300      	movs	r3, #0
 8003a94:	71a3      	strb	r3, [r4, #6]
 8003a96:	71e3      	strb	r3, [r4, #7]
 8003a98:	683b      	ldr	r3, [r7, #0]
 8003a9a:	80a0      	strh	r0, [r4, #4]
 8003a9c:	2b04      	cmp	r3, #4
 8003a9e:	d1e5      	bne.n	8003a6c <udpSendBuffer+0x28>
 8003aa0:	f1b8 0f00 	cmp.w	r8, #0
 8003aa4:	d027      	beq.n	8003af6 <udpSendBuffer+0xb2>
 8003aa6:	f8d8 3000 	ldr.w	r3, [r8]
 8003aaa:	2b04      	cmp	r3, #4
 8003aac:	d123      	bne.n	8003af6 <udpSendBuffer+0xb2>
 8003aae:	f8d8 3004 	ldr.w	r3, [r8, #4]
 8003ab2:	9307      	str	r3, [sp, #28]
 8003ab4:	687b      	ldr	r3, [r7, #4]
 8003ab6:	9308      	str	r3, [sp, #32]
 8003ab8:	f04f 080c 	mov.w	r8, #12
 8003abc:	f44f 5388 	mov.w	r3, #4352	; 0x1100
 8003ac0:	4650      	mov	r0, sl
 8003ac2:	f8ad 3024 	strh.w	r3, [sp, #36]	; 0x24
 8003ac6:	f8cd 8018 	str.w	r8, [sp, #24]
 8003aca:	f7fd f83c 	bl	8000b46 <swapInt16>
 8003ace:	9600      	str	r6, [sp, #0]
 8003ad0:	f8ad 0026 	strh.w	r0, [sp, #38]	; 0x26
 8003ad4:	462b      	mov	r3, r5
 8003ad6:	464a      	mov	r2, r9
 8003ad8:	4641      	mov	r1, r8
 8003ada:	a807      	add	r0, sp, #28
 8003adc:	f7fd fbcf 	bl	800127e <ipCalcUpperLayerChecksumEx>
 8003ae0:	b1c8      	cbz	r0, 8003b16 <udpSendBuffer+0xd2>
 8003ae2:	80e0      	strh	r0, [r4, #6]
 8003ae4:	9b15      	ldr	r3, [sp, #84]	; 0x54
 8003ae6:	9300      	str	r3, [sp, #0]
 8003ae8:	9803      	ldr	r0, [sp, #12]
 8003aea:	462b      	mov	r3, r5
 8003aec:	464a      	mov	r2, r9
 8003aee:	a906      	add	r1, sp, #24
 8003af0:	f7fd fb38 	bl	8001164 <ipSendDatagram>
 8003af4:	e7bb      	b.n	8003a6e <udpSendBuffer+0x2a>
 8003af6:	6879      	ldr	r1, [r7, #4]
 8003af8:	aa05      	add	r2, sp, #20
 8003afa:	a803      	add	r0, sp, #12
 8003afc:	f002 ff96 	bl	8006a2c <ipv4SelectSourceAddr>
 8003b00:	b908      	cbnz	r0, 8003b06 <udpSendBuffer+0xc2>
 8003b02:	9b05      	ldr	r3, [sp, #20]
 8003b04:	e7d5      	b.n	8003ab2 <udpSendBuffer+0x6e>
 8003b06:	687b      	ldr	r3, [r7, #4]
 8003b08:	3301      	adds	r3, #1
 8003b0a:	d1b0      	bne.n	8003a6e <udpSendBuffer+0x2a>
 8003b0c:	9b03      	ldr	r3, [sp, #12]
 8003b0e:	2b00      	cmp	r3, #0
 8003b10:	d0ad      	beq.n	8003a6e <udpSendBuffer+0x2a>
 8003b12:	2300      	movs	r3, #0
 8003b14:	e7cd      	b.n	8003ab2 <udpSendBuffer+0x6e>
 8003b16:	f04f 33ff 	mov.w	r3, #4294967295	; 0xffffffff
 8003b1a:	71a3      	strb	r3, [r4, #6]
 8003b1c:	71e3      	strb	r3, [r4, #7]
 8003b1e:	e7e1      	b.n	8003ae4 <udpSendBuffer+0xa0>

08003b20 <udpAllocBuffer>:
 8003b20:	b510      	push	{r4, lr}
 8003b22:	3008      	adds	r0, #8
 8003b24:	460c      	mov	r4, r1
 8003b26:	f7fd fbbf 	bl	80012a8 <ipAllocBuffer>
 8003b2a:	b110      	cbz	r0, 8003b32 <udpAllocBuffer+0x12>
 8003b2c:	6823      	ldr	r3, [r4, #0]
 8003b2e:	3308      	adds	r3, #8
 8003b30:	6023      	str	r3, [r4, #0]
 8003b32:	bd10      	pop	{r4, pc}

08003b34 <udpUpdateEvents>:
 8003b34:	2300      	movs	r3, #0
 8003b36:	b510      	push	{r4, lr}
 8003b38:	f8c0 3084 	str.w	r3, [r0, #132]	; 0x84
 8003b3c:	f8d0 3278 	ldr.w	r3, [r0, #632]	; 0x278
 8003b40:	4604      	mov	r4, r0
 8003b42:	b113      	cbz	r3, 8003b4a <udpUpdateEvents+0x16>
 8003b44:	2380      	movs	r3, #128	; 0x80
 8003b46:	f8c0 3084 	str.w	r3, [r0, #132]	; 0x84
 8003b4a:	68e2      	ldr	r2, [r4, #12]
 8003b4c:	b142      	cbz	r2, 8003b60 <udpUpdateEvents+0x2c>
 8003b4e:	f8d2 20a8 	ldr.w	r2, [r2, #168]	; 0xa8
 8003b52:	f8d4 3084 	ldr.w	r3, [r4, #132]	; 0x84
 8003b56:	b1a2      	cbz	r2, 8003b82 <udpUpdateEvents+0x4e>
 8003b58:	f443 7300 	orr.w	r3, r3, #512	; 0x200
 8003b5c:	f8c4 3084 	str.w	r3, [r4, #132]	; 0x84
 8003b60:	e9d4 2320 	ldrd	r2, r3, [r4, #128]	; 0x80
 8003b64:	4013      	ands	r3, r2
 8003b66:	f8c4 3084 	str.w	r3, [r4, #132]	; 0x84
 8003b6a:	b16b      	cbz	r3, 8003b88 <udpUpdateEvents+0x54>
 8003b6c:	f104 0034 	add.w	r0, r4, #52	; 0x34
 8003b70:	f7fd f871 	bl	8000c56 <osSetEvent>
 8003b74:	f8d4 0088 	ldr.w	r0, [r4, #136]	; 0x88
 8003b78:	b130      	cbz	r0, 8003b88 <udpUpdateEvents+0x54>
 8003b7a:	e8bd 4010 	ldmia.w	sp!, {r4, lr}
 8003b7e:	f7fd b86a 	b.w	8000c56 <osSetEvent>
 8003b82:	f443 6380 	orr.w	r3, r3, #1024	; 0x400
 8003b86:	e7e9      	b.n	8003b5c <udpUpdateEvents+0x28>
 8003b88:	bd10      	pop	{r4, pc}
	...

08003b8c <udpAttachRxCallback>:
 8003b8c:	b5f0      	push	{r4, r5, r6, r7, lr}
 8003b8e:	4e0a      	ldr	r6, [pc, #40]	; (8003bb8 <udpAttachRxCallback+0x2c>)
 8003b90:	2400      	movs	r4, #0
 8003b92:	4637      	mov	r7, r6
 8003b94:	68b5      	ldr	r5, [r6, #8]
 8003b96:	b945      	cbnz	r5, 8003baa <udpAttachRxCallback+0x1e>
 8003b98:	0126      	lsls	r6, r4, #4
 8003b9a:	eb07 1404 	add.w	r4, r7, r4, lsl #4
 8003b9e:	e9c4 2302 	strd	r2, r3, [r4, #8]
 8003ba2:	51b8      	str	r0, [r7, r6]
 8003ba4:	80a1      	strh	r1, [r4, #4]
 8003ba6:	4628      	mov	r0, r5
 8003ba8:	bdf0      	pop	{r4, r5, r6, r7, pc}
 8003baa:	3401      	adds	r4, #1
 8003bac:	2c0a      	cmp	r4, #10
 8003bae:	f106 0610 	add.w	r6, r6, #16
 8003bb2:	d1ef      	bne.n	8003b94 <udpAttachRxCallback+0x8>
 8003bb4:	2065      	movs	r0, #101	; 0x65
 8003bb6:	e7f7      	b.n	8003ba8 <udpAttachRxCallback+0x1c>
 8003bb8:	2000a958 	.word	0x2000a958

08003bbc <udpDetachRxCallback>:
 8003bbc:	2200      	movs	r2, #0
 8003bbe:	4b0a      	ldr	r3, [pc, #40]	; (8003be8 <udpDetachRxCallback+0x2c>)
 8003bc0:	b570      	push	{r4, r5, r6, lr}
 8003bc2:	2401      	movs	r4, #1
 8003bc4:	4615      	mov	r5, r2
 8003bc6:	689e      	ldr	r6, [r3, #8]
 8003bc8:	b13e      	cbz	r6, 8003bda <udpDetachRxCallback+0x1e>
 8003bca:	889e      	ldrh	r6, [r3, #4]
 8003bcc:	428e      	cmp	r6, r1
 8003bce:	d104      	bne.n	8003bda <udpDetachRxCallback+0x1e>
 8003bd0:	681e      	ldr	r6, [r3, #0]
 8003bd2:	4286      	cmp	r6, r0
 8003bd4:	bf04      	itt	eq
 8003bd6:	609d      	streq	r5, [r3, #8]
 8003bd8:	2400      	moveq	r4, #0
 8003bda:	3201      	adds	r2, #1
 8003bdc:	2a0a      	cmp	r2, #10
 8003bde:	f103 0310 	add.w	r3, r3, #16
 8003be2:	d1f0      	bne.n	8003bc6 <udpDetachRxCallback+0xa>
 8003be4:	4620      	mov	r0, r4
 8003be6:	bd70      	pop	{r4, r5, r6, pc}
 8003be8:	2000a958 	.word	0x2000a958

08003bec <udpInvokeRxCallback>:
 8003bec:	e92d 4ff0 	stmdb	sp!, {r4, r5, r6, r7, r8, r9, sl, fp, lr}
 8003bf0:	4c14      	ldr	r4, [pc, #80]	; (8003c44 <udpInvokeRxCallback+0x58>)
 8003bf2:	b085      	sub	sp, #20
 8003bf4:	4680      	mov	r8, r0
 8003bf6:	468a      	mov	sl, r1
 8003bf8:	4691      	mov	r9, r2
 8003bfa:	461d      	mov	r5, r3
 8003bfc:	f104 0ba0 	add.w	fp, r4, #160	; 0xa0
 8003c00:	27d2      	movs	r7, #210	; 0xd2
 8003c02:	68a2      	ldr	r2, [r4, #8]
 8003c04:	b1ba      	cbz	r2, 8003c36 <udpInvokeRxCallback+0x4a>
 8003c06:	6822      	ldr	r2, [r4, #0]
 8003c08:	b10a      	cbz	r2, 8003c0e <udpInvokeRxCallback+0x22>
 8003c0a:	4542      	cmp	r2, r8
 8003c0c:	d113      	bne.n	8003c36 <udpInvokeRxCallback+0x4a>
 8003c0e:	f8b9 0002 	ldrh.w	r0, [r9, #2]
 8003c12:	88a6      	ldrh	r6, [r4, #4]
 8003c14:	f7fc ff97 	bl	8000b46 <swapInt16>
 8003c18:	4286      	cmp	r6, r0
 8003c1a:	d10c      	bne.n	8003c36 <udpInvokeRxCallback+0x4a>
 8003c1c:	9b0f      	ldr	r3, [sp, #60]	; 0x3c
 8003c1e:	68e2      	ldr	r2, [r4, #12]
 8003c20:	9301      	str	r3, [sp, #4]
 8003c22:	9b0e      	ldr	r3, [sp, #56]	; 0x38
 8003c24:	68a7      	ldr	r7, [r4, #8]
 8003c26:	9202      	str	r2, [sp, #8]
 8003c28:	9300      	str	r3, [sp, #0]
 8003c2a:	464a      	mov	r2, r9
 8003c2c:	462b      	mov	r3, r5
 8003c2e:	4651      	mov	r1, sl
 8003c30:	4640      	mov	r0, r8
 8003c32:	47b8      	blx	r7
 8003c34:	2700      	movs	r7, #0
 8003c36:	3410      	adds	r4, #16
 8003c38:	455c      	cmp	r4, fp
 8003c3a:	d1e2      	bne.n	8003c02 <udpInvokeRxCallback+0x16>
 8003c3c:	4638      	mov	r0, r7
 8003c3e:	b005      	add	sp, #20
 8003c40:	e8bd 8ff0 	ldmia.w	sp!, {r4, r5, r6, r7, r8, r9, sl, fp, pc}
 8003c44:	2000a958 	.word	0x2000a958

08003c48 <udpProcessDatagram>:
 8003c48:	e92d 4ff0 	stmdb	sp!, {r4, r5, r6, r7, r8, r9, sl, fp, lr}
 8003c4c:	4682      	mov	sl, r0
 8003c4e:	b085      	sub	sp, #20
 8003c50:	4610      	mov	r0, r2
 8003c52:	461f      	mov	r7, r3
 8003c54:	460d      	mov	r5, r1
 8003c56:	4691      	mov	r9, r2
 8003c58:	f7fd fd00 	bl	800165c <netBufferGetLength>
 8003c5c:	1bc6      	subs	r6, r0, r7
 8003c5e:	2e07      	cmp	r6, #7
 8003c60:	f240 80c2 	bls.w	8003de8 <udpProcessDatagram+0x1a0>
 8003c64:	4639      	mov	r1, r7
 8003c66:	4648      	mov	r0, r9
 8003c68:	f7fd fd89 	bl	800177e <netBufferAt>
 8003c6c:	4680      	mov	r8, r0
 8003c6e:	2800      	cmp	r0, #0
 8003c70:	f000 80bc 	beq.w	8003dec <udpProcessDatagram+0x1a4>
 8003c74:	88c3      	ldrh	r3, [r0, #6]
 8003c76:	6829      	ldr	r1, [r5, #0]
 8003c78:	b9eb      	cbnz	r3, 8003cb6 <udpProcessDatagram+0x6e>
 8003c7a:	2928      	cmp	r1, #40	; 0x28
 8003c7c:	d01b      	beq.n	8003cb6 <udpProcessDatagram+0x6e>
 8003c7e:	4c5d      	ldr	r4, [pc, #372]	; (8003df4 <udpProcessDatagram+0x1ac>)
 8003c80:	2300      	movs	r3, #0
 8003c82:	6862      	ldr	r2, [r4, #4]
 8003c84:	2a02      	cmp	r2, #2
 8003c86:	46a3      	mov	fp, r4
 8003c88:	d01f      	beq.n	8003cca <udpProcessDatagram+0x82>
 8003c8a:	3301      	adds	r3, #1
 8003c8c:	2b0a      	cmp	r3, #10
 8003c8e:	f504 741f 	add.w	r4, r4, #636	; 0x27c
 8003c92:	d1f6      	bne.n	8003c82 <udpProcessDatagram+0x3a>
 8003c94:	f107 0208 	add.w	r2, r7, #8
 8003c98:	2b0a      	cmp	r3, #10
 8003c9a:	9202      	str	r2, [sp, #8]
 8003c9c:	d148      	bne.n	8003d30 <udpProcessDatagram+0xe8>
 8003c9e:	9b0e      	ldr	r3, [sp, #56]	; 0x38
 8003ca0:	9301      	str	r3, [sp, #4]
 8003ca2:	9200      	str	r2, [sp, #0]
 8003ca4:	464b      	mov	r3, r9
 8003ca6:	4642      	mov	r2, r8
 8003ca8:	4629      	mov	r1, r5
 8003caa:	4650      	mov	r0, sl
 8003cac:	f7ff ff9e 	bl	8003bec <udpInvokeRxCallback>
 8003cb0:	b005      	add	sp, #20
 8003cb2:	e8bd 8ff0 	ldmia.w	sp!, {r4, r5, r6, r7, r8, r9, sl, fp, pc}
 8003cb6:	9600      	str	r6, [sp, #0]
 8003cb8:	463b      	mov	r3, r7
 8003cba:	464a      	mov	r2, r9
 8003cbc:	1d28      	adds	r0, r5, #4
 8003cbe:	f7fd fade 	bl	800127e <ipCalcUpperLayerChecksumEx>
 8003cc2:	2800      	cmp	r0, #0
 8003cc4:	d0db      	beq.n	8003c7e <udpProcessDatagram+0x36>
 8003cc6:	20d5      	movs	r0, #213	; 0xd5
 8003cc8:	e7f2      	b.n	8003cb0 <udpProcessDatagram+0x68>
 8003cca:	68e2      	ldr	r2, [r4, #12]
 8003ccc:	b10a      	cbz	r2, 8003cd2 <udpProcessDatagram+0x8a>
 8003cce:	4552      	cmp	r2, sl
 8003cd0:	d1db      	bne.n	8003c8a <udpProcessDatagram+0x42>
 8003cd2:	8b22      	ldrh	r2, [r4, #24]
 8003cd4:	9203      	str	r2, [sp, #12]
 8003cd6:	2a00      	cmp	r2, #0
 8003cd8:	d0d7      	beq.n	8003c8a <udpProcessDatagram+0x42>
 8003cda:	9302      	str	r3, [sp, #8]
 8003cdc:	f8b8 0002 	ldrh.w	r0, [r8, #2]
 8003ce0:	f7fc ff31 	bl	8000b46 <swapInt16>
 8003ce4:	9a03      	ldr	r2, [sp, #12]
 8003ce6:	9b02      	ldr	r3, [sp, #8]
 8003ce8:	4282      	cmp	r2, r0
 8003cea:	d1ce      	bne.n	8003c8a <udpProcessDatagram+0x42>
 8003cec:	8ca2      	ldrh	r2, [r4, #36]	; 0x24
 8003cee:	b9a2      	cbnz	r2, 8003d1a <udpProcessDatagram+0xd2>
 8003cf0:	682a      	ldr	r2, [r5, #0]
 8003cf2:	2a0c      	cmp	r2, #12
 8003cf4:	d1c9      	bne.n	8003c8a <udpProcessDatagram+0x42>
 8003cf6:	6922      	ldr	r2, [r4, #16]
 8003cf8:	b12a      	cbz	r2, 8003d06 <udpProcessDatagram+0xbe>
 8003cfa:	2a04      	cmp	r2, #4
 8003cfc:	d1c5      	bne.n	8003c8a <udpProcessDatagram+0x42>
 8003cfe:	6961      	ldr	r1, [r4, #20]
 8003d00:	68aa      	ldr	r2, [r5, #8]
 8003d02:	4291      	cmp	r1, r2
 8003d04:	d1c1      	bne.n	8003c8a <udpProcessDatagram+0x42>
 8003d06:	69e2      	ldr	r2, [r4, #28]
 8003d08:	2a00      	cmp	r2, #0
 8003d0a:	d0c3      	beq.n	8003c94 <udpProcessDatagram+0x4c>
 8003d0c:	2a04      	cmp	r2, #4
 8003d0e:	d1bc      	bne.n	8003c8a <udpProcessDatagram+0x42>
 8003d10:	6a21      	ldr	r1, [r4, #32]
 8003d12:	686a      	ldr	r2, [r5, #4]
 8003d14:	4291      	cmp	r1, r2
 8003d16:	d0bd      	beq.n	8003c94 <udpProcessDatagram+0x4c>
 8003d18:	e7b7      	b.n	8003c8a <udpProcessDatagram+0x42>
 8003d1a:	f8b8 0000 	ldrh.w	r0, [r8]
 8003d1e:	e9cd 2302 	strd	r2, r3, [sp, #8]
 8003d22:	f7fc ff10 	bl	8000b46 <swapInt16>
 8003d26:	9a02      	ldr	r2, [sp, #8]
 8003d28:	9b03      	ldr	r3, [sp, #12]
 8003d2a:	4282      	cmp	r2, r0
 8003d2c:	d0e0      	beq.n	8003cf0 <udpProcessDatagram+0xa8>
 8003d2e:	e7ac      	b.n	8003c8a <udpProcessDatagram+0x42>
 8003d30:	f8db 7278 	ldr.w	r7, [fp, #632]	; 0x278
 8003d34:	2f00      	cmp	r7, #0
 8003d36:	d155      	bne.n	8003de4 <udpProcessDatagram+0x19c>
 8003d38:	f106 002c 	add.w	r0, r6, #44	; 0x2c
 8003d3c:	f7fd fd02 	bl	8001744 <netBufferAlloc>
 8003d40:	b908      	cbnz	r0, 8003d46 <udpProcessDatagram+0xfe>
 8003d42:	2064      	movs	r0, #100	; 0x64
 8003d44:	e7b4      	b.n	8003cb0 <udpProcessDatagram+0x68>
 8003d46:	4639      	mov	r1, r7
 8003d48:	9003      	str	r0, [sp, #12]
 8003d4a:	f7fd fd18 	bl	800177e <netBufferAt>
 8003d4e:	9a03      	ldr	r2, [sp, #12]
 8003d50:	61c2      	str	r2, [r0, #28]
 8003d52:	4604      	mov	r4, r0
 8003d54:	f8cb 0278 	str.w	r0, [fp, #632]	; 0x278
 8003d58:	2300      	movs	r3, #0
 8003d5a:	e9c4 3a00 	strd	r3, sl, [r4]
 8003d5e:	f8b8 0000 	ldrh.w	r0, [r8]
 8003d62:	f7fc fef0 	bl	8000b46 <swapInt16>
 8003d66:	682b      	ldr	r3, [r5, #0]
 8003d68:	8220      	strh	r0, [r4, #16]
 8003d6a:	2b0c      	cmp	r3, #12
 8003d6c:	d106      	bne.n	8003d7c <udpProcessDatagram+0x134>
 8003d6e:	2304      	movs	r3, #4
 8003d70:	686a      	ldr	r2, [r5, #4]
 8003d72:	60a3      	str	r3, [r4, #8]
 8003d74:	6163      	str	r3, [r4, #20]
 8003d76:	68ab      	ldr	r3, [r5, #8]
 8003d78:	60e2      	str	r2, [r4, #12]
 8003d7a:	61a3      	str	r3, [r4, #24]
 8003d7c:	2134      	movs	r1, #52	; 0x34
 8003d7e:	3e08      	subs	r6, #8
 8003d80:	6221      	str	r1, [r4, #32]
 8003d82:	9600      	str	r6, [sp, #0]
 8003d84:	9b02      	ldr	r3, [sp, #8]
 8003d86:	69e0      	ldr	r0, [r4, #28]
 8003d88:	464a      	mov	r2, r9
 8003d8a:	f7fd fd4d 	bl	8001828 <netBufferCopy>
 8003d8e:	9b0e      	ldr	r3, [sp, #56]	; 0x38
 8003d90:	3424      	adds	r4, #36	; 0x24
 8003d92:	f103 0508 	add.w	r5, r3, #8
 8003d96:	6818      	ldr	r0, [r3, #0]
 8003d98:	6859      	ldr	r1, [r3, #4]
 8003d9a:	4622      	mov	r2, r4
 8003d9c:	c203      	stmia	r2!, {r0, r1}
 8003d9e:	3308      	adds	r3, #8
 8003da0:	42ab      	cmp	r3, r5
 8003da2:	4614      	mov	r4, r2
 8003da4:	d1f7      	bne.n	8003d96 <udpProcessDatagram+0x14e>
 8003da6:	6818      	ldr	r0, [r3, #0]
 8003da8:	6010      	str	r0, [r2, #0]
 8003daa:	791b      	ldrb	r3, [r3, #4]
 8003dac:	7113      	strb	r3, [r2, #4]
 8003dae:	4658      	mov	r0, fp
 8003db0:	f7ff fec0 	bl	8003b34 <udpUpdateEvents>
 8003db4:	2000      	movs	r0, #0
 8003db6:	e77b      	b.n	8003cb0 <udpProcessDatagram+0x68>
 8003db8:	3201      	adds	r2, #1
 8003dba:	4627      	mov	r7, r4
 8003dbc:	683c      	ldr	r4, [r7, #0]
 8003dbe:	2c00      	cmp	r4, #0
 8003dc0:	d1fa      	bne.n	8003db8 <udpProcessDatagram+0x170>
 8003dc2:	2a03      	cmp	r2, #3
 8003dc4:	d814      	bhi.n	8003df0 <udpProcessDatagram+0x1a8>
 8003dc6:	f106 002c 	add.w	r0, r6, #44	; 0x2c
 8003dca:	f7fd fcbb 	bl	8001744 <netBufferAlloc>
 8003dce:	9003      	str	r0, [sp, #12]
 8003dd0:	2800      	cmp	r0, #0
 8003dd2:	d0b6      	beq.n	8003d42 <udpProcessDatagram+0xfa>
 8003dd4:	4621      	mov	r1, r4
 8003dd6:	f7fd fcd2 	bl	800177e <netBufferAt>
 8003dda:	9a03      	ldr	r2, [sp, #12]
 8003ddc:	6038      	str	r0, [r7, #0]
 8003dde:	4604      	mov	r4, r0
 8003de0:	61c2      	str	r2, [r0, #28]
 8003de2:	e7b9      	b.n	8003d58 <udpProcessDatagram+0x110>
 8003de4:	2201      	movs	r2, #1
 8003de6:	e7e9      	b.n	8003dbc <udpProcessDatagram+0x174>
 8003de8:	20d4      	movs	r0, #212	; 0xd4
 8003dea:	e761      	b.n	8003cb0 <udpProcessDatagram+0x68>
 8003dec:	2001      	movs	r0, #1
 8003dee:	e75f      	b.n	8003cb0 <udpProcessDatagram+0x68>
 8003df0:	20db      	movs	r0, #219	; 0xdb
 8003df2:	e75d      	b.n	8003cb0 <udpProcessDatagram+0x68>
 8003df4:	2000907c 	.word	0x2000907c

08003df8 <dhcpClientStateInit>:
 8003df8:	6a83      	ldr	r3, [r0, #40]	; 0x28
 8003dfa:	b513      	push	{r0, r1, r4, lr}
 8003dfc:	4604      	mov	r4, r0
 8003dfe:	b1b3      	cbz	r3, 8003e2e <dhcpClientStateInit+0x36>
 8003e00:	6803      	ldr	r3, [r0, #0]
 8003e02:	f8d3 30a8 	ldr.w	r3, [r3, #168]	; 0xa8
 8003e06:	b193      	cbz	r3, 8003e2e <dhcpClientStateInit+0x36>
 8003e08:	f44f 61fa 	mov.w	r1, #2000	; 0x7d0
 8003e0c:	2000      	movs	r0, #0
 8003e0e:	f7fd ffa5 	bl	8001d5c <netGetRandRange>
 8003e12:	9001      	str	r0, [sp, #4]
 8003e14:	f7fc ff49 	bl	8000caa <osGetSystemTime>
 8003e18:	9a01      	ldr	r2, [sp, #4]
 8003e1a:	6520      	str	r0, [r4, #80]	; 0x50
 8003e1c:	2300      	movs	r3, #0
 8003e1e:	2101      	movs	r1, #1
 8003e20:	4620      	mov	r0, r4
 8003e22:	6323      	str	r3, [r4, #48]	; 0x30
 8003e24:	b002      	add	sp, #8
 8003e26:	e8bd 4010 	ldmia.w	sp!, {r4, lr}
 8003e2a:	f000 bbdf 	b.w	80045ec <dhcpClientChangeState>
 8003e2e:	b002      	add	sp, #8
 8003e30:	bd10      	pop	{r4, pc}
	...

08003e34 <dhcpClientStateSelecting>:
 8003e34:	b538      	push	{r3, r4, r5, lr}
 8003e36:	4604      	mov	r4, r0
 8003e38:	f7fc ff37 	bl	8000caa <osGetSystemTime>
 8003e3c:	e9d4 320d 	ldrd	r3, r2, [r4, #52]	; 0x34
 8003e40:	4413      	add	r3, r2
 8003e42:	1ac3      	subs	r3, r0, r3
 8003e44:	2b00      	cmp	r3, #0
 8003e46:	4605      	mov	r5, r0
 8003e48:	db16      	blt.n	8003e78 <dhcpClientStateSelecting+0x44>
 8003e4a:	6c23      	ldr	r3, [r4, #64]	; 0x40
 8003e4c:	b9cb      	cbnz	r3, 8003e82 <dhcpClientStateSelecting+0x4e>
 8003e4e:	f7fd ff6f 	bl	8001d30 <netGetRand>
 8003e52:	64e0      	str	r0, [r4, #76]	; 0x4c
 8003e54:	4620      	mov	r0, r4
 8003e56:	f000 fa4b 	bl	80042f0 <dhcpClientSendDiscover>
 8003e5a:	f44f 637a 	mov.w	r3, #4000	; 0xfa0
 8003e5e:	63e3      	str	r3, [r4, #60]	; 0x3c
 8003e60:	6365      	str	r5, [r4, #52]	; 0x34
 8003e62:	480d      	ldr	r0, [pc, #52]	; (8003e98 <dhcpClientStateSelecting+0x64>)
 8003e64:	6be5      	ldr	r5, [r4, #60]	; 0x3c
 8003e66:	f44f 717a 	mov.w	r1, #1000	; 0x3e8
 8003e6a:	f7fd ff77 	bl	8001d5c <netGetRandRange>
 8003e6e:	6c23      	ldr	r3, [r4, #64]	; 0x40
 8003e70:	4428      	add	r0, r5
 8003e72:	3301      	adds	r3, #1
 8003e74:	63a0      	str	r0, [r4, #56]	; 0x38
 8003e76:	6423      	str	r3, [r4, #64]	; 0x40
 8003e78:	4620      	mov	r0, r4
 8003e7a:	e8bd 4038 	ldmia.w	sp!, {r3, r4, r5, lr}
 8003e7e:	f000 ba05 	b.w	800428c <dhcpClientCheckTimeout>
 8003e82:	4620      	mov	r0, r4
 8003e84:	f000 fa34 	bl	80042f0 <dhcpClientSendDiscover>
 8003e88:	6be3      	ldr	r3, [r4, #60]	; 0x3c
 8003e8a:	005b      	lsls	r3, r3, #1
 8003e8c:	f5b3 5f7a 	cmp.w	r3, #16000	; 0x3e80
 8003e90:	bf88      	it	hi
 8003e92:	f44f 537a 	movhi.w	r3, #16000	; 0x3e80
 8003e96:	e7e2      	b.n	8003e5e <dhcpClientStateSelecting+0x2a>
 8003e98:	fffffc18 	.word	0xfffffc18

08003e9c <dhcpClientStateRequesting>:
 8003e9c:	b538      	push	{r3, r4, r5, lr}
 8003e9e:	4604      	mov	r4, r0
 8003ea0:	f7fc ff03 	bl	8000caa <osGetSystemTime>
 8003ea4:	e9d4 320d 	ldrd	r3, r2, [r4, #52]	; 0x34
 8003ea8:	4413      	add	r3, r2
 8003eaa:	1ac3      	subs	r3, r0, r3
 8003eac:	2b00      	cmp	r3, #0
 8003eae:	4605      	mov	r5, r0
 8003eb0:	db16      	blt.n	8003ee0 <dhcpClientStateRequesting+0x44>
 8003eb2:	6c23      	ldr	r3, [r4, #64]	; 0x40
 8003eb4:	b9cb      	cbnz	r3, 8003eea <dhcpClientStateRequesting+0x4e>
 8003eb6:	f7fd ff3b 	bl	8001d30 <netGetRand>
 8003eba:	64e0      	str	r0, [r4, #76]	; 0x4c
 8003ebc:	4620      	mov	r0, r4
 8003ebe:	f000 fab3 	bl	8004428 <dhcpClientSendRequest>
 8003ec2:	f44f 637a 	mov.w	r3, #4000	; 0xfa0
 8003ec6:	4817      	ldr	r0, [pc, #92]	; (8003f24 <dhcpClientStateRequesting+0x88>)
 8003ec8:	63e3      	str	r3, [r4, #60]	; 0x3c
 8003eca:	6365      	str	r5, [r4, #52]	; 0x34
 8003ecc:	f44f 717a 	mov.w	r1, #1000	; 0x3e8
 8003ed0:	f7fd ff44 	bl	8001d5c <netGetRandRange>
 8003ed4:	f500 607a 	add.w	r0, r0, #4000	; 0xfa0
 8003ed8:	6c23      	ldr	r3, [r4, #64]	; 0x40
 8003eda:	63a0      	str	r0, [r4, #56]	; 0x38
 8003edc:	3301      	adds	r3, #1
 8003ede:	6423      	str	r3, [r4, #64]	; 0x40
 8003ee0:	4620      	mov	r0, r4
 8003ee2:	e8bd 4038 	ldmia.w	sp!, {r3, r4, r5, lr}
 8003ee6:	f000 b9d1 	b.w	800428c <dhcpClientCheckTimeout>
 8003eea:	2b03      	cmp	r3, #3
 8003eec:	d813      	bhi.n	8003f16 <dhcpClientStateRequesting+0x7a>
 8003eee:	4620      	mov	r0, r4
 8003ef0:	f000 fa9a 	bl	8004428 <dhcpClientSendRequest>
 8003ef4:	6be3      	ldr	r3, [r4, #60]	; 0x3c
 8003ef6:	6365      	str	r5, [r4, #52]	; 0x34
 8003ef8:	005b      	lsls	r3, r3, #1
 8003efa:	f5b3 4f7a 	cmp.w	r3, #64000	; 0xfa00
 8003efe:	bf88      	it	hi
 8003f00:	f44f 437a 	movhi.w	r3, #64000	; 0xfa00
 8003f04:	63e3      	str	r3, [r4, #60]	; 0x3c
 8003f06:	4807      	ldr	r0, [pc, #28]	; (8003f24 <dhcpClientStateRequesting+0x88>)
 8003f08:	6be5      	ldr	r5, [r4, #60]	; 0x3c
 8003f0a:	f44f 717a 	mov.w	r1, #1000	; 0x3e8
 8003f0e:	f7fd ff25 	bl	8001d5c <netGetRandRange>
 8003f12:	4428      	add	r0, r5
 8003f14:	e7e0      	b.n	8003ed8 <dhcpClientStateRequesting+0x3c>
 8003f16:	2200      	movs	r2, #0
 8003f18:	4611      	mov	r1, r2
 8003f1a:	4620      	mov	r0, r4
 8003f1c:	f000 fb66 	bl	80045ec <dhcpClientChangeState>
 8003f20:	e7de      	b.n	8003ee0 <dhcpClientStateRequesting+0x44>
 8003f22:	bf00      	nop
 8003f24:	fffffc18 	.word	0xfffffc18

08003f28 <dhcpClientStateInitReboot>:
 8003f28:	6a83      	ldr	r3, [r0, #40]	; 0x28
 8003f2a:	b513      	push	{r0, r1, r4, lr}
 8003f2c:	4604      	mov	r4, r0
 8003f2e:	b1b3      	cbz	r3, 8003f5e <dhcpClientStateInitReboot+0x36>
 8003f30:	6803      	ldr	r3, [r0, #0]
 8003f32:	f8d3 30a8 	ldr.w	r3, [r3, #168]	; 0xa8
 8003f36:	b193      	cbz	r3, 8003f5e <dhcpClientStateInitReboot+0x36>
 8003f38:	f44f 61fa 	mov.w	r1, #2000	; 0x7d0
 8003f3c:	2000      	movs	r0, #0
 8003f3e:	f7fd ff0d 	bl	8001d5c <netGetRandRange>
 8003f42:	9001      	str	r0, [sp, #4]
 8003f44:	f7fc feb1 	bl	8000caa <osGetSystemTime>
 8003f48:	9a01      	ldr	r2, [sp, #4]
 8003f4a:	6520      	str	r0, [r4, #80]	; 0x50
 8003f4c:	2300      	movs	r3, #0
 8003f4e:	2104      	movs	r1, #4
 8003f50:	4620      	mov	r0, r4
 8003f52:	6323      	str	r3, [r4, #48]	; 0x30
 8003f54:	b002      	add	sp, #8
 8003f56:	e8bd 4010 	ldmia.w	sp!, {r4, lr}
 8003f5a:	f000 bb47 	b.w	80045ec <dhcpClientChangeState>
 8003f5e:	b002      	add	sp, #8
 8003f60:	bd10      	pop	{r4, pc}

08003f62 <dhcpClientStateRebooting>:
 8003f62:	f7ff bf9b 	b.w	8003e9c <dhcpClientStateRequesting>

08003f66 <dhcpClientStateProbing>:
 8003f66:	b5f8      	push	{r3, r4, r5, r6, r7, lr}
 8003f68:	4604      	mov	r4, r0
 8003f6a:	e9d0 7500 	ldrd	r7, r5, [r0]
 8003f6e:	f7fc fe9c 	bl	8000caa <osGetSystemTime>
 8003f72:	e9d4 320d 	ldrd	r3, r2, [r4, #52]	; 0x34
 8003f76:	4413      	add	r3, r2
 8003f78:	1ac3      	subs	r3, r0, r3
 8003f7a:	2b00      	cmp	r3, #0
 8003f7c:	4606      	mov	r6, r0
 8003f7e:	db1d      	blt.n	8003fbc <dhcpClientStateProbing+0x56>
 8003f80:	2314      	movs	r3, #20
 8003f82:	fb03 7305 	mla	r3, r3, r5, r7
 8003f86:	f8d3 51e4 	ldr.w	r5, [r3, #484]	; 0x1e4
 8003f8a:	b14d      	cbz	r5, 8003fa0 <dhcpClientStateProbing+0x3a>
 8003f8c:	4620      	mov	r0, r4
 8003f8e:	f000 f8d7 	bl	8004140 <dhcpClientSendDecline>
 8003f92:	2200      	movs	r2, #0
 8003f94:	4611      	mov	r1, r2
 8003f96:	4620      	mov	r0, r4
 8003f98:	e8bd 40f8 	ldmia.w	sp!, {r3, r4, r5, r6, r7, lr}
 8003f9c:	f000 bb26 	b.w	80045ec <dhcpClientChangeState>
 8003fa0:	6c22      	ldr	r2, [r4, #64]	; 0x40
 8003fa2:	b962      	cbnz	r2, 8003fbe <dhcpClientStateProbing+0x58>
 8003fa4:	f8d3 11dc 	ldr.w	r1, [r3, #476]	; 0x1dc
 8003fa8:	4638      	mov	r0, r7
 8003faa:	f001 fbed 	bl	8005788 <arpSendProbe>
 8003fae:	f44f 737a 	mov.w	r3, #1000	; 0x3e8
 8003fb2:	63a3      	str	r3, [r4, #56]	; 0x38
 8003fb4:	6c23      	ldr	r3, [r4, #64]	; 0x40
 8003fb6:	6366      	str	r6, [r4, #52]	; 0x34
 8003fb8:	3301      	adds	r3, #1
 8003fba:	6423      	str	r3, [r4, #64]	; 0x40
 8003fbc:	bdf8      	pop	{r3, r4, r5, r6, r7, pc}
 8003fbe:	2202      	movs	r2, #2
 8003fc0:	f883 21e0 	strb.w	r2, [r3, #480]	; 0x1e0
 8003fc4:	4620      	mov	r0, r4
 8003fc6:	f000 fb89 	bl	80046dc <dhcpClientDumpConfig>
 8003fca:	462a      	mov	r2, r5
 8003fcc:	2106      	movs	r1, #6
 8003fce:	e7e2      	b.n	8003f96 <dhcpClientStateProbing+0x30>

08003fd0 <dhcpClientStateBound>:
 8003fd0:	b510      	push	{r4, lr}
 8003fd2:	4604      	mov	r4, r0
 8003fd4:	f7fc fe69 	bl	8000caa <osGetSystemTime>
 8003fd8:	6de2      	ldr	r2, [r4, #92]	; 0x5c
 8003fda:	1c53      	adds	r3, r2, #1
 8003fdc:	d015      	beq.n	800400a <dhcpClientStateBound+0x3a>
 8003fde:	4b0b      	ldr	r3, [pc, #44]	; (800400c <dhcpClientStateBound+0x3c>)
 8003fe0:	429a      	cmp	r2, r3
 8003fe2:	bf9c      	itt	ls
 8003fe4:	f44f 737a 	movls.w	r3, #1000	; 0x3e8
 8003fe8:	435a      	mulls	r2, r3
 8003fea:	6d63      	ldr	r3, [r4, #84]	; 0x54
 8003fec:	bf88      	it	hi
 8003fee:	f06f 4200 	mvnhi.w	r2, #2147483648	; 0x80000000
 8003ff2:	1ac3      	subs	r3, r0, r3
 8003ff4:	1a9b      	subs	r3, r3, r2
 8003ff6:	2b00      	cmp	r3, #0
 8003ff8:	db07      	blt.n	800400a <dhcpClientStateBound+0x3a>
 8003ffa:	6520      	str	r0, [r4, #80]	; 0x50
 8003ffc:	2200      	movs	r2, #0
 8003ffe:	4620      	mov	r0, r4
 8004000:	2107      	movs	r1, #7
 8004002:	e8bd 4010 	ldmia.w	sp!, {r4, lr}
 8004006:	f000 baf1 	b.w	80045ec <dhcpClientChangeState>
 800400a:	bd10      	pop	{r4, pc}
 800400c:	0020c49a 	.word	0x0020c49a

08004010 <dhcpClientStateRenewing>:
 8004010:	b570      	push	{r4, r5, r6, lr}
 8004012:	4604      	mov	r4, r0
 8004014:	f7fc fe49 	bl	8000caa <osGetSystemTime>
 8004018:	e9d4 320d 	ldrd	r3, r2, [r4, #52]	; 0x34
 800401c:	4413      	add	r3, r2
 800401e:	1ac3      	subs	r3, r0, r3
 8004020:	2b00      	cmp	r3, #0
 8004022:	4605      	mov	r5, r0
 8004024:	db21      	blt.n	800406a <dhcpClientStateRenewing+0x5a>
 8004026:	6e26      	ldr	r6, [r4, #96]	; 0x60
 8004028:	4b14      	ldr	r3, [pc, #80]	; (800407c <dhcpClientStateRenewing+0x6c>)
 800402a:	429e      	cmp	r6, r3
 800402c:	6d63      	ldr	r3, [r4, #84]	; 0x54
 800402e:	bf9a      	itte	ls
 8004030:	f44f 707a 	movls.w	r0, #1000	; 0x3e8
 8004034:	4346      	mulls	r6, r0
 8004036:	f06f 4600 	mvnhi.w	r6, #2147483648	; 0x80000000
 800403a:	1aeb      	subs	r3, r5, r3
 800403c:	1b9b      	subs	r3, r3, r6
 800403e:	2b00      	cmp	r3, #0
 8004040:	da14      	bge.n	800406c <dhcpClientStateRenewing+0x5c>
 8004042:	6c23      	ldr	r3, [r4, #64]	; 0x40
 8004044:	b913      	cbnz	r3, 800404c <dhcpClientStateRenewing+0x3c>
 8004046:	f7fd fe73 	bl	8001d30 <netGetRand>
 800404a:	64e0      	str	r0, [r4, #76]	; 0x4c
 800404c:	4620      	mov	r0, r4
 800404e:	f000 f9eb 	bl	8004428 <dhcpClientSendRequest>
 8004052:	6d63      	ldr	r3, [r4, #84]	; 0x54
 8004054:	6365      	str	r5, [r4, #52]	; 0x34
 8004056:	1b58      	subs	r0, r3, r5
 8004058:	4b09      	ldr	r3, [pc, #36]	; (8004080 <dhcpClientStateRenewing+0x70>)
 800405a:	4430      	add	r0, r6
 800405c:	4298      	cmp	r0, r3
 800405e:	6c23      	ldr	r3, [r4, #64]	; 0x40
 8004060:	bf88      	it	hi
 8004062:	0840      	lsrhi	r0, r0, #1
 8004064:	3301      	adds	r3, #1
 8004066:	63a0      	str	r0, [r4, #56]	; 0x38
 8004068:	6423      	str	r3, [r4, #64]	; 0x40
 800406a:	bd70      	pop	{r4, r5, r6, pc}
 800406c:	4620      	mov	r0, r4
 800406e:	2200      	movs	r2, #0
 8004070:	e8bd 4070 	ldmia.w	sp!, {r4, r5, r6, lr}
 8004074:	2108      	movs	r1, #8
 8004076:	f000 bab9 	b.w	80045ec <dhcpClientChangeState>
 800407a:	bf00      	nop
 800407c:	0020c49a 	.word	0x0020c49a
 8004080:	0001d4c0 	.word	0x0001d4c0

08004084 <dhcpClientStateRebinding>:
 8004084:	b570      	push	{r4, r5, r6, lr}
 8004086:	4604      	mov	r4, r0
 8004088:	f7fc fe0f 	bl	8000caa <osGetSystemTime>
 800408c:	e9d4 320d 	ldrd	r3, r2, [r4, #52]	; 0x34
 8004090:	4413      	add	r3, r2
 8004092:	1ac3      	subs	r3, r0, r3
 8004094:	2b00      	cmp	r3, #0
 8004096:	4605      	mov	r5, r0
 8004098:	db21      	blt.n	80040de <dhcpClientStateRebinding+0x5a>
 800409a:	6da6      	ldr	r6, [r4, #88]	; 0x58
 800409c:	4b15      	ldr	r3, [pc, #84]	; (80040f4 <dhcpClientStateRebinding+0x70>)
 800409e:	429e      	cmp	r6, r3
 80040a0:	6d63      	ldr	r3, [r4, #84]	; 0x54
 80040a2:	bf9a      	itte	ls
 80040a4:	f44f 707a 	movls.w	r0, #1000	; 0x3e8
 80040a8:	4346      	mulls	r6, r0
 80040aa:	f06f 4600 	mvnhi.w	r6, #2147483648	; 0x80000000
 80040ae:	1aeb      	subs	r3, r5, r3
 80040b0:	1b9b      	subs	r3, r3, r6
 80040b2:	2b00      	cmp	r3, #0
 80040b4:	da14      	bge.n	80040e0 <dhcpClientStateRebinding+0x5c>
 80040b6:	6c23      	ldr	r3, [r4, #64]	; 0x40
 80040b8:	b913      	cbnz	r3, 80040c0 <dhcpClientStateRebinding+0x3c>
 80040ba:	f7fd fe39 	bl	8001d30 <netGetRand>
 80040be:	64e0      	str	r0, [r4, #76]	; 0x4c
 80040c0:	4620      	mov	r0, r4
 80040c2:	f000 f9b1 	bl	8004428 <dhcpClientSendRequest>
 80040c6:	6d63      	ldr	r3, [r4, #84]	; 0x54
 80040c8:	6365      	str	r5, [r4, #52]	; 0x34
 80040ca:	1b58      	subs	r0, r3, r5
 80040cc:	4b0a      	ldr	r3, [pc, #40]	; (80040f8 <dhcpClientStateRebinding+0x74>)
 80040ce:	4430      	add	r0, r6
 80040d0:	4298      	cmp	r0, r3
 80040d2:	6c23      	ldr	r3, [r4, #64]	; 0x40
 80040d4:	bf88      	it	hi
 80040d6:	0840      	lsrhi	r0, r0, #1
 80040d8:	3301      	adds	r3, #1
 80040da:	63a0      	str	r0, [r4, #56]	; 0x38
 80040dc:	6423      	str	r3, [r4, #64]	; 0x40
 80040de:	bd70      	pop	{r4, r5, r6, pc}
 80040e0:	4620      	mov	r0, r4
 80040e2:	f000 fac5 	bl	8004670 <dhcpClientResetConfig>
 80040e6:	2200      	movs	r2, #0
 80040e8:	4620      	mov	r0, r4
 80040ea:	4611      	mov	r1, r2
 80040ec:	e8bd 4070 	ldmia.w	sp!, {r4, r5, r6, lr}
 80040f0:	f000 ba7c 	b.w	80045ec <dhcpClientChangeState>
 80040f4:	0020c49a 	.word	0x0020c49a
 80040f8:	0001d4c0 	.word	0x0001d4c0

080040fc <dhcpClientTick>:
 80040fc:	b1f8      	cbz	r0, 800413e <dhcpClientTick+0x42>
 80040fe:	f890 302c 	ldrb.w	r3, [r0, #44]	; 0x2c
 8004102:	2b08      	cmp	r3, #8
 8004104:	d818      	bhi.n	8004138 <dhcpClientTick+0x3c>
 8004106:	e8df f003 	tbb	[pc, r3]
 800410a:	0705      	.short	0x0705
 800410c:	0f0d0b09 	.word	0x0f0d0b09
 8004110:	1311      	.short	0x1311
 8004112:	15          	.byte	0x15
 8004113:	00          	.byte	0x00
 8004114:	f7ff be70 	b.w	8003df8 <dhcpClientStateInit>
 8004118:	f7ff be8c 	b.w	8003e34 <dhcpClientStateSelecting>
 800411c:	f7ff bebe 	b.w	8003e9c <dhcpClientStateRequesting>
 8004120:	f7ff bf02 	b.w	8003f28 <dhcpClientStateInitReboot>
 8004124:	f7ff bf1d 	b.w	8003f62 <dhcpClientStateRebooting>
 8004128:	f7ff bf1d 	b.w	8003f66 <dhcpClientStateProbing>
 800412c:	f7ff bf50 	b.w	8003fd0 <dhcpClientStateBound>
 8004130:	f7ff bf6e 	b.w	8004010 <dhcpClientStateRenewing>
 8004134:	f7ff bfa6 	b.w	8004084 <dhcpClientStateRebinding>
 8004138:	2300      	movs	r3, #0
 800413a:	f880 302c 	strb.w	r3, [r0, #44]	; 0x2c
 800413e:	4770      	bx	lr

08004140 <dhcpClientSendDecline>:
 8004140:	e92d 47f0 	stmdb	sp!, {r4, r5, r6, r7, r8, r9, sl, lr}
 8004144:	6807      	ldr	r7, [r0, #0]
 8004146:	b092      	sub	sp, #72	; 0x48
 8004148:	4605      	mov	r5, r0
 800414a:	f04f 0804 	mov.w	r8, #4
 800414e:	4638      	mov	r0, r7
 8004150:	f88d 8017 	strb.w	r8, [sp, #23]
 8004154:	f7fd fe12 	bl	8001d7c <nicGetLogicalInterface>
 8004158:	a906      	add	r1, sp, #24
 800415a:	4681      	mov	r9, r0
 800415c:	f44f 7009 	mov.w	r0, #548	; 0x224
 8004160:	f7ff fcde 	bl	8003b20 <udpAllocBuffer>
 8004164:	4606      	mov	r6, r0
 8004166:	2800      	cmp	r0, #0
 8004168:	f000 808b 	beq.w	8004282 <dhcpClientSendDecline+0x142>
 800416c:	9906      	ldr	r1, [sp, #24]
 800416e:	f7fd fb06 	bl	800177e <netBufferAt>
 8004172:	f44f 7209 	mov.w	r2, #548	; 0x224
 8004176:	4604      	mov	r4, r0
 8004178:	2100      	movs	r1, #0
 800417a:	f005 f9f8 	bl	800956e <memset>
 800417e:	f04f 0a01 	mov.w	sl, #1
 8004182:	2306      	movs	r3, #6
 8004184:	70a3      	strb	r3, [r4, #2]
 8004186:	f884 a000 	strb.w	sl, [r4]
 800418a:	f884 a001 	strb.w	sl, [r4, #1]
 800418e:	6ce8      	ldr	r0, [r5, #76]	; 0x4c
 8004190:	f7fc fcdc 	bl	8000b4c <swapInt32>
 8004194:	2300      	movs	r3, #0
 8004196:	7223      	strb	r3, [r4, #8]
 8004198:	7263      	strb	r3, [r4, #9]
 800419a:	72a3      	strb	r3, [r4, #10]
 800419c:	72e3      	strb	r3, [r4, #11]
 800419e:	7323      	strb	r3, [r4, #12]
 80041a0:	7363      	strb	r3, [r4, #13]
 80041a2:	73a3      	strb	r3, [r4, #14]
 80041a4:	73e3      	strb	r3, [r4, #15]
 80041a6:	f8b9 30d0 	ldrh.w	r3, [r9, #208]	; 0xd0
 80041aa:	6060      	str	r0, [r4, #4]
 80041ac:	f8d9 00cc 	ldr.w	r0, [r9, #204]	; 0xcc
 80041b0:	8423      	strh	r3, [r4, #32]
 80041b2:	2363      	movs	r3, #99	; 0x63
 80041b4:	f884 30ec 	strb.w	r3, [r4, #236]	; 0xec
 80041b8:	f884 30ef 	strb.w	r3, [r4, #239]	; 0xef
 80041bc:	f06f 027d 	mvn.w	r2, #125	; 0x7d
 80041c0:	23ff      	movs	r3, #255	; 0xff
 80041c2:	f884 20ed 	strb.w	r2, [r4, #237]	; 0xed
 80041c6:	f884 30f0 	strb.w	r3, [r4, #240]	; 0xf0
 80041ca:	2253      	movs	r2, #83	; 0x53
 80041cc:	23f1      	movs	r3, #241	; 0xf1
 80041ce:	61e0      	str	r0, [r4, #28]
 80041d0:	f884 20ee 	strb.w	r2, [r4, #238]	; 0xee
 80041d4:	9307      	str	r3, [sp, #28]
 80041d6:	2235      	movs	r2, #53	; 0x35
 80041d8:	f10d 0317 	add.w	r3, sp, #23
 80041dc:	a907      	add	r1, sp, #28
 80041de:	f8cd a000 	str.w	sl, [sp]
 80041e2:	4620      	mov	r0, r4
 80041e4:	f000 fb4a 	bl	800487c <dhcpAddOption>
 80041e8:	f105 0344 	add.w	r3, r5, #68	; 0x44
 80041ec:	2236      	movs	r2, #54	; 0x36
 80041ee:	a907      	add	r1, sp, #28
 80041f0:	f8cd 8000 	str.w	r8, [sp]
 80041f4:	4620      	mov	r0, r4
 80041f6:	f000 fb41 	bl	800487c <dhcpAddOption>
 80041fa:	f8cd 8000 	str.w	r8, [sp]
 80041fe:	f105 0348 	add.w	r3, r5, #72	; 0x48
 8004202:	2232      	movs	r2, #50	; 0x32
 8004204:	a907      	add	r1, sp, #28
 8004206:	4620      	mov	r0, r4
 8004208:	f000 fb38 	bl	800487c <dhcpAddOption>
 800420c:	f8d5 9020 	ldr.w	r9, [r5, #32]
 8004210:	f1b9 0f00 	cmp.w	r9, #0
 8004214:	d004      	beq.n	8004220 <dhcpClientSendDecline+0xe0>
 8004216:	4643      	mov	r3, r8
 8004218:	aa07      	add	r2, sp, #28
 800421a:	4621      	mov	r1, r4
 800421c:	4628      	mov	r0, r5
 800421e:	47c8      	blx	r9
 8004220:	9907      	ldr	r1, [sp, #28]
 8004222:	9b06      	ldr	r3, [sp, #24]
 8004224:	4d18      	ldr	r5, [pc, #96]	; (8004288 <dhcpClientSendDecline+0x148>)
 8004226:	f5b1 7f96 	cmp.w	r1, #300	; 0x12c
 800422a:	bf38      	it	cc
 800422c:	f44f 7196 	movcc.w	r1, #300	; 0x12c
 8004230:	9107      	str	r1, [sp, #28]
 8004232:	4630      	mov	r0, r6
 8004234:	4419      	add	r1, r3
 8004236:	f7fd fa1f 	bl	8001678 <netBufferSetLength>
 800423a:	2304      	movs	r3, #4
 800423c:	2200      	movs	r2, #0
 800423e:	e9cd 3208 	strd	r3, r2, [sp, #32]
 8004242:	930a      	str	r3, [sp, #40]	; 0x28
 8004244:	f04f 33ff 	mov.w	r3, #4294967295	; 0xffffffff
 8004248:	930b      	str	r3, [sp, #44]	; 0x2c
 800424a:	cd0f      	ldmia	r5!, {r0, r1, r2, r3}
 800424c:	ac0c      	add	r4, sp, #48	; 0x30
 800424e:	c40f      	stmia	r4!, {r0, r1, r2, r3}
 8004250:	e895 0003 	ldmia.w	r5, {r0, r1}
 8004254:	ab0c      	add	r3, sp, #48	; 0x30
 8004256:	e884 0003 	stmia.w	r4, {r0, r1}
 800425a:	9303      	str	r3, [sp, #12]
 800425c:	9b06      	ldr	r3, [sp, #24]
 800425e:	e9cd 6301 	strd	r6, r3, [sp, #4]
 8004262:	2343      	movs	r3, #67	; 0x43
 8004264:	9300      	str	r3, [sp, #0]
 8004266:	2244      	movs	r2, #68	; 0x44
 8004268:	ab0a      	add	r3, sp, #40	; 0x28
 800426a:	a908      	add	r1, sp, #32
 800426c:	4638      	mov	r0, r7
 800426e:	f7ff fbe9 	bl	8003a44 <udpSendBuffer>
 8004272:	4604      	mov	r4, r0
 8004274:	4630      	mov	r0, r6
 8004276:	f7fd fa58 	bl	800172a <netBufferFree>
 800427a:	4620      	mov	r0, r4
 800427c:	b012      	add	sp, #72	; 0x48
 800427e:	e8bd 87f0 	ldmia.w	sp!, {r4, r5, r6, r7, r8, r9, sl, pc}
 8004282:	2464      	movs	r4, #100	; 0x64
 8004284:	e7f9      	b.n	800427a <dhcpClientSendDecline+0x13a>
 8004286:	bf00      	nop
 8004288:	0800a9e4 	.word	0x0800a9e4

0800428c <dhcpClientCheckTimeout>:
 800428c:	b538      	push	{r3, r4, r5, lr}
 800428e:	4604      	mov	r4, r0
 8004290:	6805      	ldr	r5, [r0, #0]
 8004292:	f7fc fd0a 	bl	8000caa <osGetSystemTime>
 8004296:	6963      	ldr	r3, [r4, #20]
 8004298:	b19b      	cbz	r3, 80042c2 <dhcpClientCheckTimeout+0x36>
 800429a:	6d23      	ldr	r3, [r4, #80]	; 0x50
 800429c:	6922      	ldr	r2, [r4, #16]
 800429e:	4413      	add	r3, r2
 80042a0:	1ac0      	subs	r0, r0, r3
 80042a2:	2800      	cmp	r0, #0
 80042a4:	db0d      	blt.n	80042c2 <dhcpClientCheckTimeout+0x36>
 80042a6:	6b23      	ldr	r3, [r4, #48]	; 0x30
 80042a8:	b95b      	cbnz	r3, 80042c2 <dhcpClientCheckTimeout+0x36>
 80042aa:	4806      	ldr	r0, [pc, #24]	; (80042c4 <dhcpClientCheckTimeout+0x38>)
 80042ac:	f7fc fcf7 	bl	8000c9e <osReleaseMutex>
 80042b0:	6963      	ldr	r3, [r4, #20]
 80042b2:	4629      	mov	r1, r5
 80042b4:	4620      	mov	r0, r4
 80042b6:	4798      	blx	r3
 80042b8:	4802      	ldr	r0, [pc, #8]	; (80042c4 <dhcpClientCheckTimeout+0x38>)
 80042ba:	f7fc fceb 	bl	8000c94 <osAcquireMutex>
 80042be:	2301      	movs	r3, #1
 80042c0:	6323      	str	r3, [r4, #48]	; 0x30
 80042c2:	bd38      	pop	{r3, r4, r5, pc}
 80042c4:	20008864 	.word	0x20008864

080042c8 <dhcpClientComputeElapsedTime>:
 80042c8:	b510      	push	{r4, lr}
 80042ca:	4604      	mov	r4, r0
 80042cc:	f7fc fced 	bl	8000caa <osGetSystemTime>
 80042d0:	6d23      	ldr	r3, [r4, #80]	; 0x50
 80042d2:	1ac0      	subs	r0, r0, r3
 80042d4:	f44f 737a 	mov.w	r3, #1000	; 0x3e8
 80042d8:	fbb0 f0f3 	udiv	r0, r0, r3
 80042dc:	f64f 73ff 	movw	r3, #65535	; 0xffff
 80042e0:	4298      	cmp	r0, r3
 80042e2:	bf28      	it	cs
 80042e4:	4618      	movcs	r0, r3
 80042e6:	e8bd 4010 	ldmia.w	sp!, {r4, lr}
 80042ea:	b280      	uxth	r0, r0
 80042ec:	f7fc bc2b 	b.w	8000b46 <swapInt16>

080042f0 <dhcpClientSendDiscover>:
 80042f0:	e92d 47f0 	stmdb	sp!, {r4, r5, r6, r7, r8, r9, sl, lr}
 80042f4:	f8d0 8000 	ldr.w	r8, [r0]
 80042f8:	b092      	sub	sp, #72	; 0x48
 80042fa:	4605      	mov	r5, r0
 80042fc:	f04f 0901 	mov.w	r9, #1
 8004300:	4640      	mov	r0, r8
 8004302:	f88d 9017 	strb.w	r9, [sp, #23]
 8004306:	f7fd fd39 	bl	8001d7c <nicGetLogicalInterface>
 800430a:	a906      	add	r1, sp, #24
 800430c:	4682      	mov	sl, r0
 800430e:	f44f 7009 	mov.w	r0, #548	; 0x224
 8004312:	f7ff fc05 	bl	8003b20 <udpAllocBuffer>
 8004316:	4607      	mov	r7, r0
 8004318:	2800      	cmp	r0, #0
 800431a:	f000 8081 	beq.w	8004420 <dhcpClientSendDiscover+0x130>
 800431e:	9906      	ldr	r1, [sp, #24]
 8004320:	f7fd fa2d 	bl	800177e <netBufferAt>
 8004324:	f44f 7209 	mov.w	r2, #548	; 0x224
 8004328:	4604      	mov	r4, r0
 800432a:	2100      	movs	r1, #0
 800432c:	f005 f91f 	bl	800956e <memset>
 8004330:	2306      	movs	r3, #6
 8004332:	70a3      	strb	r3, [r4, #2]
 8004334:	f884 9000 	strb.w	r9, [r4]
 8004338:	f884 9001 	strb.w	r9, [r4, #1]
 800433c:	6ce8      	ldr	r0, [r5, #76]	; 0x4c
 800433e:	f7fc fc05 	bl	8000b4c <swapInt32>
 8004342:	6060      	str	r0, [r4, #4]
 8004344:	4628      	mov	r0, r5
 8004346:	f7ff ffbf 	bl	80042c8 <dhcpClientComputeElapsedTime>
 800434a:	f06f 037f 	mvn.w	r3, #127	; 0x7f
 800434e:	72a3      	strb	r3, [r4, #10]
 8004350:	f8ba 30d0 	ldrh.w	r3, [sl, #208]	; 0xd0
 8004354:	8120      	strh	r0, [r4, #8]
 8004356:	f8da 00cc 	ldr.w	r0, [sl, #204]	; 0xcc
 800435a:	8423      	strh	r3, [r4, #32]
 800435c:	2363      	movs	r3, #99	; 0x63
 800435e:	f884 30ec 	strb.w	r3, [r4, #236]	; 0xec
 8004362:	f884 30ef 	strb.w	r3, [r4, #239]	; 0xef
 8004366:	f06f 027d 	mvn.w	r2, #125	; 0x7d
 800436a:	23ff      	movs	r3, #255	; 0xff
 800436c:	2600      	movs	r6, #0
 800436e:	f884 20ed 	strb.w	r2, [r4, #237]	; 0xed
 8004372:	f884 30f0 	strb.w	r3, [r4, #240]	; 0xf0
 8004376:	2253      	movs	r2, #83	; 0x53
 8004378:	23f1      	movs	r3, #241	; 0xf1
 800437a:	61e0      	str	r0, [r4, #28]
 800437c:	f884 20ee 	strb.w	r2, [r4, #238]	; 0xee
 8004380:	72e6      	strb	r6, [r4, #11]
 8004382:	7326      	strb	r6, [r4, #12]
 8004384:	7366      	strb	r6, [r4, #13]
 8004386:	73a6      	strb	r6, [r4, #14]
 8004388:	73e6      	strb	r6, [r4, #15]
 800438a:	9307      	str	r3, [sp, #28]
 800438c:	f8cd 9000 	str.w	r9, [sp]
 8004390:	f10d 0317 	add.w	r3, sp, #23
 8004394:	2235      	movs	r2, #53	; 0x35
 8004396:	a907      	add	r1, sp, #28
 8004398:	4620      	mov	r0, r4
 800439a:	f000 fa6f 	bl	800487c <dhcpAddOption>
 800439e:	68ab      	ldr	r3, [r5, #8]
 80043a0:	b133      	cbz	r3, 80043b0 <dhcpClientSendDiscover+0xc0>
 80043a2:	9600      	str	r6, [sp, #0]
 80043a4:	4633      	mov	r3, r6
 80043a6:	2250      	movs	r2, #80	; 0x50
 80043a8:	a907      	add	r1, sp, #28
 80043aa:	4620      	mov	r0, r4
 80043ac:	f000 fa66 	bl	800487c <dhcpAddOption>
 80043b0:	6a2e      	ldr	r6, [r5, #32]
 80043b2:	b126      	cbz	r6, 80043be <dhcpClientSendDiscover+0xce>
 80043b4:	2301      	movs	r3, #1
 80043b6:	aa07      	add	r2, sp, #28
 80043b8:	4621      	mov	r1, r4
 80043ba:	4628      	mov	r0, r5
 80043bc:	47b0      	blx	r6
 80043be:	9907      	ldr	r1, [sp, #28]
 80043c0:	9b06      	ldr	r3, [sp, #24]
 80043c2:	4d18      	ldr	r5, [pc, #96]	; (8004424 <dhcpClientSendDiscover+0x134>)
 80043c4:	f5b1 7f96 	cmp.w	r1, #300	; 0x12c
 80043c8:	bf38      	it	cc
 80043ca:	f44f 7196 	movcc.w	r1, #300	; 0x12c
 80043ce:	9107      	str	r1, [sp, #28]
 80043d0:	4638      	mov	r0, r7
 80043d2:	4419      	add	r1, r3
 80043d4:	f7fd f950 	bl	8001678 <netBufferSetLength>
 80043d8:	2304      	movs	r3, #4
 80043da:	2200      	movs	r2, #0
 80043dc:	e9cd 3208 	strd	r3, r2, [sp, #32]
 80043e0:	930a      	str	r3, [sp, #40]	; 0x28
 80043e2:	f04f 33ff 	mov.w	r3, #4294967295	; 0xffffffff
 80043e6:	930b      	str	r3, [sp, #44]	; 0x2c
 80043e8:	cd0f      	ldmia	r5!, {r0, r1, r2, r3}
 80043ea:	ac0c      	add	r4, sp, #48	; 0x30
 80043ec:	c40f      	stmia	r4!, {r0, r1, r2, r3}
 80043ee:	e895 0003 	ldmia.w	r5, {r0, r1}
 80043f2:	ab0c      	add	r3, sp, #48	; 0x30
 80043f4:	e884 0003 	stmia.w	r4, {r0, r1}
 80043f8:	9303      	str	r3, [sp, #12]
 80043fa:	9b06      	ldr	r3, [sp, #24]
 80043fc:	e9cd 7301 	strd	r7, r3, [sp, #4]
 8004400:	2343      	movs	r3, #67	; 0x43
 8004402:	9300      	str	r3, [sp, #0]
 8004404:	2244      	movs	r2, #68	; 0x44
 8004406:	ab0a      	add	r3, sp, #40	; 0x28
 8004408:	a908      	add	r1, sp, #32
 800440a:	4640      	mov	r0, r8
 800440c:	f7ff fb1a 	bl	8003a44 <udpSendBuffer>
 8004410:	4604      	mov	r4, r0
 8004412:	4638      	mov	r0, r7
 8004414:	f7fd f989 	bl	800172a <netBufferFree>
 8004418:	4620      	mov	r0, r4
 800441a:	b012      	add	sp, #72	; 0x48
 800441c:	e8bd 87f0 	ldmia.w	sp!, {r4, r5, r6, r7, r8, r9, sl, pc}
 8004420:	2464      	movs	r4, #100	; 0x64
 8004422:	e7f9      	b.n	8004418 <dhcpClientSendDiscover+0x128>
 8004424:	0800a9e4 	.word	0x0800a9e4

08004428 <dhcpClientSendRequest>:
 8004428:	e92d 43f0 	stmdb	sp!, {r4, r5, r6, r7, r8, r9, lr}
 800442c:	6807      	ldr	r7, [r0, #0]
 800442e:	b093      	sub	sp, #76	; 0x4c
 8004430:	2303      	movs	r3, #3
 8004432:	4605      	mov	r5, r0
 8004434:	4638      	mov	r0, r7
 8004436:	f88d 3017 	strb.w	r3, [sp, #23]
 800443a:	f7fd fc9f 	bl	8001d7c <nicGetLogicalInterface>
 800443e:	a906      	add	r1, sp, #24
 8004440:	4681      	mov	r9, r0
 8004442:	f44f 7009 	mov.w	r0, #548	; 0x224
 8004446:	f8d5 8004 	ldr.w	r8, [r5, #4]
 800444a:	f7ff fb69 	bl	8003b20 <udpAllocBuffer>
 800444e:	4606      	mov	r6, r0
 8004450:	2800      	cmp	r0, #0
 8004452:	f000 80c4 	beq.w	80045de <dhcpClientSendRequest+0x1b6>
 8004456:	9906      	ldr	r1, [sp, #24]
 8004458:	f7fd f991 	bl	800177e <netBufferAt>
 800445c:	f44f 7209 	mov.w	r2, #548	; 0x224
 8004460:	4604      	mov	r4, r0
 8004462:	2100      	movs	r1, #0
 8004464:	f005 f883 	bl	800956e <memset>
 8004468:	2301      	movs	r3, #1
 800446a:	7023      	strb	r3, [r4, #0]
 800446c:	7063      	strb	r3, [r4, #1]
 800446e:	2306      	movs	r3, #6
 8004470:	70a3      	strb	r3, [r4, #2]
 8004472:	6ce8      	ldr	r0, [r5, #76]	; 0x4c
 8004474:	f7fc fb6a 	bl	8000b4c <swapInt32>
 8004478:	6060      	str	r0, [r4, #4]
 800447a:	4628      	mov	r0, r5
 800447c:	f7ff ff24 	bl	80042c8 <dhcpClientComputeElapsedTime>
 8004480:	8120      	strh	r0, [r4, #8]
 8004482:	f895 302c 	ldrb.w	r3, [r5, #44]	; 0x2c
 8004486:	3b07      	subs	r3, #7
 8004488:	2b01      	cmp	r3, #1
 800448a:	f04f 0300 	mov.w	r3, #0
 800448e:	f200 809d 	bhi.w	80045cc <dhcpClientSendRequest+0x1a4>
 8004492:	72a3      	strb	r3, [r4, #10]
 8004494:	72e3      	strb	r3, [r4, #11]
 8004496:	2314      	movs	r3, #20
 8004498:	fb03 7308 	mla	r3, r3, r8, r7
 800449c:	f8d3 31dc 	ldr.w	r3, [r3, #476]	; 0x1dc
 80044a0:	60e3      	str	r3, [r4, #12]
 80044a2:	f8b9 30d0 	ldrh.w	r3, [r9, #208]	; 0xd0
 80044a6:	f8d9 00cc 	ldr.w	r0, [r9, #204]	; 0xcc
 80044aa:	8423      	strh	r3, [r4, #32]
 80044ac:	2363      	movs	r3, #99	; 0x63
 80044ae:	f884 30ec 	strb.w	r3, [r4, #236]	; 0xec
 80044b2:	f884 30ef 	strb.w	r3, [r4, #239]	; 0xef
 80044b6:	23ff      	movs	r3, #255	; 0xff
 80044b8:	f884 30f0 	strb.w	r3, [r4, #240]	; 0xf0
 80044bc:	f06f 027d 	mvn.w	r2, #125	; 0x7d
 80044c0:	23f1      	movs	r3, #241	; 0xf1
 80044c2:	f884 20ed 	strb.w	r2, [r4, #237]	; 0xed
 80044c6:	9307      	str	r3, [sp, #28]
 80044c8:	2253      	movs	r2, #83	; 0x53
 80044ca:	2301      	movs	r3, #1
 80044cc:	61e0      	str	r0, [r4, #28]
 80044ce:	f884 20ee 	strb.w	r2, [r4, #238]	; 0xee
 80044d2:	a907      	add	r1, sp, #28
 80044d4:	9300      	str	r3, [sp, #0]
 80044d6:	2235      	movs	r2, #53	; 0x35
 80044d8:	f10d 0317 	add.w	r3, sp, #23
 80044dc:	4620      	mov	r0, r4
 80044de:	f000 f9cd 	bl	800487c <dhcpAddOption>
 80044e2:	f895 302c 	ldrb.w	r3, [r5, #44]	; 0x2c
 80044e6:	2b02      	cmp	r3, #2
 80044e8:	d108      	bne.n	80044fc <dhcpClientSendRequest+0xd4>
 80044ea:	2304      	movs	r3, #4
 80044ec:	9300      	str	r3, [sp, #0]
 80044ee:	2236      	movs	r2, #54	; 0x36
 80044f0:	f105 0344 	add.w	r3, r5, #68	; 0x44
 80044f4:	a907      	add	r1, sp, #28
 80044f6:	4620      	mov	r0, r4
 80044f8:	f000 f9c0 	bl	800487c <dhcpAddOption>
 80044fc:	f895 302c 	ldrb.w	r3, [r5, #44]	; 0x2c
 8004500:	2b02      	cmp	r3, #2
 8004502:	d001      	beq.n	8004508 <dhcpClientSendRequest+0xe0>
 8004504:	2b04      	cmp	r3, #4
 8004506:	d108      	bne.n	800451a <dhcpClientSendRequest+0xf2>
 8004508:	2304      	movs	r3, #4
 800450a:	9300      	str	r3, [sp, #0]
 800450c:	2232      	movs	r2, #50	; 0x32
 800450e:	f105 0348 	add.w	r3, r5, #72	; 0x48
 8004512:	a907      	add	r1, sp, #28
 8004514:	4620      	mov	r0, r4
 8004516:	f000 f9b1 	bl	800487c <dhcpAddOption>
 800451a:	f8d5 9020 	ldr.w	r9, [r5, #32]
 800451e:	f1b9 0f00 	cmp.w	r9, #0
 8004522:	d004      	beq.n	800452e <dhcpClientSendRequest+0x106>
 8004524:	2303      	movs	r3, #3
 8004526:	aa07      	add	r2, sp, #28
 8004528:	4621      	mov	r1, r4
 800452a:	4628      	mov	r0, r5
 800452c:	47c8      	blx	r9
 800452e:	9907      	ldr	r1, [sp, #28]
 8004530:	2237      	movs	r2, #55	; 0x37
 8004532:	4620      	mov	r0, r4
 8004534:	f000 f9cf 	bl	80048d6 <dhcpGetOption>
 8004538:	b938      	cbnz	r0, 800454a <dhcpClientSendRequest+0x122>
 800453a:	2307      	movs	r3, #7
 800453c:	9300      	str	r3, [sp, #0]
 800453e:	2237      	movs	r2, #55	; 0x37
 8004540:	4b28      	ldr	r3, [pc, #160]	; (80045e4 <dhcpClientSendRequest+0x1bc>)
 8004542:	a907      	add	r1, sp, #28
 8004544:	4620      	mov	r0, r4
 8004546:	f000 f999 	bl	800487c <dhcpAddOption>
 800454a:	9907      	ldr	r1, [sp, #28]
 800454c:	9b06      	ldr	r3, [sp, #24]
 800454e:	f5b1 7f96 	cmp.w	r1, #300	; 0x12c
 8004552:	bf38      	it	cc
 8004554:	f44f 7196 	movcc.w	r1, #300	; 0x12c
 8004558:	9107      	str	r1, [sp, #28]
 800455a:	4630      	mov	r0, r6
 800455c:	4419      	add	r1, r3
 800455e:	f7fd f88b 	bl	8001678 <netBufferSetLength>
 8004562:	f895 302c 	ldrb.w	r3, [r5, #44]	; 0x2c
 8004566:	2b07      	cmp	r3, #7
 8004568:	bf04      	itt	eq
 800456a:	2214      	moveq	r2, #20
 800456c:	fb02 7808 	mlaeq	r8, r2, r8, r7
 8004570:	f04f 0304 	mov.w	r3, #4
 8004574:	bf08      	it	eq
 8004576:	f8d8 21dc 	ldreq.w	r2, [r8, #476]	; 0x1dc
 800457a:	9308      	str	r3, [sp, #32]
 800457c:	bf0a      	itet	eq
 800457e:	e9cd 2309 	strdeq	r2, r3, [sp, #36]	; 0x24
 8004582:	2200      	movne	r2, #0
 8004584:	6c6b      	ldreq	r3, [r5, #68]	; 0x44
 8004586:	4d18      	ldr	r5, [pc, #96]	; (80045e8 <dhcpClientSendRequest+0x1c0>)
 8004588:	bf1c      	itt	ne
 800458a:	e9cd 2309 	strdne	r2, r3, [sp, #36]	; 0x24
 800458e:	f04f 33ff 	movne.w	r3, #4294967295	; 0xffffffff
 8004592:	930b      	str	r3, [sp, #44]	; 0x2c
 8004594:	cd0f      	ldmia	r5!, {r0, r1, r2, r3}
 8004596:	ac0c      	add	r4, sp, #48	; 0x30
 8004598:	c40f      	stmia	r4!, {r0, r1, r2, r3}
 800459a:	e895 0003 	ldmia.w	r5, {r0, r1}
 800459e:	ab0c      	add	r3, sp, #48	; 0x30
 80045a0:	e884 0003 	stmia.w	r4, {r0, r1}
 80045a4:	9303      	str	r3, [sp, #12]
 80045a6:	9b06      	ldr	r3, [sp, #24]
 80045a8:	e9cd 6301 	strd	r6, r3, [sp, #4]
 80045ac:	2343      	movs	r3, #67	; 0x43
 80045ae:	9300      	str	r3, [sp, #0]
 80045b0:	2244      	movs	r2, #68	; 0x44
 80045b2:	ab0a      	add	r3, sp, #40	; 0x28
 80045b4:	a908      	add	r1, sp, #32
 80045b6:	4638      	mov	r0, r7
 80045b8:	f7ff fa44 	bl	8003a44 <udpSendBuffer>
 80045bc:	4604      	mov	r4, r0
 80045be:	4630      	mov	r0, r6
 80045c0:	f7fd f8b3 	bl	800172a <netBufferFree>
 80045c4:	4620      	mov	r0, r4
 80045c6:	b013      	add	sp, #76	; 0x4c
 80045c8:	e8bd 83f0 	ldmia.w	sp!, {r4, r5, r6, r7, r8, r9, pc}
 80045cc:	f06f 027f 	mvn.w	r2, #127	; 0x7f
 80045d0:	72a2      	strb	r2, [r4, #10]
 80045d2:	72e3      	strb	r3, [r4, #11]
 80045d4:	7323      	strb	r3, [r4, #12]
 80045d6:	7363      	strb	r3, [r4, #13]
 80045d8:	73a3      	strb	r3, [r4, #14]
 80045da:	73e3      	strb	r3, [r4, #15]
 80045dc:	e761      	b.n	80044a2 <dhcpClientSendRequest+0x7a>
 80045de:	2464      	movs	r4, #100	; 0x64
 80045e0:	e7f0      	b.n	80045c4 <dhcpClientSendRequest+0x19c>
 80045e2:	bf00      	nop
 80045e4:	0800ab32 	.word	0x0800ab32
 80045e8:	0800a9e4 	.word	0x0800a9e4

080045ec <dhcpClientChangeState>:
 80045ec:	e92d 41f3 	stmdb	sp!, {r0, r1, r4, r5, r6, r7, r8, lr}
 80045f0:	460d      	mov	r5, r1
 80045f2:	4604      	mov	r4, r0
 80045f4:	4617      	mov	r7, r2
 80045f6:	f7fc fb58 	bl	8000caa <osGetSystemTime>
 80045fa:	2d08      	cmp	r5, #8
 80045fc:	4606      	mov	r6, r0
 80045fe:	d813      	bhi.n	8004628 <dhcpClientChangeState+0x3c>
 8004600:	f7fc fb00 	bl	8000c04 <osSuspendAllTasks>
 8004604:	4b16      	ldr	r3, [pc, #88]	; (8004660 <dhcpClientChangeState+0x74>)
 8004606:	681b      	ldr	r3, [r3, #0]
 8004608:	2100      	movs	r1, #0
 800460a:	4630      	mov	r0, r6
 800460c:	f8d3 800c 	ldr.w	r8, [r3, #12]
 8004610:	f7fc fa9e 	bl	8000b50 <formatSystemTime>
 8004614:	4b13      	ldr	r3, [pc, #76]	; (8004664 <dhcpClientChangeState+0x78>)
 8004616:	4914      	ldr	r1, [pc, #80]	; (8004668 <dhcpClientChangeState+0x7c>)
 8004618:	f853 3025 	ldr.w	r3, [r3, r5, lsl #2]
 800461c:	4602      	mov	r2, r0
 800461e:	4640      	mov	r0, r8
 8004620:	f004 fec8 	bl	80093b4 <fiprintf>
 8004624:	f7fc faf8 	bl	8000c18 <osResumeAllTasks>
 8004628:	2300      	movs	r3, #0
 800462a:	6423      	str	r3, [r4, #64]	; 0x40
 800462c:	69e3      	ldr	r3, [r4, #28]
 800462e:	f884 502c 	strb.w	r5, [r4, #44]	; 0x2c
 8004632:	e9c4 670d 	strd	r6, r7, [r4, #52]	; 0x34
 8004636:	b17b      	cbz	r3, 8004658 <dhcpClientChangeState+0x6c>
 8004638:	6821      	ldr	r1, [r4, #0]
 800463a:	480c      	ldr	r0, [pc, #48]	; (800466c <dhcpClientChangeState+0x80>)
 800463c:	9101      	str	r1, [sp, #4]
 800463e:	f7fc fb2e 	bl	8000c9e <osReleaseMutex>
 8004642:	4620      	mov	r0, r4
 8004644:	69e3      	ldr	r3, [r4, #28]
 8004646:	9901      	ldr	r1, [sp, #4]
 8004648:	462a      	mov	r2, r5
 800464a:	4798      	blx	r3
 800464c:	4807      	ldr	r0, [pc, #28]	; (800466c <dhcpClientChangeState+0x80>)
 800464e:	b002      	add	sp, #8
 8004650:	e8bd 41f0 	ldmia.w	sp!, {r4, r5, r6, r7, r8, lr}
 8004654:	f7fc bb1e 	b.w	8000c94 <osAcquireMutex>
 8004658:	b002      	add	sp, #8
 800465a:	e8bd 81f0 	ldmia.w	sp!, {r4, r5, r6, r7, r8, pc}
 800465e:	bf00      	nop
 8004660:	20000010 	.word	0x20000010
 8004664:	0800ab3c 	.word	0x0800ab3c
 8004668:	0800a9fc 	.word	0x0800a9fc
 800466c:	20008864 	.word	0x20008864

08004670 <dhcpClientResetConfig>:
 8004670:	e9d0 1300 	ldrd	r1, r3, [r0]
 8004674:	2214      	movs	r2, #20
 8004676:	fb02 1303 	mla	r3, r2, r3, r1
 800467a:	2200      	movs	r2, #0
 800467c:	f883 21e0 	strb.w	r2, [r3, #480]	; 0x1e0
 8004680:	e9c3 227a 	strd	r2, r2, [r3, #488]	; 0x1e8
 8004684:	f8c3 21dc 	str.w	r2, [r3, #476]	; 0x1dc
 8004688:	68c3      	ldr	r3, [r0, #12]
 800468a:	b90b      	cbnz	r3, 8004690 <dhcpClientResetConfig+0x20>
 800468c:	e9c1 337c 	strd	r3, r3, [r1, #496]	; 0x1f0
 8004690:	4770      	bx	lr
	...

08004694 <dhcpClientLinkChangeEvent>:
 8004694:	b538      	push	{r3, r4, r5, lr}
 8004696:	4604      	mov	r4, r0
 8004698:	b1e0      	cbz	r0, 80046d4 <dhcpClientLinkChangeEvent+0x40>
 800469a:	6a83      	ldr	r3, [r0, #40]	; 0x28
 800469c:	6805      	ldr	r5, [r0, #0]
 800469e:	b10b      	cbz	r3, 80046a4 <dhcpClientLinkChangeEvent+0x10>
 80046a0:	f7ff ffe6 	bl	8004670 <dhcpClientResetConfig>
 80046a4:	f894 302c 	ldrb.w	r3, [r4, #44]	; 0x2c
 80046a8:	2b02      	cmp	r3, #2
 80046aa:	bf8c      	ite	hi
 80046ac:	2303      	movhi	r3, #3
 80046ae:	2300      	movls	r3, #0
 80046b0:	f884 302c 	strb.w	r3, [r4, #44]	; 0x2c
 80046b4:	69a3      	ldr	r3, [r4, #24]
 80046b6:	b16b      	cbz	r3, 80046d4 <dhcpClientLinkChangeEvent+0x40>
 80046b8:	4807      	ldr	r0, [pc, #28]	; (80046d8 <dhcpClientLinkChangeEvent+0x44>)
 80046ba:	f7fc faf0 	bl	8000c9e <osReleaseMutex>
 80046be:	4620      	mov	r0, r4
 80046c0:	69a3      	ldr	r3, [r4, #24]
 80046c2:	f8d5 20a8 	ldr.w	r2, [r5, #168]	; 0xa8
 80046c6:	4629      	mov	r1, r5
 80046c8:	4798      	blx	r3
 80046ca:	e8bd 4038 	ldmia.w	sp!, {r3, r4, r5, lr}
 80046ce:	4802      	ldr	r0, [pc, #8]	; (80046d8 <dhcpClientLinkChangeEvent+0x44>)
 80046d0:	f7fc bae0 	b.w	8000c94 <osAcquireMutex>
 80046d4:	bd38      	pop	{r3, r4, r5, pc}
 80046d6:	bf00      	nop
 80046d8:	20008864 	.word	0x20008864

080046dc <dhcpClientDumpConfig>:
 80046dc:	e92d 43f8 	stmdb	sp!, {r3, r4, r5, r6, r7, r8, r9, lr}
 80046e0:	4c5a      	ldr	r4, [pc, #360]	; (800484c <dhcpClientDumpConfig+0x170>)
 80046e2:	4f5b      	ldr	r7, [pc, #364]	; (8004850 <dhcpClientDumpConfig+0x174>)
 80046e4:	e9d0 6900 	ldrd	r6, r9, [r0]
 80046e8:	4605      	mov	r5, r0
 80046ea:	f7fc fa8b 	bl	8000c04 <osSuspendAllTasks>
 80046ee:	6823      	ldr	r3, [r4, #0]
 80046f0:	4638      	mov	r0, r7
 80046f2:	68d9      	ldr	r1, [r3, #12]
 80046f4:	f004 fed6 	bl	80094a4 <fputs>
 80046f8:	f7fc fa8e 	bl	8000c18 <osResumeAllTasks>
 80046fc:	f7fc fa82 	bl	8000c04 <osSuspendAllTasks>
 8004700:	6823      	ldr	r3, [r4, #0]
 8004702:	4854      	ldr	r0, [pc, #336]	; (8004854 <dhcpClientDumpConfig+0x178>)
 8004704:	68d9      	ldr	r1, [r3, #12]
 8004706:	f004 fecd 	bl	80094a4 <fputs>
 800470a:	f7fc fa85 	bl	8000c18 <osResumeAllTasks>
 800470e:	f7fc fa79 	bl	8000c04 <osSuspendAllTasks>
 8004712:	6823      	ldr	r3, [r4, #0]
 8004714:	6d68      	ldr	r0, [r5, #84]	; 0x54
 8004716:	f8d3 800c 	ldr.w	r8, [r3, #12]
 800471a:	2100      	movs	r1, #0
 800471c:	f7fc fa18 	bl	8000b50 <formatSystemTime>
 8004720:	494d      	ldr	r1, [pc, #308]	; (8004858 <dhcpClientDumpConfig+0x17c>)
 8004722:	4602      	mov	r2, r0
 8004724:	4640      	mov	r0, r8
 8004726:	f004 fe45 	bl	80093b4 <fiprintf>
 800472a:	f7fc fa75 	bl	8000c18 <osResumeAllTasks>
 800472e:	f7fc fa69 	bl	8000c04 <osSuspendAllTasks>
 8004732:	6823      	ldr	r3, [r4, #0]
 8004734:	6daa      	ldr	r2, [r5, #88]	; 0x58
 8004736:	4949      	ldr	r1, [pc, #292]	; (800485c <dhcpClientDumpConfig+0x180>)
 8004738:	68d8      	ldr	r0, [r3, #12]
 800473a:	f004 fe3b 	bl	80093b4 <fiprintf>
 800473e:	f7fc fa6b 	bl	8000c18 <osResumeAllTasks>
 8004742:	f7fc fa5f 	bl	8000c04 <osSuspendAllTasks>
 8004746:	6823      	ldr	r3, [r4, #0]
 8004748:	6dea      	ldr	r2, [r5, #92]	; 0x5c
 800474a:	4945      	ldr	r1, [pc, #276]	; (8004860 <dhcpClientDumpConfig+0x184>)
 800474c:	68d8      	ldr	r0, [r3, #12]
 800474e:	f004 fe31 	bl	80093b4 <fiprintf>
 8004752:	f7fc fa61 	bl	8000c18 <osResumeAllTasks>
 8004756:	f7fc fa55 	bl	8000c04 <osSuspendAllTasks>
 800475a:	6823      	ldr	r3, [r4, #0]
 800475c:	6e2a      	ldr	r2, [r5, #96]	; 0x60
 800475e:	4941      	ldr	r1, [pc, #260]	; (8004864 <dhcpClientDumpConfig+0x188>)
 8004760:	68d8      	ldr	r0, [r3, #12]
 8004762:	2514      	movs	r5, #20
 8004764:	fb05 6509 	mla	r5, r5, r9, r6
 8004768:	f004 fe24 	bl	80093b4 <fiprintf>
 800476c:	f7fc fa54 	bl	8000c18 <osResumeAllTasks>
 8004770:	f7fc fa48 	bl	8000c04 <osSuspendAllTasks>
 8004774:	6823      	ldr	r3, [r4, #0]
 8004776:	f8d5 01dc 	ldr.w	r0, [r5, #476]	; 0x1dc
 800477a:	f8d3 800c 	ldr.w	r8, [r3, #12]
 800477e:	2100      	movs	r1, #0
 8004780:	f001 fe5e 	bl	8006440 <ipv4AddrToString>
 8004784:	4938      	ldr	r1, [pc, #224]	; (8004868 <dhcpClientDumpConfig+0x18c>)
 8004786:	4602      	mov	r2, r0
 8004788:	4640      	mov	r0, r8
 800478a:	f004 fe13 	bl	80093b4 <fiprintf>
 800478e:	f7fc fa43 	bl	8000c18 <osResumeAllTasks>
 8004792:	f7fc fa37 	bl	8000c04 <osSuspendAllTasks>
 8004796:	6823      	ldr	r3, [r4, #0]
 8004798:	f8d5 01e8 	ldr.w	r0, [r5, #488]	; 0x1e8
 800479c:	f8d3 800c 	ldr.w	r8, [r3, #12]
 80047a0:	2100      	movs	r1, #0
 80047a2:	f001 fe4d 	bl	8006440 <ipv4AddrToString>
 80047a6:	4931      	ldr	r1, [pc, #196]	; (800486c <dhcpClientDumpConfig+0x190>)
 80047a8:	4602      	mov	r2, r0
 80047aa:	4640      	mov	r0, r8
 80047ac:	f004 fe02 	bl	80093b4 <fiprintf>
 80047b0:	f7fc fa32 	bl	8000c18 <osResumeAllTasks>
 80047b4:	f7fc fa26 	bl	8000c04 <osSuspendAllTasks>
 80047b8:	6823      	ldr	r3, [r4, #0]
 80047ba:	f8d5 01ec 	ldr.w	r0, [r5, #492]	; 0x1ec
 80047be:	f8d3 800c 	ldr.w	r8, [r3, #12]
 80047c2:	4d2b      	ldr	r5, [pc, #172]	; (8004870 <dhcpClientDumpConfig+0x194>)
 80047c4:	2100      	movs	r1, #0
 80047c6:	f001 fe3b 	bl	8006440 <ipv4AddrToString>
 80047ca:	492a      	ldr	r1, [pc, #168]	; (8004874 <dhcpClientDumpConfig+0x198>)
 80047cc:	4602      	mov	r2, r0
 80047ce:	4640      	mov	r0, r8
 80047d0:	f004 fdf0 	bl	80093b4 <fiprintf>
 80047d4:	f7fc fa20 	bl	8000c18 <osResumeAllTasks>
 80047d8:	f7fc fa14 	bl	8000c04 <osSuspendAllTasks>
 80047dc:	6823      	ldr	r3, [r4, #0]
 80047de:	f8d6 01f0 	ldr.w	r0, [r6, #496]	; 0x1f0
 80047e2:	f8d3 800c 	ldr.w	r8, [r3, #12]
 80047e6:	2100      	movs	r1, #0
 80047e8:	f001 fe2a 	bl	8006440 <ipv4AddrToString>
 80047ec:	2201      	movs	r2, #1
 80047ee:	4603      	mov	r3, r0
 80047f0:	4629      	mov	r1, r5
 80047f2:	4640      	mov	r0, r8
 80047f4:	f004 fdde 	bl	80093b4 <fiprintf>
 80047f8:	f7fc fa0e 	bl	8000c18 <osResumeAllTasks>
 80047fc:	f7fc fa02 	bl	8000c04 <osSuspendAllTasks>
 8004800:	6823      	ldr	r3, [r4, #0]
 8004802:	f8d6 01f4 	ldr.w	r0, [r6, #500]	; 0x1f4
 8004806:	f8d3 800c 	ldr.w	r8, [r3, #12]
 800480a:	2100      	movs	r1, #0
 800480c:	f001 fe18 	bl	8006440 <ipv4AddrToString>
 8004810:	4629      	mov	r1, r5
 8004812:	4603      	mov	r3, r0
 8004814:	2202      	movs	r2, #2
 8004816:	4640      	mov	r0, r8
 8004818:	f004 fdcc 	bl	80093b4 <fiprintf>
 800481c:	f7fc f9fc 	bl	8000c18 <osResumeAllTasks>
 8004820:	f7fc f9f0 	bl	8000c04 <osSuspendAllTasks>
 8004824:	6823      	ldr	r3, [r4, #0]
 8004826:	f8d6 21cc 	ldr.w	r2, [r6, #460]	; 0x1cc
 800482a:	4913      	ldr	r1, [pc, #76]	; (8004878 <dhcpClientDumpConfig+0x19c>)
 800482c:	68d8      	ldr	r0, [r3, #12]
 800482e:	f004 fdc1 	bl	80093b4 <fiprintf>
 8004832:	f7fc f9f1 	bl	8000c18 <osResumeAllTasks>
 8004836:	f7fc f9e5 	bl	8000c04 <osSuspendAllTasks>
 800483a:	6823      	ldr	r3, [r4, #0]
 800483c:	4638      	mov	r0, r7
 800483e:	68d9      	ldr	r1, [r3, #12]
 8004840:	f004 fe30 	bl	80094a4 <fputs>
 8004844:	e8bd 43f8 	ldmia.w	sp!, {r3, r4, r5, r6, r7, r8, r9, lr}
 8004848:	f7fc b9e6 	b.w	8000c18 <osResumeAllTasks>
 800484c:	20000010 	.word	0x20000010
 8004850:	0800a904 	.word	0x0800a904
 8004854:	0800aa17 	.word	0x0800aa17
 8004858:	0800aa2d 	.word	0x0800aa2d
 800485c:	0800aa47 	.word	0x0800aa47
 8004860:	0800aa5d 	.word	0x0800aa5d
 8004864:	0800aa6b 	.word	0x0800aa6b
 8004868:	0800aa79 	.word	0x0800aa79
 800486c:	0800aa8f 	.word	0x0800aa8f
 8004870:	0800aabd 	.word	0x0800aabd
 8004874:	0800aaa4 	.word	0x0800aaa4
 8004878:	0800aad4 	.word	0x0800aad4

0800487c <dhcpAddOption>:
 800487c:	b5f8      	push	{r3, r4, r5, r6, r7, lr}
 800487e:	9c06      	ldr	r4, [sp, #24]
 8004880:	460f      	mov	r7, r1
 8004882:	4605      	mov	r5, r0
 8004884:	b300      	cbz	r0, 80048c8 <dhcpAddOption+0x4c>
 8004886:	b1f9      	cbz	r1, 80048c8 <dhcpAddOption+0x4c>
 8004888:	680e      	ldr	r6, [r1, #0]
 800488a:	2ef0      	cmp	r6, #240	; 0xf0
 800488c:	d91e      	bls.n	80048cc <dhcpAddOption+0x50>
 800488e:	b114      	cbz	r4, 8004896 <dhcpAddOption+0x1a>
 8004890:	b1d3      	cbz	r3, 80048c8 <dhcpAddOption+0x4c>
 8004892:	2cff      	cmp	r4, #255	; 0xff
 8004894:	d81a      	bhi.n	80048cc <dhcpAddOption+0x50>
 8004896:	1ca1      	adds	r1, r4, #2
 8004898:	4431      	add	r1, r6
 800489a:	f5b1 7f09 	cmp.w	r1, #548	; 0x224
 800489e:	d817      	bhi.n	80048d0 <dhcpAddOption+0x54>
 80048a0:	f105 01f0 	add.w	r1, r5, #240	; 0xf0
 80048a4:	3ef1      	subs	r6, #241	; 0xf1
 80048a6:	1988      	adds	r0, r1, r6
 80048a8:	558a      	strb	r2, [r1, r6]
 80048aa:	7044      	strb	r4, [r0, #1]
 80048ac:	4622      	mov	r2, r4
 80048ae:	4434      	add	r4, r6
 80048b0:	4619      	mov	r1, r3
 80048b2:	4425      	add	r5, r4
 80048b4:	3002      	adds	r0, #2
 80048b6:	f004 fe32 	bl	800951e <memcpy>
 80048ba:	34f3      	adds	r4, #243	; 0xf3
 80048bc:	23ff      	movs	r3, #255	; 0xff
 80048be:	f885 30f2 	strb.w	r3, [r5, #242]	; 0xf2
 80048c2:	2000      	movs	r0, #0
 80048c4:	603c      	str	r4, [r7, #0]
 80048c6:	bdf8      	pop	{r3, r4, r5, r6, r7, pc}
 80048c8:	2002      	movs	r0, #2
 80048ca:	e7fc      	b.n	80048c6 <dhcpAddOption+0x4a>
 80048cc:	20ec      	movs	r0, #236	; 0xec
 80048ce:	e7fa      	b.n	80048c6 <dhcpAddOption+0x4a>
 80048d0:	f44f 7085 	mov.w	r0, #266	; 0x10a
 80048d4:	e7f7      	b.n	80048c6 <dhcpAddOption+0x4a>

080048d6 <dhcpGetOption>:
 80048d6:	29ef      	cmp	r1, #239	; 0xef
 80048d8:	b570      	push	{r4, r5, r6, lr}
 80048da:	d905      	bls.n	80048e8 <dhcpGetOption+0x12>
 80048dc:	39f0      	subs	r1, #240	; 0xf0
 80048de:	2300      	movs	r3, #0
 80048e0:	f100 04f0 	add.w	r4, r0, #240	; 0xf0
 80048e4:	428b      	cmp	r3, r1
 80048e6:	d301      	bcc.n	80048ec <dhcpGetOption+0x16>
 80048e8:	2000      	movs	r0, #0
 80048ea:	bd70      	pop	{r4, r5, r6, pc}
 80048ec:	5ce5      	ldrb	r5, [r4, r3]
 80048ee:	18e0      	adds	r0, r4, r3
 80048f0:	b165      	cbz	r5, 800490c <dhcpGetOption+0x36>
 80048f2:	2dff      	cmp	r5, #255	; 0xff
 80048f4:	d0f8      	beq.n	80048e8 <dhcpGetOption+0x12>
 80048f6:	1c5e      	adds	r6, r3, #1
 80048f8:	428e      	cmp	r6, r1
 80048fa:	d2f5      	bcs.n	80048e8 <dhcpGetOption+0x12>
 80048fc:	7846      	ldrb	r6, [r0, #1]
 80048fe:	4433      	add	r3, r6
 8004900:	1c9e      	adds	r6, r3, #2
 8004902:	428e      	cmp	r6, r1
 8004904:	d8f0      	bhi.n	80048e8 <dhcpGetOption+0x12>
 8004906:	4295      	cmp	r5, r2
 8004908:	d0ef      	beq.n	80048ea <dhcpGetOption+0x14>
 800490a:	3301      	adds	r3, #1
 800490c:	3301      	adds	r3, #1
 800490e:	e7e9      	b.n	80048e4 <dhcpGetOption+0xe>

08004910 <dnsInit>:
 8004910:	b508      	push	{r3, lr}
 8004912:	f44f 7250 	mov.w	r2, #832	; 0x340
 8004916:	2100      	movs	r1, #0
 8004918:	4802      	ldr	r0, [pc, #8]	; (8004924 <dnsInit+0x14>)
 800491a:	f004 fe28 	bl	800956e <memset>
 800491e:	2000      	movs	r0, #0
 8004920:	bd08      	pop	{r3, pc}
 8004922:	bf00      	nop
 8004924:	2000aa00 	.word	0x2000aa00

08004928 <dnsDeleteEntry>:
 8004928:	b510      	push	{r4, lr}
 800492a:	4604      	mov	r4, r0
 800492c:	b158      	cbz	r0, 8004946 <dnsDeleteEntry+0x1e>
 800492e:	7883      	ldrb	r3, [r0, #2]
 8004930:	2b01      	cmp	r3, #1
 8004932:	d106      	bne.n	8004942 <dnsDeleteEntry+0x1a>
 8004934:	7803      	ldrb	r3, [r0, #0]
 8004936:	2b01      	cmp	r3, #1
 8004938:	d103      	bne.n	8004942 <dnsDeleteEntry+0x1a>
 800493a:	8981      	ldrh	r1, [r0, #12]
 800493c:	6840      	ldr	r0, [r0, #4]
 800493e:	f7ff f93d 	bl	8003bbc <udpDetachRxCallback>
 8004942:	2300      	movs	r3, #0
 8004944:	7023      	strb	r3, [r4, #0]
 8004946:	bd10      	pop	{r4, pc}

08004948 <dnsFlushCache>:
 8004948:	b570      	push	{r4, r5, r6, lr}
 800494a:	4c08      	ldr	r4, [pc, #32]	; (800496c <dnsFlushCache+0x24>)
 800494c:	4606      	mov	r6, r0
 800494e:	2500      	movs	r5, #0
 8004950:	7823      	ldrb	r3, [r4, #0]
 8004952:	b12b      	cbz	r3, 8004960 <dnsFlushCache+0x18>
 8004954:	6863      	ldr	r3, [r4, #4]
 8004956:	42b3      	cmp	r3, r6
 8004958:	d102      	bne.n	8004960 <dnsFlushCache+0x18>
 800495a:	4620      	mov	r0, r4
 800495c:	f7ff ffe4 	bl	8004928 <dnsDeleteEntry>
 8004960:	3501      	adds	r5, #1
 8004962:	2d08      	cmp	r5, #8
 8004964:	f104 0468 	add.w	r4, r4, #104	; 0x68
 8004968:	d1f2      	bne.n	8004950 <dnsFlushCache+0x8>
 800496a:	bd70      	pop	{r4, r5, r6, pc}
 800496c:	2000aa00 	.word	0x2000aa00

08004970 <dnsTick>:
 8004970:	e92d 41f0 	stmdb	sp!, {r4, r5, r6, r7, r8, lr}
 8004974:	f7fc f999 	bl	8000caa <osGetSystemTime>
 8004978:	4c21      	ldr	r4, [pc, #132]	; (8004a00 <dnsTick+0x90>)
 800497a:	4605      	mov	r5, r0
 800497c:	2600      	movs	r6, #0
 800497e:	2703      	movs	r7, #3
 8004980:	f44f 787a 	mov.w	r8, #1000	; 0x3e8
 8004984:	7823      	ldrb	r3, [r4, #0]
 8004986:	2b01      	cmp	r3, #1
 8004988:	d12d      	bne.n	80049e6 <dnsTick+0x76>
 800498a:	e9d4 3216 	ldrd	r3, r2, [r4, #88]	; 0x58
 800498e:	4413      	add	r3, r2
 8004990:	1aeb      	subs	r3, r5, r3
 8004992:	2b00      	cmp	r3, #0
 8004994:	db13      	blt.n	80049be <dnsTick+0x4e>
 8004996:	6e62      	ldr	r2, [r4, #100]	; 0x64
 8004998:	78a3      	ldrb	r3, [r4, #2]
 800499a:	b1ba      	cbz	r2, 80049cc <dnsTick+0x5c>
 800499c:	2b01      	cmp	r3, #1
 800499e:	d12a      	bne.n	80049f6 <dnsTick+0x86>
 80049a0:	4620      	mov	r0, r4
 80049a2:	f000 f82f 	bl	8004a04 <dnsSendQuery>
 80049a6:	bb30      	cbnz	r0, 80049f6 <dnsTick+0x86>
 80049a8:	6de3      	ldr	r3, [r4, #92]	; 0x5c
 80049aa:	6e22      	ldr	r2, [r4, #96]	; 0x60
 80049ac:	65a5      	str	r5, [r4, #88]	; 0x58
 80049ae:	005b      	lsls	r3, r3, #1
 80049b0:	4293      	cmp	r3, r2
 80049b2:	bf94      	ite	ls
 80049b4:	65e3      	strls	r3, [r4, #92]	; 0x5c
 80049b6:	65e2      	strhi	r2, [r4, #92]	; 0x5c
 80049b8:	6e63      	ldr	r3, [r4, #100]	; 0x64
 80049ba:	3b01      	subs	r3, #1
 80049bc:	6663      	str	r3, [r4, #100]	; 0x64
 80049be:	3601      	adds	r6, #1
 80049c0:	2e08      	cmp	r6, #8
 80049c2:	f104 0468 	add.w	r4, r4, #104	; 0x68
 80049c6:	d1dd      	bne.n	8004984 <dnsTick+0x14>
 80049c8:	e8bd 81f0 	ldmia.w	sp!, {r4, r5, r6, r7, r8, pc}
 80049cc:	2b01      	cmp	r3, #1
 80049ce:	d112      	bne.n	80049f6 <dnsTick+0x86>
 80049d0:	68a3      	ldr	r3, [r4, #8]
 80049d2:	6667      	str	r7, [r4, #100]	; 0x64
 80049d4:	3301      	adds	r3, #1
 80049d6:	4620      	mov	r0, r4
 80049d8:	60a3      	str	r3, [r4, #8]
 80049da:	f000 f813 	bl	8004a04 <dnsSendQuery>
 80049de:	b950      	cbnz	r0, 80049f6 <dnsTick+0x86>
 80049e0:	e9c4 5816 	strd	r5, r8, [r4, #88]	; 0x58
 80049e4:	e7e8      	b.n	80049b8 <dnsTick+0x48>
 80049e6:	2b02      	cmp	r3, #2
 80049e8:	d1e9      	bne.n	80049be <dnsTick+0x4e>
 80049ea:	e9d4 3216 	ldrd	r3, r2, [r4, #88]	; 0x58
 80049ee:	4413      	add	r3, r2
 80049f0:	1aeb      	subs	r3, r5, r3
 80049f2:	2b00      	cmp	r3, #0
 80049f4:	dbe3      	blt.n	80049be <dnsTick+0x4e>
 80049f6:	4620      	mov	r0, r4
 80049f8:	f7ff ff96 	bl	8004928 <dnsDeleteEntry>
 80049fc:	e7df      	b.n	80049be <dnsTick+0x4e>
 80049fe:	bf00      	nop
 8004a00:	2000aa00 	.word	0x2000aa00

08004a04 <dnsSendQuery>:
 8004a04:	e92d 41f0 	stmdb	sp!, {r4, r5, r6, r7, r8, lr}
 8004a08:	7843      	ldrb	r3, [r0, #1]
 8004a0a:	2b10      	cmp	r3, #16
 8004a0c:	b08e      	sub	sp, #56	; 0x38
 8004a0e:	4605      	mov	r5, r0
 8004a10:	d173      	bne.n	8004afa <dnsSendQuery+0xf6>
 8004a12:	6841      	ldr	r1, [r0, #4]
 8004a14:	68ab      	ldr	r3, [r5, #8]
 8004a16:	2b01      	cmp	r3, #1
 8004a18:	d86a      	bhi.n	8004af0 <dnsSendQuery+0xec>
 8004a1a:	eb01 0283 	add.w	r2, r1, r3, lsl #2
 8004a1e:	f8d2 21f0 	ldr.w	r2, [r2, #496]	; 0x1f0
 8004a22:	b912      	cbnz	r2, 8004a2a <dnsSendQuery+0x26>
 8004a24:	3301      	adds	r3, #1
 8004a26:	60ab      	str	r3, [r5, #8]
 8004a28:	e7f4      	b.n	8004a14 <dnsSendQuery+0x10>
 8004a2a:	2304      	movs	r3, #4
 8004a2c:	a905      	add	r1, sp, #20
 8004a2e:	f44f 7000 	mov.w	r0, #512	; 0x200
 8004a32:	e9cd 3206 	strd	r3, r2, [sp, #24]
 8004a36:	f7ff f873 	bl	8003b20 <udpAllocBuffer>
 8004a3a:	4607      	mov	r7, r0
 8004a3c:	2800      	cmp	r0, #0
 8004a3e:	d05a      	beq.n	8004af6 <dnsSendQuery+0xf2>
 8004a40:	9905      	ldr	r1, [sp, #20]
 8004a42:	f7fc fe9c 	bl	800177e <netBufferAt>
 8004a46:	4604      	mov	r4, r0
 8004a48:	89e8      	ldrh	r0, [r5, #14]
 8004a4a:	f7fc f87c 	bl	8000b46 <swapInt16>
 8004a4e:	2600      	movs	r6, #0
 8004a50:	f04f 0801 	mov.w	r8, #1
 8004a54:	8020      	strh	r0, [r4, #0]
 8004a56:	f884 8002 	strb.w	r8, [r4, #2]
 8004a5a:	70e6      	strb	r6, [r4, #3]
 8004a5c:	7126      	strb	r6, [r4, #4]
 8004a5e:	f884 8005 	strb.w	r8, [r4, #5]
 8004a62:	71a6      	strb	r6, [r4, #6]
 8004a64:	71e6      	strb	r6, [r4, #7]
 8004a66:	7226      	strb	r6, [r4, #8]
 8004a68:	7266      	strb	r6, [r4, #9]
 8004a6a:	72a6      	strb	r6, [r4, #10]
 8004a6c:	72e6      	strb	r6, [r4, #11]
 8004a6e:	f104 010c 	add.w	r1, r4, #12
 8004a72:	f105 0010 	add.w	r0, r5, #16
 8004a76:	f000 f849 	bl	8004b0c <dnsEncodeName>
 8004a7a:	786b      	ldrb	r3, [r5, #1]
 8004a7c:	2b10      	cmp	r3, #16
 8004a7e:	d108      	bne.n	8004a92 <dnsSendQuery+0x8e>
 8004a80:	f100 020c 	add.w	r2, r0, #12
 8004a84:	18a3      	adds	r3, r4, r2
 8004a86:	54a6      	strb	r6, [r4, r2]
 8004a88:	f883 8001 	strb.w	r8, [r3, #1]
 8004a8c:	709e      	strb	r6, [r3, #2]
 8004a8e:	f883 8003 	strb.w	r8, [r3, #3]
 8004a92:	9905      	ldr	r1, [sp, #20]
 8004a94:	4e1a      	ldr	r6, [pc, #104]	; (8004b00 <dnsSendQuery+0xfc>)
 8004a96:	f100 0410 	add.w	r4, r0, #16
 8004a9a:	4421      	add	r1, r4
 8004a9c:	4638      	mov	r0, r7
 8004a9e:	f7fc fdeb 	bl	8001678 <netBufferSetLength>
 8004aa2:	f7fc f8af 	bl	8000c04 <osSuspendAllTasks>
 8004aa6:	4b17      	ldr	r3, [pc, #92]	; (8004b04 <dnsSendQuery+0x100>)
 8004aa8:	4917      	ldr	r1, [pc, #92]	; (8004b08 <dnsSendQuery+0x104>)
 8004aaa:	681b      	ldr	r3, [r3, #0]
 8004aac:	4622      	mov	r2, r4
 8004aae:	68d8      	ldr	r0, [r3, #12]
 8004ab0:	f004 fc80 	bl	80093b4 <fiprintf>
 8004ab4:	f7fc f8b0 	bl	8000c18 <osResumeAllTasks>
 8004ab8:	ce0f      	ldmia	r6!, {r0, r1, r2, r3}
 8004aba:	ac08      	add	r4, sp, #32
 8004abc:	c40f      	stmia	r4!, {r0, r1, r2, r3}
 8004abe:	e896 0003 	ldmia.w	r6, {r0, r1}
 8004ac2:	ab08      	add	r3, sp, #32
 8004ac4:	e884 0003 	stmia.w	r4, {r0, r1}
 8004ac8:	9303      	str	r3, [sp, #12]
 8004aca:	9b05      	ldr	r3, [sp, #20]
 8004acc:	89aa      	ldrh	r2, [r5, #12]
 8004ace:	6868      	ldr	r0, [r5, #4]
 8004ad0:	e9cd 7301 	strd	r7, r3, [sp, #4]
 8004ad4:	2335      	movs	r3, #53	; 0x35
 8004ad6:	9300      	str	r3, [sp, #0]
 8004ad8:	2100      	movs	r1, #0
 8004ada:	ab06      	add	r3, sp, #24
 8004adc:	f7fe ffb2 	bl	8003a44 <udpSendBuffer>
 8004ae0:	4604      	mov	r4, r0
 8004ae2:	4638      	mov	r0, r7
 8004ae4:	f7fc fe21 	bl	800172a <netBufferFree>
 8004ae8:	4620      	mov	r0, r4
 8004aea:	b00e      	add	sp, #56	; 0x38
 8004aec:	e8bd 81f0 	ldmia.w	sp!, {r4, r5, r6, r7, r8, pc}
 8004af0:	f240 2425 	movw	r4, #549	; 0x225
 8004af4:	e7f8      	b.n	8004ae8 <dnsSendQuery+0xe4>
 8004af6:	2464      	movs	r4, #100	; 0x64
 8004af8:	e7f6      	b.n	8004ae8 <dnsSendQuery+0xe4>
 8004afa:	2402      	movs	r4, #2
 8004afc:	e7f4      	b.n	8004ae8 <dnsSendQuery+0xe4>
 8004afe:	bf00      	nop
 8004b00:	0800a9e4 	.word	0x0800a9e4
 8004b04:	20000010 	.word	0x20000010
 8004b08:	0800ab60 	.word	0x0800ab60

08004b0c <dnsEncodeName>:
 8004b0c:	b510      	push	{r4, lr}
 8004b0e:	2400      	movs	r4, #0
 8004b10:	4623      	mov	r3, r4
 8004b12:	5cc2      	ldrb	r2, [r0, r3]
 8004b14:	b94a      	cbnz	r2, 8004b2a <dnsEncodeName+0x1e>
 8004b16:	1e58      	subs	r0, r3, #1
 8004b18:	283e      	cmp	r0, #62	; 0x3e
 8004b1a:	d81a      	bhi.n	8004b52 <dnsEncodeName+0x46>
 8004b1c:	b111      	cbz	r1, 8004b24 <dnsEncodeName+0x18>
 8004b1e:	700b      	strb	r3, [r1, #0]
 8004b20:	4419      	add	r1, r3
 8004b22:	704a      	strb	r2, [r1, #1]
 8004b24:	4423      	add	r3, r4
 8004b26:	1c98      	adds	r0, r3, #2
 8004b28:	bd10      	pop	{r4, pc}
 8004b2a:	2a2e      	cmp	r2, #46	; 0x2e
 8004b2c:	d10c      	bne.n	8004b48 <dnsEncodeName+0x3c>
 8004b2e:	1e5a      	subs	r2, r3, #1
 8004b30:	2a3e      	cmp	r2, #62	; 0x3e
 8004b32:	d80e      	bhi.n	8004b52 <dnsEncodeName+0x46>
 8004b34:	b101      	cbz	r1, 8004b38 <dnsEncodeName+0x2c>
 8004b36:	700b      	strb	r3, [r1, #0]
 8004b38:	441c      	add	r4, r3
 8004b3a:	3401      	adds	r4, #1
 8004b3c:	3301      	adds	r3, #1
 8004b3e:	b101      	cbz	r1, 8004b42 <dnsEncodeName+0x36>
 8004b40:	4419      	add	r1, r3
 8004b42:	4418      	add	r0, r3
 8004b44:	2300      	movs	r3, #0
 8004b46:	e7e4      	b.n	8004b12 <dnsEncodeName+0x6>
 8004b48:	3301      	adds	r3, #1
 8004b4a:	2900      	cmp	r1, #0
 8004b4c:	d0e1      	beq.n	8004b12 <dnsEncodeName+0x6>
 8004b4e:	54ca      	strb	r2, [r1, r3]
 8004b50:	e7df      	b.n	8004b12 <dnsEncodeName+0x6>
 8004b52:	2000      	movs	r0, #0
 8004b54:	e7e8      	b.n	8004b28 <dnsEncodeName+0x1c>
	...

08004b58 <dnsParseName>:
 8004b58:	e92d 43f7 	stmdb	sp!, {r0, r1, r2, r4, r5, r6, r7, r8, r9, lr}
 8004b5c:	f8dd 8028 	ldr.w	r8, [sp, #40]	; 0x28
 8004b60:	f1b8 0f03 	cmp.w	r8, #3
 8004b64:	4607      	mov	r7, r0
 8004b66:	460e      	mov	r6, r1
 8004b68:	4614      	mov	r4, r2
 8004b6a:	d803      	bhi.n	8004b74 <dnsParseName+0x1c>
 8004b6c:	f04f 092e 	mov.w	r9, #46	; 0x2e
 8004b70:	42b4      	cmp	r4, r6
 8004b72:	d303      	bcc.n	8004b7c <dnsParseName+0x24>
 8004b74:	2000      	movs	r0, #0
 8004b76:	b003      	add	sp, #12
 8004b78:	e8bd 83f0 	ldmia.w	sp!, {r4, r5, r6, r7, r8, r9, pc}
 8004b7c:	5d3d      	ldrb	r5, [r7, r4]
 8004b7e:	b91d      	cbnz	r5, 8004b88 <dnsParseName+0x30>
 8004b80:	b103      	cbz	r3, 8004b84 <dnsParseName+0x2c>
 8004b82:	701d      	strb	r5, [r3, #0]
 8004b84:	1c60      	adds	r0, r4, #1
 8004b86:	e7f6      	b.n	8004b76 <dnsParseName+0x1e>
 8004b88:	2dbf      	cmp	r5, #191	; 0xbf
 8004b8a:	d912      	bls.n	8004bb2 <dnsParseName+0x5a>
 8004b8c:	1c61      	adds	r1, r4, #1
 8004b8e:	42b1      	cmp	r1, r6
 8004b90:	d2f0      	bcs.n	8004b74 <dnsParseName+0x1c>
 8004b92:	4a16      	ldr	r2, [pc, #88]	; (8004bec <dnsParseName+0x94>)
 8004b94:	ea02 2505 	and.w	r5, r2, r5, lsl #8
 8004b98:	5c7a      	ldrb	r2, [r7, r1]
 8004b9a:	f108 0101 	add.w	r1, r8, #1
 8004b9e:	9100      	str	r1, [sp, #0]
 8004ba0:	432a      	orrs	r2, r5
 8004ba2:	4631      	mov	r1, r6
 8004ba4:	4638      	mov	r0, r7
 8004ba6:	f7ff ffd7 	bl	8004b58 <dnsParseName>
 8004baa:	2800      	cmp	r0, #0
 8004bac:	d0e2      	beq.n	8004b74 <dnsParseName+0x1c>
 8004bae:	1ca0      	adds	r0, r4, #2
 8004bb0:	e7e1      	b.n	8004b76 <dnsParseName+0x1e>
 8004bb2:	2d3e      	cmp	r5, #62	; 0x3e
 8004bb4:	d814      	bhi.n	8004be0 <dnsParseName+0x88>
 8004bb6:	1c61      	adds	r1, r4, #1
 8004bb8:	194c      	adds	r4, r1, r5
 8004bba:	42b4      	cmp	r4, r6
 8004bbc:	d8da      	bhi.n	8004b74 <dnsParseName+0x1c>
 8004bbe:	2b00      	cmp	r3, #0
 8004bc0:	d0d6      	beq.n	8004b70 <dnsParseName+0x18>
 8004bc2:	4618      	mov	r0, r3
 8004bc4:	462a      	mov	r2, r5
 8004bc6:	4439      	add	r1, r7
 8004bc8:	f004 fca9 	bl	800951e <memcpy>
 8004bcc:	42b4      	cmp	r4, r6
 8004bce:	4603      	mov	r3, r0
 8004bd0:	442b      	add	r3, r5
 8004bd2:	d2cf      	bcs.n	8004b74 <dnsParseName+0x1c>
 8004bd4:	5d3a      	ldrb	r2, [r7, r4]
 8004bd6:	2a00      	cmp	r2, #0
 8004bd8:	d0ca      	beq.n	8004b70 <dnsParseName+0x18>
 8004bda:	f803 9b01 	strb.w	r9, [r3], #1
 8004bde:	e7c7      	b.n	8004b70 <dnsParseName+0x18>
 8004be0:	2b00      	cmp	r3, #0
 8004be2:	d0c7      	beq.n	8004b74 <dnsParseName+0x1c>
 8004be4:	2000      	movs	r0, #0
 8004be6:	7018      	strb	r0, [r3, #0]
 8004be8:	e7c5      	b.n	8004b76 <dnsParseName+0x1e>
 8004bea:	bf00      	nop
 8004bec:	ffff3f00 	.word	0xffff3f00

08004bf0 <dnsCompareName>:
 8004bf0:	e92d 47f0 	stmdb	sp!, {r4, r5, r6, r7, r8, r9, sl, lr}
 8004bf4:	f8dd 9020 	ldr.w	r9, [sp, #32]
 8004bf8:	f8df a074 	ldr.w	sl, [pc, #116]	; 8004c70 <dnsCompareName+0x80>
 8004bfc:	4680      	mov	r8, r0
 8004bfe:	460f      	mov	r7, r1
 8004c00:	4614      	mov	r4, r2
 8004c02:	461d      	mov	r5, r3
 8004c04:	f1b9 0f03 	cmp.w	r9, #3
 8004c08:	d91f      	bls.n	8004c4a <dnsCompareName+0x5a>
 8004c0a:	f06f 0001 	mvn.w	r0, #1
 8004c0e:	e027      	b.n	8004c60 <dnsCompareName+0x70>
 8004c10:	2ebf      	cmp	r6, #191	; 0xbf
 8004c12:	f104 0001 	add.w	r0, r4, #1
 8004c16:	d909      	bls.n	8004c2c <dnsCompareName+0x3c>
 8004c18:	42b8      	cmp	r0, r7
 8004c1a:	d223      	bcs.n	8004c64 <dnsCompareName+0x74>
 8004c1c:	f818 4000 	ldrb.w	r4, [r8, r0]
 8004c20:	ea0a 2606 	and.w	r6, sl, r6, lsl #8
 8004c24:	4334      	orrs	r4, r6
 8004c26:	f109 0901 	add.w	r9, r9, #1
 8004c2a:	e7eb      	b.n	8004c04 <dnsCompareName+0x14>
 8004c2c:	1984      	adds	r4, r0, r6
 8004c2e:	42bc      	cmp	r4, r7
 8004c30:	d8eb      	bhi.n	8004c0a <dnsCompareName+0x1a>
 8004c32:	4632      	mov	r2, r6
 8004c34:	4629      	mov	r1, r5
 8004c36:	4440      	add	r0, r8
 8004c38:	f004 ffae 	bl	8009b98 <strncasecmp>
 8004c3c:	b980      	cbnz	r0, 8004c60 <dnsCompareName+0x70>
 8004c3e:	4435      	add	r5, r6
 8004c40:	782b      	ldrb	r3, [r5, #0]
 8004c42:	b113      	cbz	r3, 8004c4a <dnsCompareName+0x5a>
 8004c44:	2b2e      	cmp	r3, #46	; 0x2e
 8004c46:	d10f      	bne.n	8004c68 <dnsCompareName+0x78>
 8004c48:	3501      	adds	r5, #1
 8004c4a:	42bc      	cmp	r4, r7
 8004c4c:	d2dd      	bcs.n	8004c0a <dnsCompareName+0x1a>
 8004c4e:	f818 6004 	ldrb.w	r6, [r8, r4]
 8004c52:	2e00      	cmp	r6, #0
 8004c54:	d1dc      	bne.n	8004c10 <dnsCompareName+0x20>
 8004c56:	7828      	ldrb	r0, [r5, #0]
 8004c58:	3800      	subs	r0, #0
 8004c5a:	bf18      	it	ne
 8004c5c:	2001      	movne	r0, #1
 8004c5e:	4240      	negs	r0, r0
 8004c60:	e8bd 87f0 	ldmia.w	sp!, {r4, r5, r6, r7, r8, r9, sl, pc}
 8004c64:	2000      	movs	r0, #0
 8004c66:	e7fb      	b.n	8004c60 <dnsCompareName+0x70>
 8004c68:	f04f 30ff 	mov.w	r0, #4294967295	; 0xffffffff
 8004c6c:	e7f8      	b.n	8004c60 <dnsCompareName+0x70>
 8004c6e:	bf00      	nop
 8004c70:	ffff3f00 	.word	0xffff3f00

08004c74 <enc28j60Tick>:
 8004c74:	4770      	bx	lr

08004c76 <enc28j60EnableIrq>:
 8004c76:	6c03      	ldr	r3, [r0, #64]	; 0x40
 8004c78:	685b      	ldr	r3, [r3, #4]
 8004c7a:	4718      	bx	r3

08004c7c <enc28j60DisableIrq>:
 8004c7c:	6c03      	ldr	r3, [r0, #64]	; 0x40
 8004c7e:	689b      	ldr	r3, [r3, #8]
 8004c80:	4718      	bx	r3

08004c82 <enc28j60SoftReset>:
 8004c82:	6b83      	ldr	r3, [r0, #56]	; 0x38
 8004c84:	b510      	push	{r4, lr}
 8004c86:	4604      	mov	r4, r0
 8004c88:	68db      	ldr	r3, [r3, #12]
 8004c8a:	4798      	blx	r3
 8004c8c:	6ba3      	ldr	r3, [r4, #56]	; 0x38
 8004c8e:	20ff      	movs	r0, #255	; 0xff
 8004c90:	695b      	ldr	r3, [r3, #20]
 8004c92:	4798      	blx	r3
 8004c94:	6ba3      	ldr	r3, [r4, #56]	; 0x38
 8004c96:	e8bd 4010 	ldmia.w	sp!, {r4, lr}
 8004c9a:	691b      	ldr	r3, [r3, #16]
 8004c9c:	4718      	bx	r3

08004c9e <enc28j60WriteBuffer>:
 8004c9e:	6b83      	ldr	r3, [r0, #56]	; 0x38
 8004ca0:	e92d 47f0 	stmdb	sp!, {r4, r5, r6, r7, r8, r9, sl, lr}
 8004ca4:	4606      	mov	r6, r0
 8004ca6:	68db      	ldr	r3, [r3, #12]
 8004ca8:	460f      	mov	r7, r1
 8004caa:	4614      	mov	r4, r2
 8004cac:	4798      	blx	r3
 8004cae:	6bb3      	ldr	r3, [r6, #56]	; 0x38
 8004cb0:	207a      	movs	r0, #122	; 0x7a
 8004cb2:	695b      	ldr	r3, [r3, #20]
 8004cb4:	4798      	blx	r3
 8004cb6:	6bb3      	ldr	r3, [r6, #56]	; 0x38
 8004cb8:	2000      	movs	r0, #0
 8004cba:	695b      	ldr	r3, [r3, #20]
 8004cbc:	4798      	blx	r3
 8004cbe:	46b8      	mov	r8, r7
 8004cc0:	f04f 0900 	mov.w	r9, #0
 8004cc4:	683b      	ldr	r3, [r7, #0]
 8004cc6:	454b      	cmp	r3, r9
 8004cc8:	d804      	bhi.n	8004cd4 <enc28j60WriteBuffer+0x36>
 8004cca:	6bb3      	ldr	r3, [r6, #56]	; 0x38
 8004ccc:	e8bd 47f0 	ldmia.w	sp!, {r4, r5, r6, r7, r8, r9, sl, lr}
 8004cd0:	691b      	ldr	r3, [r3, #16]
 8004cd2:	4718      	bx	r3
 8004cd4:	f8b8 500c 	ldrh.w	r5, [r8, #12]
 8004cd8:	42a5      	cmp	r5, r4
 8004cda:	d910      	bls.n	8004cfe <enc28j60WriteBuffer+0x60>
 8004cdc:	f8d8 3008 	ldr.w	r3, [r8, #8]
 8004ce0:	441c      	add	r4, r3
 8004ce2:	441d      	add	r5, r3
 8004ce4:	6bb3      	ldr	r3, [r6, #56]	; 0x38
 8004ce6:	f814 0b01 	ldrb.w	r0, [r4], #1
 8004cea:	695b      	ldr	r3, [r3, #20]
 8004cec:	4798      	blx	r3
 8004cee:	42a5      	cmp	r5, r4
 8004cf0:	d1f8      	bne.n	8004ce4 <enc28j60WriteBuffer+0x46>
 8004cf2:	2400      	movs	r4, #0
 8004cf4:	f109 0901 	add.w	r9, r9, #1
 8004cf8:	f108 0808 	add.w	r8, r8, #8
 8004cfc:	e7e2      	b.n	8004cc4 <enc28j60WriteBuffer+0x26>
 8004cfe:	1b64      	subs	r4, r4, r5
 8004d00:	e7f8      	b.n	8004cf4 <enc28j60WriteBuffer+0x56>

08004d02 <enc28j60ReadBuffer>:
 8004d02:	6b83      	ldr	r3, [r0, #56]	; 0x38
 8004d04:	b570      	push	{r4, r5, r6, lr}
 8004d06:	4606      	mov	r6, r0
 8004d08:	68db      	ldr	r3, [r3, #12]
 8004d0a:	460c      	mov	r4, r1
 8004d0c:	4615      	mov	r5, r2
 8004d0e:	4798      	blx	r3
 8004d10:	6bb3      	ldr	r3, [r6, #56]	; 0x38
 8004d12:	203a      	movs	r0, #58	; 0x3a
 8004d14:	695b      	ldr	r3, [r3, #20]
 8004d16:	4798      	blx	r3
 8004d18:	4425      	add	r5, r4
 8004d1a:	42ac      	cmp	r4, r5
 8004d1c:	6bb3      	ldr	r3, [r6, #56]	; 0x38
 8004d1e:	d103      	bne.n	8004d28 <enc28j60ReadBuffer+0x26>
 8004d20:	e8bd 4070 	ldmia.w	sp!, {r4, r5, r6, lr}
 8004d24:	691b      	ldr	r3, [r3, #16]
 8004d26:	4718      	bx	r3
 8004d28:	695b      	ldr	r3, [r3, #20]
 8004d2a:	2000      	movs	r0, #0
 8004d2c:	4798      	blx	r3
 8004d2e:	f804 0b01 	strb.w	r0, [r4], #1
 8004d32:	e7f2      	b.n	8004d1a <enc28j60ReadBuffer+0x18>

08004d34 <enc28j60SetBit>:
 8004d34:	6b83      	ldr	r3, [r0, #56]	; 0x38
 8004d36:	b570      	push	{r4, r5, r6, lr}
 8004d38:	4604      	mov	r4, r0
 8004d3a:	68db      	ldr	r3, [r3, #12]
 8004d3c:	460d      	mov	r5, r1
 8004d3e:	4616      	mov	r6, r2
 8004d40:	4798      	blx	r3
 8004d42:	6ba3      	ldr	r3, [r4, #56]	; 0x38
 8004d44:	f005 001f 	and.w	r0, r5, #31
 8004d48:	695b      	ldr	r3, [r3, #20]
 8004d4a:	f040 0080 	orr.w	r0, r0, #128	; 0x80
 8004d4e:	4798      	blx	r3
 8004d50:	6ba3      	ldr	r3, [r4, #56]	; 0x38
 8004d52:	b2f0      	uxtb	r0, r6
 8004d54:	695b      	ldr	r3, [r3, #20]
 8004d56:	4798      	blx	r3
 8004d58:	6ba3      	ldr	r3, [r4, #56]	; 0x38
 8004d5a:	e8bd 4070 	ldmia.w	sp!, {r4, r5, r6, lr}
 8004d5e:	691b      	ldr	r3, [r3, #16]
 8004d60:	4718      	bx	r3

08004d62 <enc28j60ClearBit>:
 8004d62:	6b83      	ldr	r3, [r0, #56]	; 0x38
 8004d64:	b570      	push	{r4, r5, r6, lr}
 8004d66:	4604      	mov	r4, r0
 8004d68:	68db      	ldr	r3, [r3, #12]
 8004d6a:	460d      	mov	r5, r1
 8004d6c:	4616      	mov	r6, r2
 8004d6e:	4798      	blx	r3
 8004d70:	6ba3      	ldr	r3, [r4, #56]	; 0x38
 8004d72:	f005 001f 	and.w	r0, r5, #31
 8004d76:	695b      	ldr	r3, [r3, #20]
 8004d78:	f040 00a0 	orr.w	r0, r0, #160	; 0xa0
 8004d7c:	4798      	blx	r3
 8004d7e:	6ba3      	ldr	r3, [r4, #56]	; 0x38
 8004d80:	b2f0      	uxtb	r0, r6
 8004d82:	695b      	ldr	r3, [r3, #20]
 8004d84:	4798      	blx	r3
 8004d86:	6ba3      	ldr	r3, [r4, #56]	; 0x38
 8004d88:	e8bd 4070 	ldmia.w	sp!, {r4, r5, r6, lr}
 8004d8c:	691b      	ldr	r3, [r3, #16]
 8004d8e:	4718      	bx	r3

08004d90 <enc28j60SelectBank>:
 8004d90:	b538      	push	{r3, r4, r5, lr}
 8004d92:	f8b0 3044 	ldrh.w	r3, [r0, #68]	; 0x44
 8004d96:	f401 6470 	and.w	r4, r1, #3840	; 0xf00
 8004d9a:	42a3      	cmp	r3, r4
 8004d9c:	4605      	mov	r5, r0
 8004d9e:	d006      	beq.n	8004dae <enc28j60SelectBank+0x1e>
 8004da0:	b934      	cbnz	r4, 8004db0 <enc28j60SelectBank+0x20>
 8004da2:	2203      	movs	r2, #3
 8004da4:	211f      	movs	r1, #31
 8004da6:	f7ff ffdc 	bl	8004d62 <enc28j60ClearBit>
 8004daa:	f8a5 4044 	strh.w	r4, [r5, #68]	; 0x44
 8004dae:	bd38      	pop	{r3, r4, r5, pc}
 8004db0:	f5b4 7f80 	cmp.w	r4, #256	; 0x100
 8004db4:	d107      	bne.n	8004dc6 <enc28j60SelectBank+0x36>
 8004db6:	2201      	movs	r2, #1
 8004db8:	211f      	movs	r1, #31
 8004dba:	f7ff ffbb 	bl	8004d34 <enc28j60SetBit>
 8004dbe:	2202      	movs	r2, #2
 8004dc0:	211f      	movs	r1, #31
 8004dc2:	4628      	mov	r0, r5
 8004dc4:	e7ef      	b.n	8004da6 <enc28j60SelectBank+0x16>
 8004dc6:	f5b4 7f00 	cmp.w	r4, #512	; 0x200
 8004dca:	d109      	bne.n	8004de0 <enc28j60SelectBank+0x50>
 8004dcc:	2201      	movs	r2, #1
 8004dce:	211f      	movs	r1, #31
 8004dd0:	f7ff ffc7 	bl	8004d62 <enc28j60ClearBit>
 8004dd4:	2202      	movs	r2, #2
 8004dd6:	211f      	movs	r1, #31
 8004dd8:	4628      	mov	r0, r5
 8004dda:	f7ff ffab 	bl	8004d34 <enc28j60SetBit>
 8004dde:	e7e4      	b.n	8004daa <enc28j60SelectBank+0x1a>
 8004de0:	2203      	movs	r2, #3
 8004de2:	211f      	movs	r1, #31
 8004de4:	e7f9      	b.n	8004dda <enc28j60SelectBank+0x4a>

08004de6 <enc28j60WriteReg>:
 8004de6:	b570      	push	{r4, r5, r6, lr}
 8004de8:	4604      	mov	r4, r0
 8004dea:	460d      	mov	r5, r1
 8004dec:	4616      	mov	r6, r2
 8004dee:	f7ff ffcf 	bl	8004d90 <enc28j60SelectBank>
 8004df2:	6ba3      	ldr	r3, [r4, #56]	; 0x38
 8004df4:	68db      	ldr	r3, [r3, #12]
 8004df6:	4798      	blx	r3
 8004df8:	6ba3      	ldr	r3, [r4, #56]	; 0x38
 8004dfa:	f005 001f 	and.w	r0, r5, #31
 8004dfe:	695b      	ldr	r3, [r3, #20]
 8004e00:	f040 0040 	orr.w	r0, r0, #64	; 0x40
 8004e04:	4798      	blx	r3
 8004e06:	6ba3      	ldr	r3, [r4, #56]	; 0x38
 8004e08:	4630      	mov	r0, r6
 8004e0a:	695b      	ldr	r3, [r3, #20]
 8004e0c:	4798      	blx	r3
 8004e0e:	6ba3      	ldr	r3, [r4, #56]	; 0x38
 8004e10:	e8bd 4070 	ldmia.w	sp!, {r4, r5, r6, lr}
 8004e14:	691b      	ldr	r3, [r3, #16]
 8004e16:	4718      	bx	r3

08004e18 <enc28j60ReadReg>:
 8004e18:	b537      	push	{r0, r1, r2, r4, r5, lr}
 8004e1a:	4604      	mov	r4, r0
 8004e1c:	460d      	mov	r5, r1
 8004e1e:	f7ff ffb7 	bl	8004d90 <enc28j60SelectBank>
 8004e22:	6ba3      	ldr	r3, [r4, #56]	; 0x38
 8004e24:	68db      	ldr	r3, [r3, #12]
 8004e26:	4798      	blx	r3
 8004e28:	6ba3      	ldr	r3, [r4, #56]	; 0x38
 8004e2a:	f005 001f 	and.w	r0, r5, #31
 8004e2e:	695b      	ldr	r3, [r3, #20]
 8004e30:	4798      	blx	r3
 8004e32:	f415 4f70 	tst.w	r5, #61440	; 0xf000
 8004e36:	d003      	beq.n	8004e40 <enc28j60ReadReg+0x28>
 8004e38:	6ba3      	ldr	r3, [r4, #56]	; 0x38
 8004e3a:	2000      	movs	r0, #0
 8004e3c:	695b      	ldr	r3, [r3, #20]
 8004e3e:	4798      	blx	r3
 8004e40:	6ba3      	ldr	r3, [r4, #56]	; 0x38
 8004e42:	2000      	movs	r0, #0
 8004e44:	695b      	ldr	r3, [r3, #20]
 8004e46:	4798      	blx	r3
 8004e48:	6ba3      	ldr	r3, [r4, #56]	; 0x38
 8004e4a:	9001      	str	r0, [sp, #4]
 8004e4c:	691b      	ldr	r3, [r3, #16]
 8004e4e:	4798      	blx	r3
 8004e50:	9801      	ldr	r0, [sp, #4]
 8004e52:	b003      	add	sp, #12
 8004e54:	bd30      	pop	{r4, r5, pc}
	...

08004e58 <enc28j60ReceivePacket>:
 8004e58:	b5f0      	push	{r4, r5, r6, r7, lr}
 8004e5a:	f240 1119 	movw	r1, #281	; 0x119
 8004e5e:	b087      	sub	sp, #28
 8004e60:	4604      	mov	r4, r0
 8004e62:	f7ff ffd9 	bl	8004e18 <enc28j60ReadReg>
 8004e66:	2800      	cmp	r0, #0
 8004e68:	d06c      	beq.n	8004f44 <enc28j60ReceivePacket+0xec>
 8004e6a:	f894 2046 	ldrb.w	r2, [r4, #70]	; 0x46
 8004e6e:	2100      	movs	r1, #0
 8004e70:	4620      	mov	r0, r4
 8004e72:	f7ff ffb8 	bl	8004de6 <enc28j60WriteReg>
 8004e76:	f8b4 2046 	ldrh.w	r2, [r4, #70]	; 0x46
 8004e7a:	2101      	movs	r1, #1
 8004e7c:	0a12      	lsrs	r2, r2, #8
 8004e7e:	4620      	mov	r0, r4
 8004e80:	f7ff ffb1 	bl	8004de6 <enc28j60WriteReg>
 8004e84:	2206      	movs	r2, #6
 8004e86:	4669      	mov	r1, sp
 8004e88:	4620      	mov	r0, r4
 8004e8a:	f7ff ff3a 	bl	8004d02 <enc28j60ReadBuffer>
 8004e8e:	f89d 2001 	ldrb.w	r2, [sp, #1]
 8004e92:	f89d 3000 	ldrb.w	r3, [sp]
 8004e96:	f89d 5002 	ldrb.w	r5, [sp, #2]
 8004e9a:	ea43 2302 	orr.w	r3, r3, r2, lsl #8
 8004e9e:	f8a4 3046 	strh.w	r3, [r4, #70]	; 0x46
 8004ea2:	f89d 3003 	ldrb.w	r3, [sp, #3]
 8004ea6:	ea45 2503 	orr.w	r5, r5, r3, lsl #8
 8004eaa:	f89d 3004 	ldrb.w	r3, [sp, #4]
 8004eae:	061b      	lsls	r3, r3, #24
 8004eb0:	d539      	bpl.n	8004f26 <enc28j60ReceivePacket+0xce>
 8004eb2:	f5b5 6fc0 	cmp.w	r5, #1536	; 0x600
 8004eb6:	bf28      	it	cs
 8004eb8:	f44f 65c0 	movcs.w	r5, #1536	; 0x600
 8004ebc:	4923      	ldr	r1, [pc, #140]	; (8004f4c <enc28j60ReceivePacket+0xf4>)
 8004ebe:	462a      	mov	r2, r5
 8004ec0:	4620      	mov	r0, r4
 8004ec2:	f7ff ff1e 	bl	8004d02 <enc28j60ReadBuffer>
 8004ec6:	2700      	movs	r7, #0
 8004ec8:	f8b4 2046 	ldrh.w	r2, [r4, #70]	; 0x46
 8004ecc:	bb72      	cbnz	r2, 8004f2c <enc28j60ReceivePacket+0xd4>
 8004ece:	22ff      	movs	r2, #255	; 0xff
 8004ed0:	210c      	movs	r1, #12
 8004ed2:	4620      	mov	r0, r4
 8004ed4:	f7ff ff87 	bl	8004de6 <enc28j60WriteReg>
 8004ed8:	2217      	movs	r2, #23
 8004eda:	210d      	movs	r1, #13
 8004edc:	4620      	mov	r0, r4
 8004ede:	f7ff ff82 	bl	8004de6 <enc28j60WriteReg>
 8004ee2:	2240      	movs	r2, #64	; 0x40
 8004ee4:	211e      	movs	r1, #30
 8004ee6:	4620      	mov	r0, r4
 8004ee8:	f7ff ff24 	bl	8004d34 <enc28j60SetBit>
 8004eec:	b9c7      	cbnz	r7, 8004f20 <enc28j60ReceivePacket+0xc8>
 8004eee:	4a18      	ldr	r2, [pc, #96]	; (8004f50 <enc28j60ReceivePacket+0xf8>)
 8004ef0:	ae02      	add	r6, sp, #8
 8004ef2:	f102 0e08 	add.w	lr, r2, #8
 8004ef6:	4633      	mov	r3, r6
 8004ef8:	6810      	ldr	r0, [r2, #0]
 8004efa:	6851      	ldr	r1, [r2, #4]
 8004efc:	46b4      	mov	ip, r6
 8004efe:	e8ac 0003 	stmia.w	ip!, {r0, r1}
 8004f02:	3208      	adds	r2, #8
 8004f04:	4572      	cmp	r2, lr
 8004f06:	4666      	mov	r6, ip
 8004f08:	d1f6      	bne.n	8004ef8 <enc28j60ReceivePacket+0xa0>
 8004f0a:	6810      	ldr	r0, [r2, #0]
 8004f0c:	7912      	ldrb	r2, [r2, #4]
 8004f0e:	f8cc 0000 	str.w	r0, [ip]
 8004f12:	f88c 2004 	strb.w	r2, [ip, #4]
 8004f16:	490d      	ldr	r1, [pc, #52]	; (8004f4c <enc28j60ReceivePacket+0xf4>)
 8004f18:	462a      	mov	r2, r5
 8004f1a:	4620      	mov	r0, r4
 8004f1c:	f7fc ff96 	bl	8001e4c <nicProcessPacket>
 8004f20:	4638      	mov	r0, r7
 8004f22:	b007      	add	sp, #28
 8004f24:	bdf0      	pop	{r4, r5, r6, r7, pc}
 8004f26:	f44f 7784 	mov.w	r7, #264	; 0x108
 8004f2a:	e7cd      	b.n	8004ec8 <enc28j60ReceivePacket+0x70>
 8004f2c:	3a01      	subs	r2, #1
 8004f2e:	b2d2      	uxtb	r2, r2
 8004f30:	210c      	movs	r1, #12
 8004f32:	4620      	mov	r0, r4
 8004f34:	f7ff ff57 	bl	8004de6 <enc28j60WriteReg>
 8004f38:	f8b4 2046 	ldrh.w	r2, [r4, #70]	; 0x46
 8004f3c:	3a01      	subs	r2, #1
 8004f3e:	f3c2 2207 	ubfx	r2, r2, #8, #8
 8004f42:	e7ca      	b.n	8004eda <enc28j60ReceivePacket+0x82>
 8004f44:	f240 1709 	movw	r7, #265	; 0x109
 8004f48:	e7ea      	b.n	8004f20 <enc28j60ReceivePacket+0xc8>
 8004f4a:	bf00      	nop
 8004f4c:	20000304 	.word	0x20000304
 8004f50:	0800a9d6 	.word	0x0800a9d6

08004f54 <enc28j60WritePhyReg>:
 8004f54:	b538      	push	{r3, r4, r5, lr}
 8004f56:	4604      	mov	r4, r0
 8004f58:	4615      	mov	r5, r2
 8004f5a:	f001 021f 	and.w	r2, r1, #31
 8004f5e:	f242 2114 	movw	r1, #8724	; 0x2214
 8004f62:	f7ff ff40 	bl	8004de6 <enc28j60WriteReg>
 8004f66:	b2ea      	uxtb	r2, r5
 8004f68:	f242 2116 	movw	r1, #8726	; 0x2216
 8004f6c:	4620      	mov	r0, r4
 8004f6e:	f7ff ff3a 	bl	8004de6 <enc28j60WriteReg>
 8004f72:	0a2a      	lsrs	r2, r5, #8
 8004f74:	f242 2117 	movw	r1, #8727	; 0x2217
 8004f78:	4620      	mov	r0, r4
 8004f7a:	f7ff ff34 	bl	8004de6 <enc28j60WriteReg>
 8004f7e:	f242 310a 	movw	r1, #8970	; 0x230a
 8004f82:	4620      	mov	r0, r4
 8004f84:	f7ff ff48 	bl	8004e18 <enc28j60ReadReg>
 8004f88:	07c3      	lsls	r3, r0, #31
 8004f8a:	d4f8      	bmi.n	8004f7e <enc28j60WritePhyReg+0x2a>
 8004f8c:	bd38      	pop	{r3, r4, r5, pc}

08004f8e <enc28j60ReadPhyReg>:
 8004f8e:	f001 021f 	and.w	r2, r1, #31
 8004f92:	b538      	push	{r3, r4, r5, lr}
 8004f94:	f242 2114 	movw	r1, #8724	; 0x2214
 8004f98:	4604      	mov	r4, r0
 8004f9a:	f7ff ff24 	bl	8004de6 <enc28j60WriteReg>
 8004f9e:	2201      	movs	r2, #1
 8004fa0:	f242 2112 	movw	r1, #8722	; 0x2212
 8004fa4:	4620      	mov	r0, r4
 8004fa6:	f7ff ff1e 	bl	8004de6 <enc28j60WriteReg>
 8004faa:	f242 310a 	movw	r1, #8970	; 0x230a
 8004fae:	4620      	mov	r0, r4
 8004fb0:	f7ff ff32 	bl	8004e18 <enc28j60ReadReg>
 8004fb4:	f010 0201 	ands.w	r2, r0, #1
 8004fb8:	d1f7      	bne.n	8004faa <enc28j60ReadPhyReg+0x1c>
 8004fba:	4620      	mov	r0, r4
 8004fbc:	f242 2112 	movw	r1, #8722	; 0x2212
 8004fc0:	f7ff ff11 	bl	8004de6 <enc28j60WriteReg>
 8004fc4:	f242 2118 	movw	r1, #8728	; 0x2218
 8004fc8:	4620      	mov	r0, r4
 8004fca:	f7ff ff25 	bl	8004e18 <enc28j60ReadReg>
 8004fce:	f242 2119 	movw	r1, #8729	; 0x2219
 8004fd2:	4605      	mov	r5, r0
 8004fd4:	4620      	mov	r0, r4
 8004fd6:	f7ff ff1f 	bl	8004e18 <enc28j60ReadReg>
 8004fda:	ea45 2000 	orr.w	r0, r5, r0, lsl #8
 8004fde:	b280      	uxth	r0, r0
 8004fe0:	bd38      	pop	{r3, r4, r5, pc}
	...

08004fe4 <enc28j60Init>:
 8004fe4:	b57f      	push	{r0, r1, r2, r3, r4, r5, r6, lr}
 8004fe6:	4e95      	ldr	r6, [pc, #596]	; (800523c <enc28j60Init+0x258>)
 8004fe8:	4604      	mov	r4, r0
 8004fea:	f7fb fe0b 	bl	8000c04 <osSuspendAllTasks>
 8004fee:	6833      	ldr	r3, [r6, #0]
 8004ff0:	4893      	ldr	r0, [pc, #588]	; (8005240 <enc28j60Init+0x25c>)
 8004ff2:	68d9      	ldr	r1, [r3, #12]
 8004ff4:	f004 fa56 	bl	80094a4 <fputs>
 8004ff8:	f7fb fe0e 	bl	8000c18 <osResumeAllTasks>
 8004ffc:	6ba3      	ldr	r3, [r4, #56]	; 0x38
 8004ffe:	681b      	ldr	r3, [r3, #0]
 8005000:	4798      	blx	r3
 8005002:	6c23      	ldr	r3, [r4, #64]	; 0x40
 8005004:	681b      	ldr	r3, [r3, #0]
 8005006:	4798      	blx	r3
 8005008:	4620      	mov	r0, r4
 800500a:	f7ff fe3a 	bl	8004c82 <enc28j60SoftReset>
 800500e:	f649 4340 	movw	r3, #40000	; 0x9c40
 8005012:	9303      	str	r3, [sp, #12]
 8005014:	9d03      	ldr	r5, [sp, #12]
 8005016:	2d00      	cmp	r5, #0
 8005018:	f040 810d 	bne.w	8005236 <enc28j60Init+0x252>
 800501c:	f64f 73ff 	movw	r3, #65535	; 0xffff
 8005020:	f8a4 3044 	strh.w	r3, [r4, #68]	; 0x44
 8005024:	f240 3112 	movw	r1, #786	; 0x312
 8005028:	f8a4 5046 	strh.w	r5, [r4, #70]	; 0x46
 800502c:	4620      	mov	r0, r4
 800502e:	f7ff fef3 	bl	8004e18 <enc28j60ReadReg>
 8005032:	9001      	str	r0, [sp, #4]
 8005034:	f7fb fde6 	bl	8000c04 <osSuspendAllTasks>
 8005038:	6833      	ldr	r3, [r6, #0]
 800503a:	9a01      	ldr	r2, [sp, #4]
 800503c:	68d8      	ldr	r0, [r3, #12]
 800503e:	4981      	ldr	r1, [pc, #516]	; (8005244 <enc28j60Init+0x260>)
 8005040:	f004 f9b8 	bl	80093b4 <fiprintf>
 8005044:	f7fb fde8 	bl	8000c18 <osResumeAllTasks>
 8005048:	462a      	mov	r2, r5
 800504a:	4620      	mov	r0, r4
 800504c:	f240 3115 	movw	r1, #789	; 0x315
 8005050:	f7ff fec9 	bl	8004de6 <enc28j60WriteReg>
 8005054:	f894 20cc 	ldrb.w	r2, [r4, #204]	; 0xcc
 8005058:	4620      	mov	r0, r4
 800505a:	f241 3104 	movw	r1, #4868	; 0x1304
 800505e:	f7ff fec2 	bl	8004de6 <enc28j60WriteReg>
 8005062:	f894 20cd 	ldrb.w	r2, [r4, #205]	; 0xcd
 8005066:	4620      	mov	r0, r4
 8005068:	f241 3105 	movw	r1, #4869	; 0x1305
 800506c:	f7ff febb 	bl	8004de6 <enc28j60WriteReg>
 8005070:	f894 20ce 	ldrb.w	r2, [r4, #206]	; 0xce
 8005074:	4620      	mov	r0, r4
 8005076:	f241 3102 	movw	r1, #4866	; 0x1302
 800507a:	f7ff feb4 	bl	8004de6 <enc28j60WriteReg>
 800507e:	f894 20cf 	ldrb.w	r2, [r4, #207]	; 0xcf
 8005082:	4620      	mov	r0, r4
 8005084:	f241 3103 	movw	r1, #4867	; 0x1303
 8005088:	f7ff fead 	bl	8004de6 <enc28j60WriteReg>
 800508c:	f894 20d0 	ldrb.w	r2, [r4, #208]	; 0xd0
 8005090:	4620      	mov	r0, r4
 8005092:	f44f 5198 	mov.w	r1, #4864	; 0x1300
 8005096:	f7ff fea6 	bl	8004de6 <enc28j60WriteReg>
 800509a:	f894 20d1 	ldrb.w	r2, [r4, #209]	; 0xd1
 800509e:	4620      	mov	r0, r4
 80050a0:	f241 3101 	movw	r1, #4865	; 0x1301
 80050a4:	f7ff fe9f 	bl	8004de6 <enc28j60WriteReg>
 80050a8:	462a      	mov	r2, r5
 80050aa:	4620      	mov	r0, r4
 80050ac:	2108      	movs	r1, #8
 80050ae:	f7ff fe9a 	bl	8004de6 <enc28j60WriteReg>
 80050b2:	462a      	mov	r2, r5
 80050b4:	4620      	mov	r0, r4
 80050b6:	2109      	movs	r1, #9
 80050b8:	f7ff fe95 	bl	8004de6 <enc28j60WriteReg>
 80050bc:	4620      	mov	r0, r4
 80050be:	22ff      	movs	r2, #255	; 0xff
 80050c0:	210a      	movs	r1, #10
 80050c2:	f7ff fe90 	bl	8004de6 <enc28j60WriteReg>
 80050c6:	4620      	mov	r0, r4
 80050c8:	2217      	movs	r2, #23
 80050ca:	210b      	movs	r1, #11
 80050cc:	f7ff fe8b 	bl	8004de6 <enc28j60WriteReg>
 80050d0:	4620      	mov	r0, r4
 80050d2:	22ff      	movs	r2, #255	; 0xff
 80050d4:	210c      	movs	r1, #12
 80050d6:	f7ff fe86 	bl	8004de6 <enc28j60WriteReg>
 80050da:	4620      	mov	r0, r4
 80050dc:	2217      	movs	r2, #23
 80050de:	210d      	movs	r1, #13
 80050e0:	f7ff fe81 	bl	8004de6 <enc28j60WriteReg>
 80050e4:	4620      	mov	r0, r4
 80050e6:	22a5      	movs	r2, #165	; 0xa5
 80050e8:	f44f 718c 	mov.w	r1, #280	; 0x118
 80050ec:	f7ff fe7b 	bl	8004de6 <enc28j60WriteReg>
 80050f0:	462a      	mov	r2, r5
 80050f2:	4620      	mov	r0, r4
 80050f4:	f44f 7180 	mov.w	r1, #256	; 0x100
 80050f8:	f7ff fe75 	bl	8004de6 <enc28j60WriteReg>
 80050fc:	462a      	mov	r2, r5
 80050fe:	4620      	mov	r0, r4
 8005100:	f240 1101 	movw	r1, #257	; 0x101
 8005104:	f7ff fe6f 	bl	8004de6 <enc28j60WriteReg>
 8005108:	462a      	mov	r2, r5
 800510a:	4620      	mov	r0, r4
 800510c:	f44f 7181 	mov.w	r1, #258	; 0x102
 8005110:	f7ff fe69 	bl	8004de6 <enc28j60WriteReg>
 8005114:	462a      	mov	r2, r5
 8005116:	4620      	mov	r0, r4
 8005118:	f240 1103 	movw	r1, #259	; 0x103
 800511c:	f7ff fe63 	bl	8004de6 <enc28j60WriteReg>
 8005120:	462a      	mov	r2, r5
 8005122:	4620      	mov	r0, r4
 8005124:	f44f 7182 	mov.w	r1, #260	; 0x104
 8005128:	f7ff fe5d 	bl	8004de6 <enc28j60WriteReg>
 800512c:	462a      	mov	r2, r5
 800512e:	4620      	mov	r0, r4
 8005130:	f240 1105 	movw	r1, #261	; 0x105
 8005134:	f7ff fe57 	bl	8004de6 <enc28j60WriteReg>
 8005138:	462a      	mov	r2, r5
 800513a:	4620      	mov	r0, r4
 800513c:	f44f 7183 	mov.w	r1, #262	; 0x106
 8005140:	f7ff fe51 	bl	8004de6 <enc28j60WriteReg>
 8005144:	462a      	mov	r2, r5
 8005146:	4620      	mov	r0, r4
 8005148:	f240 1107 	movw	r1, #263	; 0x107
 800514c:	f7ff fe4b 	bl	8004de6 <enc28j60WriteReg>
 8005150:	462a      	mov	r2, r5
 8005152:	4620      	mov	r0, r4
 8005154:	f241 2101 	movw	r1, #4609	; 0x1201
 8005158:	f7ff fe45 	bl	8004de6 <enc28j60WriteReg>
 800515c:	4620      	mov	r0, r4
 800515e:	220d      	movs	r2, #13
 8005160:	f44f 5190 	mov.w	r1, #4608	; 0x1200
 8005164:	f7ff fe3f 	bl	8004de6 <enc28j60WriteReg>
 8005168:	4620      	mov	r0, r4
 800516a:	22b3      	movs	r2, #179	; 0xb3
 800516c:	f241 2102 	movw	r1, #4610	; 0x1202
 8005170:	f7ff fe39 	bl	8004de6 <enc28j60WriteReg>
 8005174:	4620      	mov	r0, r4
 8005176:	2240      	movs	r2, #64	; 0x40
 8005178:	f241 2103 	movw	r1, #4611	; 0x1203
 800517c:	f7ff fe33 	bl	8004de6 <enc28j60WriteReg>
 8005180:	462a      	mov	r2, r5
 8005182:	4620      	mov	r0, r4
 8005184:	f241 210a 	movw	r1, #4618	; 0x120a
 8005188:	f7ff fe2d 	bl	8004de6 <enc28j60WriteReg>
 800518c:	4620      	mov	r0, r4
 800518e:	2206      	movs	r2, #6
 8005190:	f241 210b 	movw	r1, #4619	; 0x120b
 8005194:	f7ff fe27 	bl	8004de6 <enc28j60WriteReg>
 8005198:	4620      	mov	r0, r4
 800519a:	2215      	movs	r2, #21
 800519c:	f241 2104 	movw	r1, #4612	; 0x1204
 80051a0:	f7ff fe21 	bl	8004de6 <enc28j60WriteReg>
 80051a4:	4620      	mov	r0, r4
 80051a6:	2212      	movs	r2, #18
 80051a8:	f241 2106 	movw	r1, #4614	; 0x1206
 80051ac:	f7ff fe1b 	bl	8004de6 <enc28j60WriteReg>
 80051b0:	4620      	mov	r0, r4
 80051b2:	220c      	movs	r2, #12
 80051b4:	f241 2107 	movw	r1, #4615	; 0x1207
 80051b8:	f7ff fe15 	bl	8004de6 <enc28j60WriteReg>
 80051bc:	4620      	mov	r0, r4
 80051be:	2237      	movs	r2, #55	; 0x37
 80051c0:	f241 2109 	movw	r1, #4617	; 0x1209
 80051c4:	f7ff fe0f 	bl	8004de6 <enc28j60WriteReg>
 80051c8:	4620      	mov	r0, r4
 80051ca:	f44f 7280 	mov.w	r2, #256	; 0x100
 80051ce:	f44f 5140 	mov.w	r1, #12288	; 0x3000
 80051d2:	f7ff febf 	bl	8004f54 <enc28j60WritePhyReg>
 80051d6:	4620      	mov	r0, r4
 80051d8:	f44f 7280 	mov.w	r2, #256	; 0x100
 80051dc:	f243 0110 	movw	r1, #12304	; 0x3010
 80051e0:	f7ff feb8 	bl	8004f54 <enc28j60WritePhyReg>
 80051e4:	4620      	mov	r0, r4
 80051e6:	f240 4272 	movw	r2, #1138	; 0x472
 80051ea:	f243 0114 	movw	r1, #12308	; 0x3014
 80051ee:	f7ff feb1 	bl	8004f54 <enc28j60WritePhyReg>
 80051f2:	462a      	mov	r2, r5
 80051f4:	4620      	mov	r0, r4
 80051f6:	211c      	movs	r1, #28
 80051f8:	f7ff fdf5 	bl	8004de6 <enc28j60WriteReg>
 80051fc:	4620      	mov	r0, r4
 80051fe:	22da      	movs	r2, #218	; 0xda
 8005200:	211b      	movs	r1, #27
 8005202:	f7ff fdf0 	bl	8004de6 <enc28j60WriteReg>
 8005206:	4620      	mov	r0, r4
 8005208:	2212      	movs	r2, #18
 800520a:	f243 0112 	movw	r1, #12306	; 0x3012
 800520e:	f7ff fea1 	bl	8004f54 <enc28j60WritePhyReg>
 8005212:	2204      	movs	r2, #4
 8005214:	211f      	movs	r1, #31
 8005216:	4620      	mov	r0, r4
 8005218:	f7ff fd8c 	bl	8004d34 <enc28j60SetBit>
 800521c:	f104 0054 	add.w	r0, r4, #84	; 0x54
 8005220:	f7fb fd19 	bl	8000c56 <osSetEvent>
 8005224:	2301      	movs	r3, #1
 8005226:	4808      	ldr	r0, [pc, #32]	; (8005248 <enc28j60Init+0x264>)
 8005228:	f8c4 30a0 	str.w	r3, [r4, #160]	; 0xa0
 800522c:	f7fb fd13 	bl	8000c56 <osSetEvent>
 8005230:	4628      	mov	r0, r5
 8005232:	b004      	add	sp, #16
 8005234:	bd70      	pop	{r4, r5, r6, pc}
 8005236:	9b03      	ldr	r3, [sp, #12]
 8005238:	3b01      	subs	r3, #1
 800523a:	e6ea      	b.n	8005012 <enc28j60Init+0x2e>
 800523c:	20000010 	.word	0x20000010
 8005240:	0800ab84 	.word	0x0800ab84
 8005244:	0800abb3 	.word	0x0800abb3
 8005248:	200088b0 	.word	0x200088b0

0800524c <enc28j60SendPacket>:
 800524c:	e92d 41f0 	stmdb	sp!, {r4, r5, r6, r7, r8, lr}
 8005250:	4604      	mov	r4, r0
 8005252:	4608      	mov	r0, r1
 8005254:	4690      	mov	r8, r2
 8005256:	460f      	mov	r7, r1
 8005258:	f7fc fa00 	bl	800165c <netBufferGetLength>
 800525c:	eba0 0508 	sub.w	r5, r0, r8
 8005260:	f5b5 6fc0 	cmp.w	r5, #1536	; 0x600
 8005264:	d906      	bls.n	8005274 <enc28j60SendPacket+0x28>
 8005266:	f104 0054 	add.w	r0, r4, #84	; 0x54
 800526a:	f7fb fcf4 	bl	8000c56 <osSetEvent>
 800526e:	20ec      	movs	r0, #236	; 0xec
 8005270:	e8bd 81f0 	ldmia.w	sp!, {r4, r5, r6, r7, r8, pc}
 8005274:	f8d4 60a8 	ldr.w	r6, [r4, #168]	; 0xa8
 8005278:	b92e      	cbnz	r6, 8005286 <enc28j60SendPacket+0x3a>
 800527a:	f104 0054 	add.w	r0, r4, #84	; 0x54
 800527e:	f7fb fcea 	bl	8000c56 <osSetEvent>
 8005282:	2000      	movs	r0, #0
 8005284:	e7f4      	b.n	8005270 <enc28j60SendPacket+0x24>
 8005286:	4620      	mov	r0, r4
 8005288:	2280      	movs	r2, #128	; 0x80
 800528a:	211f      	movs	r1, #31
 800528c:	f7ff fd52 	bl	8004d34 <enc28j60SetBit>
 8005290:	4620      	mov	r0, r4
 8005292:	2280      	movs	r2, #128	; 0x80
 8005294:	211f      	movs	r1, #31
 8005296:	f7ff fd64 	bl	8004d62 <enc28j60ClearBit>
 800529a:	4620      	mov	r0, r4
 800529c:	220a      	movs	r2, #10
 800529e:	211c      	movs	r1, #28
 80052a0:	f7ff fd5f 	bl	8004d62 <enc28j60ClearBit>
 80052a4:	4620      	mov	r0, r4
 80052a6:	2200      	movs	r2, #0
 80052a8:	2104      	movs	r1, #4
 80052aa:	f7ff fd9c 	bl	8004de6 <enc28j60WriteReg>
 80052ae:	4620      	mov	r0, r4
 80052b0:	2218      	movs	r2, #24
 80052b2:	2105      	movs	r1, #5
 80052b4:	f7ff fd97 	bl	8004de6 <enc28j60WriteReg>
 80052b8:	4620      	mov	r0, r4
 80052ba:	2200      	movs	r2, #0
 80052bc:	2102      	movs	r1, #2
 80052be:	f7ff fd92 	bl	8004de6 <enc28j60WriteReg>
 80052c2:	4620      	mov	r0, r4
 80052c4:	2218      	movs	r2, #24
 80052c6:	2103      	movs	r1, #3
 80052c8:	f7ff fd8d 	bl	8004de6 <enc28j60WriteReg>
 80052cc:	4642      	mov	r2, r8
 80052ce:	4639      	mov	r1, r7
 80052d0:	4620      	mov	r0, r4
 80052d2:	f7ff fce4 	bl	8004c9e <enc28j60WriteBuffer>
 80052d6:	b2ea      	uxtb	r2, r5
 80052d8:	4620      	mov	r0, r4
 80052da:	2106      	movs	r1, #6
 80052dc:	f7ff fd83 	bl	8004de6 <enc28j60WriteReg>
 80052e0:	f505 52c0 	add.w	r2, r5, #6144	; 0x1800
 80052e4:	4620      	mov	r0, r4
 80052e6:	f3c2 2207 	ubfx	r2, r2, #8, #8
 80052ea:	2107      	movs	r1, #7
 80052ec:	f7ff fd7b 	bl	8004de6 <enc28j60WriteReg>
 80052f0:	2208      	movs	r2, #8
 80052f2:	211f      	movs	r1, #31
 80052f4:	4620      	mov	r0, r4
 80052f6:	f7ff fd1d 	bl	8004d34 <enc28j60SetBit>
 80052fa:	e7c2      	b.n	8005282 <enc28j60SendPacket+0x36>

080052fc <enc28j60IrqHandler>:
 80052fc:	b570      	push	{r4, r5, r6, lr}
 80052fe:	2280      	movs	r2, #128	; 0x80
 8005300:	4604      	mov	r4, r0
 8005302:	211b      	movs	r1, #27
 8005304:	f7ff fd2d 	bl	8004d62 <enc28j60ClearBit>
 8005308:	211c      	movs	r1, #28
 800530a:	4620      	mov	r0, r4
 800530c:	f7ff fd84 	bl	8004e18 <enc28j60ReadReg>
 8005310:	f010 0510 	ands.w	r5, r0, #16
 8005314:	4606      	mov	r6, r0
 8005316:	d00b      	beq.n	8005330 <enc28j60IrqHandler+0x34>
 8005318:	2210      	movs	r2, #16
 800531a:	211b      	movs	r1, #27
 800531c:	4620      	mov	r0, r4
 800531e:	f7ff fd20 	bl	8004d62 <enc28j60ClearBit>
 8005322:	2301      	movs	r3, #1
 8005324:	4815      	ldr	r0, [pc, #84]	; (800537c <enc28j60IrqHandler+0x80>)
 8005326:	f8c4 30a0 	str.w	r3, [r4, #160]	; 0xa0
 800532a:	f7fb fc9d 	bl	8000c68 <osSetEventFromIsr>
 800532e:	4605      	mov	r5, r0
 8005330:	f240 1119 	movw	r1, #281	; 0x119
 8005334:	4620      	mov	r0, r4
 8005336:	f7ff fd6f 	bl	8004e18 <enc28j60ReadReg>
 800533a:	b158      	cbz	r0, 8005354 <enc28j60IrqHandler+0x58>
 800533c:	2240      	movs	r2, #64	; 0x40
 800533e:	211b      	movs	r1, #27
 8005340:	4620      	mov	r0, r4
 8005342:	f7ff fd0e 	bl	8004d62 <enc28j60ClearBit>
 8005346:	2301      	movs	r3, #1
 8005348:	480c      	ldr	r0, [pc, #48]	; (800537c <enc28j60IrqHandler+0x80>)
 800534a:	f8c4 30a0 	str.w	r3, [r4, #160]	; 0xa0
 800534e:	f7fb fc8b 	bl	8000c68 <osSetEventFromIsr>
 8005352:	4305      	orrs	r5, r0
 8005354:	f016 0f0a 	tst.w	r6, #10
 8005358:	d009      	beq.n	800536e <enc28j60IrqHandler+0x72>
 800535a:	220a      	movs	r2, #10
 800535c:	211c      	movs	r1, #28
 800535e:	4620      	mov	r0, r4
 8005360:	f7ff fcff 	bl	8004d62 <enc28j60ClearBit>
 8005364:	f104 0054 	add.w	r0, r4, #84	; 0x54
 8005368:	f7fb fc7e 	bl	8000c68 <osSetEventFromIsr>
 800536c:	4305      	orrs	r5, r0
 800536e:	4620      	mov	r0, r4
 8005370:	2280      	movs	r2, #128	; 0x80
 8005372:	211b      	movs	r1, #27
 8005374:	f7ff fcde 	bl	8004d34 <enc28j60SetBit>
 8005378:	4628      	mov	r0, r5
 800537a:	bd70      	pop	{r4, r5, r6, pc}
 800537c:	200088b0 	.word	0x200088b0

08005380 <enc28j60EventHandler>:
 8005380:	b538      	push	{r3, r4, r5, lr}
 8005382:	211c      	movs	r1, #28
 8005384:	4604      	mov	r4, r0
 8005386:	f7ff fd47 	bl	8004e18 <enc28j60ReadReg>
 800538a:	06c3      	lsls	r3, r0, #27
 800538c:	d520      	bpl.n	80053d0 <enc28j60EventHandler+0x50>
 800538e:	f243 0113 	movw	r1, #12307	; 0x3013
 8005392:	4620      	mov	r0, r4
 8005394:	f7ff fdfb 	bl	8004f8e <enc28j60ReadPhyReg>
 8005398:	2210      	movs	r2, #16
 800539a:	211c      	movs	r1, #28
 800539c:	4620      	mov	r0, r4
 800539e:	f7ff fce0 	bl	8004d62 <enc28j60ClearBit>
 80053a2:	f243 0111 	movw	r1, #12305	; 0x3011
 80053a6:	4620      	mov	r0, r4
 80053a8:	f7ff fdf1 	bl	8004f8e <enc28j60ReadPhyReg>
 80053ac:	f410 6080 	ands.w	r0, r0, #1024	; 0x400
 80053b0:	bf1f      	itttt	ne
 80053b2:	4b14      	ldrne	r3, [pc, #80]	; (8005404 <enc28j60EventHandler+0x84>)
 80053b4:	f8c4 30ac 	strne.w	r3, [r4, #172]	; 0xac
 80053b8:	2302      	movne	r3, #2
 80053ba:	f884 30b0 	strbne.w	r3, [r4, #176]	; 0xb0
 80053be:	bf16      	itet	ne
 80053c0:	2301      	movne	r3, #1
 80053c2:	f8c4 00a8 	streq.w	r0, [r4, #168]	; 0xa8
 80053c6:	f8c4 30a8 	strne.w	r3, [r4, #168]	; 0xa8
 80053ca:	4620      	mov	r0, r4
 80053cc:	f7fc fd68 	bl	8001ea0 <nicNotifyLinkChange>
 80053d0:	f240 1119 	movw	r1, #281	; 0x119
 80053d4:	4620      	mov	r0, r4
 80053d6:	f7ff fd1f 	bl	8004e18 <enc28j60ReadReg>
 80053da:	b158      	cbz	r0, 80053f4 <enc28j60EventHandler+0x74>
 80053dc:	2240      	movs	r2, #64	; 0x40
 80053de:	211c      	movs	r1, #28
 80053e0:	4620      	mov	r0, r4
 80053e2:	f7ff fcbe 	bl	8004d62 <enc28j60ClearBit>
 80053e6:	f240 1509 	movw	r5, #265	; 0x109
 80053ea:	4620      	mov	r0, r4
 80053ec:	f7ff fd34 	bl	8004e58 <enc28j60ReceivePacket>
 80053f0:	42a8      	cmp	r0, r5
 80053f2:	d1fa      	bne.n	80053ea <enc28j60EventHandler+0x6a>
 80053f4:	4620      	mov	r0, r4
 80053f6:	2250      	movs	r2, #80	; 0x50
 80053f8:	e8bd 4038 	ldmia.w	sp!, {r3, r4, r5, lr}
 80053fc:	211b      	movs	r1, #27
 80053fe:	f7ff bc99 	b.w	8004d34 <enc28j60SetBit>
 8005402:	bf00      	nop
 8005404:	00989680 	.word	0x00989680

08005408 <enc28j60CalcCrc>:
 8005408:	b570      	push	{r4, r5, r6, lr}
 800540a:	4d0d      	ldr	r5, [pc, #52]	; (8005440 <enc28j60CalcCrc+0x38>)
 800540c:	4603      	mov	r3, r0
 800540e:	4401      	add	r1, r0
 8005410:	f04f 30ff 	mov.w	r0, #4294967295	; 0xffffffff
 8005414:	4299      	cmp	r1, r3
 8005416:	d100      	bne.n	800541a <enc28j60CalcCrc+0x12>
 8005418:	bd70      	pop	{r4, r5, r6, pc}
 800541a:	f813 6b01 	ldrb.w	r6, [r3], #1
 800541e:	2200      	movs	r2, #0
 8005420:	fa46 f402 	asr.w	r4, r6, r2
 8005424:	ea84 74d0 	eor.w	r4, r4, r0, lsr #31
 8005428:	f014 0f01 	tst.w	r4, #1
 800542c:	ea4f 0040 	mov.w	r0, r0, lsl #1
 8005430:	f102 0201 	add.w	r2, r2, #1
 8005434:	bf18      	it	ne
 8005436:	4068      	eorne	r0, r5
 8005438:	2a08      	cmp	r2, #8
 800543a:	d1f1      	bne.n	8005420 <enc28j60CalcCrc+0x18>
 800543c:	e7ea      	b.n	8005414 <enc28j60CalcCrc+0xc>
 800543e:	bf00      	nop
 8005440:	04c11db7 	.word	0x04c11db7

08005444 <enc28j60UpdateMacAddrFilter>:
 8005444:	b5f7      	push	{r0, r1, r2, r4, r5, r6, r7, lr}
 8005446:	2300      	movs	r3, #0
 8005448:	e9cd 3300 	strd	r3, r3, [sp]
 800544c:	4604      	mov	r4, r0
 800544e:	f100 05d4 	add.w	r5, r0, #212	; 0xd4
 8005452:	f500 76e2 	add.w	r6, r0, #452	; 0x1c4
 8005456:	2701      	movs	r7, #1
 8005458:	68ab      	ldr	r3, [r5, #8]
 800545a:	b183      	cbz	r3, 800547e <enc28j60UpdateMacAddrFilter+0x3a>
 800545c:	2106      	movs	r1, #6
 800545e:	4628      	mov	r0, r5
 8005460:	f7ff ffd2 	bl	8005408 <enc28j60CalcCrc>
 8005464:	aa02      	add	r2, sp, #8
 8005466:	f3c0 6382 	ubfx	r3, r0, #26, #3
 800546a:	4413      	add	r3, r2
 800546c:	f3c0 50c2 	ubfx	r0, r0, #23, #3
 8005470:	f813 2c08 	ldrb.w	r2, [r3, #-8]
 8005474:	fa07 f000 	lsl.w	r0, r7, r0
 8005478:	4310      	orrs	r0, r2
 800547a:	f803 0c08 	strb.w	r0, [r3, #-8]
 800547e:	3514      	adds	r5, #20
 8005480:	42b5      	cmp	r5, r6
 8005482:	d1e9      	bne.n	8005458 <enc28j60UpdateMacAddrFilter+0x14>
 8005484:	f89d 2000 	ldrb.w	r2, [sp]
 8005488:	4620      	mov	r0, r4
 800548a:	f44f 7180 	mov.w	r1, #256	; 0x100
 800548e:	f7ff fcaa 	bl	8004de6 <enc28j60WriteReg>
 8005492:	f89d 2001 	ldrb.w	r2, [sp, #1]
 8005496:	4620      	mov	r0, r4
 8005498:	f240 1101 	movw	r1, #257	; 0x101
 800549c:	f7ff fca3 	bl	8004de6 <enc28j60WriteReg>
 80054a0:	f89d 2002 	ldrb.w	r2, [sp, #2]
 80054a4:	4620      	mov	r0, r4
 80054a6:	f44f 7181 	mov.w	r1, #258	; 0x102
 80054aa:	f7ff fc9c 	bl	8004de6 <enc28j60WriteReg>
 80054ae:	f89d 2003 	ldrb.w	r2, [sp, #3]
 80054b2:	4620      	mov	r0, r4
 80054b4:	f240 1103 	movw	r1, #259	; 0x103
 80054b8:	f7ff fc95 	bl	8004de6 <enc28j60WriteReg>
 80054bc:	f89d 2004 	ldrb.w	r2, [sp, #4]
 80054c0:	4620      	mov	r0, r4
 80054c2:	f44f 7182 	mov.w	r1, #260	; 0x104
 80054c6:	f7ff fc8e 	bl	8004de6 <enc28j60WriteReg>
 80054ca:	f89d 2005 	ldrb.w	r2, [sp, #5]
 80054ce:	4620      	mov	r0, r4
 80054d0:	f240 1105 	movw	r1, #261	; 0x105
 80054d4:	f7ff fc87 	bl	8004de6 <enc28j60WriteReg>
 80054d8:	f89d 2006 	ldrb.w	r2, [sp, #6]
 80054dc:	4620      	mov	r0, r4
 80054de:	f44f 7183 	mov.w	r1, #262	; 0x106
 80054e2:	f7ff fc80 	bl	8004de6 <enc28j60WriteReg>
 80054e6:	4620      	mov	r0, r4
 80054e8:	f89d 2007 	ldrb.w	r2, [sp, #7]
 80054ec:	f240 1107 	movw	r1, #263	; 0x107
 80054f0:	f7ff fc79 	bl	8004de6 <enc28j60WriteReg>
 80054f4:	2000      	movs	r0, #0
 80054f6:	b003      	add	sp, #12
 80054f8:	bdf0      	pop	{r4, r5, r6, r7, pc}

080054fa <arpInit>:
 80054fa:	b508      	push	{r3, lr}
 80054fc:	f44f 7240 	mov.w	r2, #768	; 0x300
 8005500:	2100      	movs	r1, #0
 8005502:	f500 7062 	add.w	r0, r0, #904	; 0x388
 8005506:	f004 f832 	bl	800956e <memset>
 800550a:	2000      	movs	r0, #0
 800550c:	bd08      	pop	{r3, pc}

0800550e <arpFindEntry>:
 800550e:	b510      	push	{r4, lr}
 8005510:	4602      	mov	r2, r0
 8005512:	2300      	movs	r3, #0
 8005514:	f892 4388 	ldrb.w	r4, [r2, #904]	; 0x388
 8005518:	b11c      	cbz	r4, 8005522 <arpFindEntry+0x14>
 800551a:	f8d2 438c 	ldr.w	r4, [r2, #908]	; 0x38c
 800551e:	428c      	cmp	r4, r1
 8005520:	d006      	beq.n	8005530 <arpFindEntry+0x22>
 8005522:	3301      	adds	r3, #1
 8005524:	2b08      	cmp	r3, #8
 8005526:	f102 0260 	add.w	r2, r2, #96	; 0x60
 800552a:	d1f3      	bne.n	8005514 <arpFindEntry+0x6>
 800552c:	2000      	movs	r0, #0
 800552e:	bd10      	pop	{r4, pc}
 8005530:	2260      	movs	r2, #96	; 0x60
 8005532:	fb02 0003 	mla	r0, r2, r3, r0
 8005536:	f500 7062 	add.w	r0, r0, #904	; 0x388
 800553a:	e7f8      	b.n	800552e <arpFindEntry+0x20>

0800553c <arpSendQueuedPackets>:
 800553c:	e92d 41f3 	stmdb	sp!, {r0, r1, r4, r5, r6, r7, r8, lr}
 8005540:	780b      	ldrb	r3, [r1, #0]
 8005542:	2b01      	cmp	r3, #1
 8005544:	4606      	mov	r6, r0
 8005546:	460c      	mov	r4, r1
 8005548:	d107      	bne.n	800555a <arpSendQueuedPackets+0x1e>
 800554a:	f101 0524 	add.w	r5, r1, #36	; 0x24
 800554e:	2700      	movs	r7, #0
 8005550:	f101 0808 	add.w	r8, r1, #8
 8005554:	6de3      	ldr	r3, [r4, #92]	; 0x5c
 8005556:	42bb      	cmp	r3, r7
 8005558:	d804      	bhi.n	8005564 <arpSendQueuedPackets+0x28>
 800555a:	2300      	movs	r3, #0
 800555c:	65e3      	str	r3, [r4, #92]	; 0x5c
 800555e:	b002      	add	sp, #8
 8005560:	e8bd 81f0 	ldmia.w	sp!, {r4, r5, r6, r7, r8, pc}
 8005564:	f855 0c08 	ldr.w	r0, [r5, #-8]
 8005568:	f7fc f878 	bl	800165c <netBufferGetLength>
 800556c:	f855 2c04 	ldr.w	r2, [r5, #-4]
 8005570:	6861      	ldr	r1, [r4, #4]
 8005572:	1a82      	subs	r2, r0, r2
 8005574:	4630      	mov	r0, r6
 8005576:	f001 faeb 	bl	8006b50 <ipv4UpdateOutStats>
 800557a:	9501      	str	r5, [sp, #4]
 800557c:	f855 3c04 	ldr.w	r3, [r5, #-4]
 8005580:	9300      	str	r3, [sp, #0]
 8005582:	f855 3c08 	ldr.w	r3, [r5, #-8]
 8005586:	f44f 6200 	mov.w	r2, #2048	; 0x800
 800558a:	4641      	mov	r1, r8
 800558c:	4630      	mov	r0, r6
 800558e:	f7fb fc1b 	bl	8000dc8 <ethSendFrame>
 8005592:	f855 0c08 	ldr.w	r0, [r5, #-8]
 8005596:	f7fc f8c8 	bl	800172a <netBufferFree>
 800559a:	3701      	adds	r7, #1
 800559c:	3520      	adds	r5, #32
 800559e:	e7d9      	b.n	8005554 <arpSendQueuedPackets+0x18>

080055a0 <arpFlushQueuedPackets>:
 80055a0:	780b      	ldrb	r3, [r1, #0]
 80055a2:	2b01      	cmp	r3, #1
 80055a4:	b570      	push	{r4, r5, r6, lr}
 80055a6:	460c      	mov	r4, r1
 80055a8:	d00b      	beq.n	80055c2 <arpFlushQueuedPackets+0x22>
 80055aa:	2300      	movs	r3, #0
 80055ac:	65e3      	str	r3, [r4, #92]	; 0x5c
 80055ae:	bd70      	pop	{r4, r5, r6, pc}
 80055b0:	016b      	lsls	r3, r5, #5
 80055b2:	3501      	adds	r5, #1
 80055b4:	58f0      	ldr	r0, [r6, r3]
 80055b6:	f7fc f8b8 	bl	800172a <netBufferFree>
 80055ba:	6de3      	ldr	r3, [r4, #92]	; 0x5c
 80055bc:	42ab      	cmp	r3, r5
 80055be:	d8f7      	bhi.n	80055b0 <arpFlushQueuedPackets+0x10>
 80055c0:	e7f3      	b.n	80055aa <arpFlushQueuedPackets+0xa>
 80055c2:	2500      	movs	r5, #0
 80055c4:	f101 061c 	add.w	r6, r1, #28
 80055c8:	e7f7      	b.n	80055ba <arpFlushQueuedPackets+0x1a>

080055ca <arpFlushCache>:
 80055ca:	b570      	push	{r4, r5, r6, lr}
 80055cc:	4605      	mov	r5, r0
 80055ce:	f44f 7462 	mov.w	r4, #904	; 0x388
 80055d2:	2600      	movs	r6, #0
 80055d4:	1929      	adds	r1, r5, r4
 80055d6:	4628      	mov	r0, r5
 80055d8:	f7ff ffe2 	bl	80055a0 <arpFlushQueuedPackets>
 80055dc:	552e      	strb	r6, [r5, r4]
 80055de:	3460      	adds	r4, #96	; 0x60
 80055e0:	f5b4 6fd1 	cmp.w	r4, #1672	; 0x688
 80055e4:	d1f6      	bne.n	80055d4 <arpFlushCache+0xa>
 80055e6:	bd70      	pop	{r4, r5, r6, pc}

080055e8 <arpCreateEntry>:
 80055e8:	b570      	push	{r4, r5, r6, lr}
 80055ea:	4605      	mov	r5, r0
 80055ec:	f505 7462 	add.w	r4, r5, #904	; 0x388
 80055f0:	f7fb fb5b 	bl	8000caa <osGetSystemTime>
 80055f4:	f505 66d1 	add.w	r6, r5, #1672	; 0x688
 80055f8:	4623      	mov	r3, r4
 80055fa:	7819      	ldrb	r1, [r3, #0]
 80055fc:	b931      	cbnz	r1, 800560c <arpCreateEntry+0x24>
 80055fe:	2260      	movs	r2, #96	; 0x60
 8005600:	4618      	mov	r0, r3
 8005602:	f003 ffb4 	bl	800956e <memset>
 8005606:	4604      	mov	r4, r0
 8005608:	4620      	mov	r0, r4
 800560a:	bd70      	pop	{r4, r5, r6, pc}
 800560c:	691a      	ldr	r2, [r3, #16]
 800560e:	1a81      	subs	r1, r0, r2
 8005610:	6922      	ldr	r2, [r4, #16]
 8005612:	1a82      	subs	r2, r0, r2
 8005614:	4291      	cmp	r1, r2
 8005616:	bf88      	it	hi
 8005618:	461c      	movhi	r4, r3
 800561a:	3360      	adds	r3, #96	; 0x60
 800561c:	42b3      	cmp	r3, r6
 800561e:	d1ec      	bne.n	80055fa <arpCreateEntry+0x12>
 8005620:	4621      	mov	r1, r4
 8005622:	4628      	mov	r0, r5
 8005624:	f7ff ffbc 	bl	80055a0 <arpFlushQueuedPackets>
 8005628:	2260      	movs	r2, #96	; 0x60
 800562a:	2100      	movs	r1, #0
 800562c:	4620      	mov	r0, r4
 800562e:	f003 ff9e 	bl	800956e <memset>
 8005632:	e7e9      	b.n	8005608 <arpCreateEntry+0x20>

08005634 <arpEnqueuePacket>:
 8005634:	e92d 43f0 	stmdb	sp!, {r4, r5, r6, r7, r8, r9, lr}
 8005638:	b085      	sub	sp, #20
 800563a:	4604      	mov	r4, r0
 800563c:	4610      	mov	r0, r2
 800563e:	9103      	str	r1, [sp, #12]
 8005640:	4617      	mov	r7, r2
 8005642:	4699      	mov	r9, r3
 8005644:	f7fc f80a 	bl	800165c <netBufferGetLength>
 8005648:	9903      	ldr	r1, [sp, #12]
 800564a:	4680      	mov	r8, r0
 800564c:	4620      	mov	r0, r4
 800564e:	f7ff ff5e 	bl	800550e <arpFindEntry>
 8005652:	4604      	mov	r4, r0
 8005654:	2800      	cmp	r0, #0
 8005656:	d036      	beq.n	80056c6 <arpEnqueuePacket+0x92>
 8005658:	7803      	ldrb	r3, [r0, #0]
 800565a:	2b01      	cmp	r3, #1
 800565c:	d136      	bne.n	80056cc <arpEnqueuePacket+0x98>
 800565e:	6dc3      	ldr	r3, [r0, #92]	; 0x5c
 8005660:	2b01      	cmp	r3, #1
 8005662:	d90f      	bls.n	8005684 <arpEnqueuePacket+0x50>
 8005664:	4605      	mov	r5, r0
 8005666:	f104 063c 	add.w	r6, r4, #60	; 0x3c
 800566a:	f855 0f1c 	ldr.w	r0, [r5, #28]!
 800566e:	f7fc f85c 	bl	800172a <netBufferFree>
 8005672:	ce0f      	ldmia	r6!, {r0, r1, r2, r3}
 8005674:	c50f      	stmia	r5!, {r0, r1, r2, r3}
 8005676:	e896 000f 	ldmia.w	r6, {r0, r1, r2, r3}
 800567a:	e885 000f 	stmia.w	r5, {r0, r1, r2, r3}
 800567e:	6de3      	ldr	r3, [r4, #92]	; 0x5c
 8005680:	3b01      	subs	r3, #1
 8005682:	65e3      	str	r3, [r4, #92]	; 0x5c
 8005684:	6de5      	ldr	r5, [r4, #92]	; 0x5c
 8005686:	4640      	mov	r0, r8
 8005688:	f7fc f85c 	bl	8001744 <netBufferAlloc>
 800568c:	eb04 1645 	add.w	r6, r4, r5, lsl #5
 8005690:	61f0      	str	r0, [r6, #28]
 8005692:	b1e8      	cbz	r0, 80056d0 <arpEnqueuePacket+0x9c>
 8005694:	2300      	movs	r3, #0
 8005696:	463a      	mov	r2, r7
 8005698:	4619      	mov	r1, r3
 800569a:	f8cd 8000 	str.w	r8, [sp]
 800569e:	f7fc f8c3 	bl	8001828 <netBufferCopy>
 80056a2:	4635      	mov	r5, r6
 80056a4:	f8c6 9020 	str.w	r9, [r6, #32]
 80056a8:	9e0c      	ldr	r6, [sp, #48]	; 0x30
 80056aa:	ce0f      	ldmia	r6!, {r0, r1, r2, r3}
 80056ac:	3524      	adds	r5, #36	; 0x24
 80056ae:	c50f      	stmia	r5!, {r0, r1, r2, r3}
 80056b0:	e896 0003 	ldmia.w	r6, {r0, r1}
 80056b4:	e885 0003 	stmia.w	r5, {r0, r1}
 80056b8:	6de3      	ldr	r3, [r4, #92]	; 0x5c
 80056ba:	3301      	adds	r3, #1
 80056bc:	65e3      	str	r3, [r4, #92]	; 0x5c
 80056be:	2000      	movs	r0, #0
 80056c0:	b005      	add	sp, #20
 80056c2:	e8bd 83f0 	ldmia.w	sp!, {r4, r5, r6, r7, r8, r9, pc}
 80056c6:	f44f 7087 	mov.w	r0, #270	; 0x10e
 80056ca:	e7f9      	b.n	80056c0 <arpEnqueuePacket+0x8c>
 80056cc:	20e0      	movs	r0, #224	; 0xe0
 80056ce:	e7f7      	b.n	80056c0 <arpEnqueuePacket+0x8c>
 80056d0:	2064      	movs	r0, #100	; 0x64
 80056d2:	e7f5      	b.n	80056c0 <arpEnqueuePacket+0x8c>

080056d4 <arpProcessReply>:
 80056d4:	b570      	push	{r4, r5, r6, lr}
 80056d6:	460c      	mov	r4, r1
 80056d8:	f8d1 100e 	ldr.w	r1, [r1, #14]
 80056dc:	4606      	mov	r6, r0
 80056de:	2900      	cmp	r1, #0
 80056e0:	d044      	beq.n	800576c <arpProcessReply+0x98>
 80056e2:	f001 f908 	bl	80068f6 <ipv4IsBroadcastAddr>
 80056e6:	2800      	cmp	r0, #0
 80056e8:	d140      	bne.n	800576c <arpProcessReply+0x98>
 80056ea:	f8d4 300e 	ldr.w	r3, [r4, #14]
 80056ee:	f003 03f0 	and.w	r3, r3, #240	; 0xf0
 80056f2:	2be0      	cmp	r3, #224	; 0xe0
 80056f4:	d03a      	beq.n	800576c <arpProcessReply+0x98>
 80056f6:	f104 0508 	add.w	r5, r4, #8
 80056fa:	4921      	ldr	r1, [pc, #132]	; (8005780 <arpProcessReply+0xac>)
 80056fc:	2206      	movs	r2, #6
 80056fe:	4628      	mov	r0, r5
 8005700:	f003 feff 	bl	8009502 <memcmp>
 8005704:	b390      	cbz	r0, 800576c <arpProcessReply+0x98>
 8005706:	491f      	ldr	r1, [pc, #124]	; (8005784 <arpProcessReply+0xb0>)
 8005708:	2206      	movs	r2, #6
 800570a:	4628      	mov	r0, r5
 800570c:	f003 fef9 	bl	8009502 <memcmp>
 8005710:	b360      	cbz	r0, 800576c <arpProcessReply+0x98>
 8005712:	7a23      	ldrb	r3, [r4, #8]
 8005714:	07db      	lsls	r3, r3, #31
 8005716:	d429      	bmi.n	800576c <arpProcessReply+0x98>
 8005718:	69a1      	ldr	r1, [r4, #24]
 800571a:	4630      	mov	r0, r6
 800571c:	f001 f93a 	bl	8006994 <ipv4IsTentativeAddr>
 8005720:	bb20      	cbnz	r0, 800576c <arpProcessReply+0x98>
 8005722:	f8d4 100e 	ldr.w	r1, [r4, #14]
 8005726:	4630      	mov	r0, r6
 8005728:	f7ff fef1 	bl	800550e <arpFindEntry>
 800572c:	4604      	mov	r4, r0
 800572e:	b1e8      	cbz	r0, 800576c <arpProcessReply+0x98>
 8005730:	7803      	ldrb	r3, [r0, #0]
 8005732:	2b01      	cmp	r3, #1
 8005734:	d10f      	bne.n	8005756 <arpProcessReply+0x82>
 8005736:	6828      	ldr	r0, [r5, #0]
 8005738:	88ab      	ldrh	r3, [r5, #4]
 800573a:	60a0      	str	r0, [r4, #8]
 800573c:	81a3      	strh	r3, [r4, #12]
 800573e:	4621      	mov	r1, r4
 8005740:	4630      	mov	r0, r6
 8005742:	f7ff fefb 	bl	800553c <arpSendQueuedPackets>
 8005746:	f7fb fab0 	bl	8000caa <osGetSystemTime>
 800574a:	f64e 2360 	movw	r3, #60000	; 0xea60
 800574e:	6163      	str	r3, [r4, #20]
 8005750:	6120      	str	r0, [r4, #16]
 8005752:	2302      	movs	r3, #2
 8005754:	e009      	b.n	800576a <arpProcessReply+0x96>
 8005756:	2b02      	cmp	r3, #2
 8005758:	d109      	bne.n	800576e <arpProcessReply+0x9a>
 800575a:	f100 0108 	add.w	r1, r0, #8
 800575e:	2206      	movs	r2, #6
 8005760:	4628      	mov	r0, r5
 8005762:	f003 fece 	bl	8009502 <memcmp>
 8005766:	b108      	cbz	r0, 800576c <arpProcessReply+0x98>
 8005768:	2303      	movs	r3, #3
 800576a:	7023      	strb	r3, [r4, #0]
 800576c:	bd70      	pop	{r4, r5, r6, pc}
 800576e:	2b05      	cmp	r3, #5
 8005770:	d1fc      	bne.n	800576c <arpProcessReply+0x98>
 8005772:	6041      	str	r1, [r0, #4]
 8005774:	88ab      	ldrh	r3, [r5, #4]
 8005776:	6828      	ldr	r0, [r5, #0]
 8005778:	60a0      	str	r0, [r4, #8]
 800577a:	81a3      	strh	r3, [r4, #12]
 800577c:	e7e3      	b.n	8005746 <arpProcessReply+0x72>
 800577e:	bf00      	nop
 8005780:	0800a887 	.word	0x0800a887
 8005784:	0800a881 	.word	0x0800a881

08005788 <arpSendProbe>:
 8005788:	e92d 41f0 	stmdb	sp!, {r4, r5, r6, r7, r8, lr}
 800578c:	b08a      	sub	sp, #40	; 0x28
 800578e:	4688      	mov	r8, r1
 8005790:	4607      	mov	r7, r0
 8005792:	f7fc faf3 	bl	8001d7c <nicGetLogicalInterface>
 8005796:	a903      	add	r1, sp, #12
 8005798:	4605      	mov	r5, r0
 800579a:	201c      	movs	r0, #28
 800579c:	f7fb fbdf 	bl	8000f5e <ethAllocBuffer>
 80057a0:	4606      	mov	r6, r0
 80057a2:	2800      	cmp	r0, #0
 80057a4:	d042      	beq.n	800582c <arpSendProbe+0xa4>
 80057a6:	9903      	ldr	r1, [sp, #12]
 80057a8:	f7fb ffe9 	bl	800177e <netBufferAt>
 80057ac:	4604      	mov	r4, r0
 80057ae:	2001      	movs	r0, #1
 80057b0:	f7fb f9c9 	bl	8000b46 <swapInt16>
 80057b4:	8020      	strh	r0, [r4, #0]
 80057b6:	f44f 6000 	mov.w	r0, #2048	; 0x800
 80057ba:	f7fb f9c4 	bl	8000b46 <swapInt16>
 80057be:	2306      	movs	r3, #6
 80057c0:	7123      	strb	r3, [r4, #4]
 80057c2:	2304      	movs	r3, #4
 80057c4:	8060      	strh	r0, [r4, #2]
 80057c6:	7163      	strb	r3, [r4, #5]
 80057c8:	2001      	movs	r0, #1
 80057ca:	f7fb f9bc 	bl	8000b46 <swapInt16>
 80057ce:	f8b5 30d0 	ldrh.w	r3, [r5, #208]	; 0xd0
 80057d2:	80e0      	strh	r0, [r4, #6]
 80057d4:	f8d5 00cc 	ldr.w	r0, [r5, #204]	; 0xcc
 80057d8:	81a3      	strh	r3, [r4, #12]
 80057da:	2300      	movs	r3, #0
 80057dc:	73a3      	strb	r3, [r4, #14]
 80057de:	73e3      	strb	r3, [r4, #15]
 80057e0:	7423      	strb	r3, [r4, #16]
 80057e2:	7463      	strb	r3, [r4, #17]
 80057e4:	4b12      	ldr	r3, [pc, #72]	; (8005830 <arpSendProbe+0xa8>)
 80057e6:	4d13      	ldr	r5, [pc, #76]	; (8005834 <arpSendProbe+0xac>)
 80057e8:	681a      	ldr	r2, [r3, #0]
 80057ea:	889b      	ldrh	r3, [r3, #4]
 80057ec:	60a0      	str	r0, [r4, #8]
 80057ee:	f8c4 2012 	str.w	r2, [r4, #18]
 80057f2:	82e3      	strh	r3, [r4, #22]
 80057f4:	cd0f      	ldmia	r5!, {r0, r1, r2, r3}
 80057f6:	f8c4 8018 	str.w	r8, [r4, #24]
 80057fa:	ac04      	add	r4, sp, #16
 80057fc:	c40f      	stmia	r4!, {r0, r1, r2, r3}
 80057fe:	e895 0003 	ldmia.w	r5, {r0, r1}
 8005802:	ab04      	add	r3, sp, #16
 8005804:	e884 0003 	stmia.w	r4, {r0, r1}
 8005808:	9301      	str	r3, [sp, #4]
 800580a:	9b03      	ldr	r3, [sp, #12]
 800580c:	9300      	str	r3, [sp, #0]
 800580e:	490a      	ldr	r1, [pc, #40]	; (8005838 <arpSendProbe+0xb0>)
 8005810:	4633      	mov	r3, r6
 8005812:	f640 0206 	movw	r2, #2054	; 0x806
 8005816:	4638      	mov	r0, r7
 8005818:	f7fb fad6 	bl	8000dc8 <ethSendFrame>
 800581c:	4604      	mov	r4, r0
 800581e:	4630      	mov	r0, r6
 8005820:	f7fb ff83 	bl	800172a <netBufferFree>
 8005824:	4620      	mov	r0, r4
 8005826:	b00a      	add	sp, #40	; 0x28
 8005828:	e8bd 81f0 	ldmia.w	sp!, {r4, r5, r6, r7, r8, pc}
 800582c:	2464      	movs	r4, #100	; 0x64
 800582e:	e7f9      	b.n	8005824 <arpSendProbe+0x9c>
 8005830:	0800a887 	.word	0x0800a887
 8005834:	0800a9e4 	.word	0x0800a9e4
 8005838:	0800a881 	.word	0x0800a881

0800583c <arpSendRequest>:
 800583c:	e92d 41f0 	stmdb	sp!, {r4, r5, r6, r7, r8, lr}
 8005840:	b08c      	sub	sp, #48	; 0x30
 8005842:	460d      	mov	r5, r1
 8005844:	4617      	mov	r7, r2
 8005846:	9003      	str	r0, [sp, #12]
 8005848:	f7fc fa98 	bl	8001d7c <nicGetLogicalInterface>
 800584c:	aa05      	add	r2, sp, #20
 800584e:	4680      	mov	r8, r0
 8005850:	4629      	mov	r1, r5
 8005852:	a803      	add	r0, sp, #12
 8005854:	f001 f8ea 	bl	8006a2c <ipv4SelectSourceAddr>
 8005858:	4604      	mov	r4, r0
 800585a:	2800      	cmp	r0, #0
 800585c:	d142      	bne.n	80058e4 <arpSendRequest+0xa8>
 800585e:	a904      	add	r1, sp, #16
 8005860:	201c      	movs	r0, #28
 8005862:	f7fb fb7c 	bl	8000f5e <ethAllocBuffer>
 8005866:	4606      	mov	r6, r0
 8005868:	2800      	cmp	r0, #0
 800586a:	d03f      	beq.n	80058ec <arpSendRequest+0xb0>
 800586c:	9904      	ldr	r1, [sp, #16]
 800586e:	f7fb ff86 	bl	800177e <netBufferAt>
 8005872:	4604      	mov	r4, r0
 8005874:	2001      	movs	r0, #1
 8005876:	f7fb f966 	bl	8000b46 <swapInt16>
 800587a:	8020      	strh	r0, [r4, #0]
 800587c:	f44f 6000 	mov.w	r0, #2048	; 0x800
 8005880:	f7fb f961 	bl	8000b46 <swapInt16>
 8005884:	2306      	movs	r3, #6
 8005886:	7123      	strb	r3, [r4, #4]
 8005888:	2304      	movs	r3, #4
 800588a:	8060      	strh	r0, [r4, #2]
 800588c:	7163      	strb	r3, [r4, #5]
 800588e:	2001      	movs	r0, #1
 8005890:	f7fb f959 	bl	8000b46 <swapInt16>
 8005894:	f8b8 30d0 	ldrh.w	r3, [r8, #208]	; 0xd0
 8005898:	80e0      	strh	r0, [r4, #6]
 800589a:	f8d8 00cc 	ldr.w	r0, [r8, #204]	; 0xcc
 800589e:	81a3      	strh	r3, [r4, #12]
 80058a0:	9b05      	ldr	r3, [sp, #20]
 80058a2:	f8c4 300e 	str.w	r3, [r4, #14]
 80058a6:	4b12      	ldr	r3, [pc, #72]	; (80058f0 <arpSendRequest+0xb4>)
 80058a8:	61a5      	str	r5, [r4, #24]
 80058aa:	4d12      	ldr	r5, [pc, #72]	; (80058f4 <arpSendRequest+0xb8>)
 80058ac:	681a      	ldr	r2, [r3, #0]
 80058ae:	889b      	ldrh	r3, [r3, #4]
 80058b0:	60a0      	str	r0, [r4, #8]
 80058b2:	f8c4 2012 	str.w	r2, [r4, #18]
 80058b6:	82e3      	strh	r3, [r4, #22]
 80058b8:	cd0f      	ldmia	r5!, {r0, r1, r2, r3}
 80058ba:	ac06      	add	r4, sp, #24
 80058bc:	c40f      	stmia	r4!, {r0, r1, r2, r3}
 80058be:	e895 0003 	ldmia.w	r5, {r0, r1}
 80058c2:	ab06      	add	r3, sp, #24
 80058c4:	e884 0003 	stmia.w	r4, {r0, r1}
 80058c8:	9301      	str	r3, [sp, #4]
 80058ca:	9b04      	ldr	r3, [sp, #16]
 80058cc:	9300      	str	r3, [sp, #0]
 80058ce:	9803      	ldr	r0, [sp, #12]
 80058d0:	4633      	mov	r3, r6
 80058d2:	f640 0206 	movw	r2, #2054	; 0x806
 80058d6:	4639      	mov	r1, r7
 80058d8:	f7fb fa76 	bl	8000dc8 <ethSendFrame>
 80058dc:	4604      	mov	r4, r0
 80058de:	4630      	mov	r0, r6
 80058e0:	f7fb ff23 	bl	800172a <netBufferFree>
 80058e4:	4620      	mov	r0, r4
 80058e6:	b00c      	add	sp, #48	; 0x30
 80058e8:	e8bd 81f0 	ldmia.w	sp!, {r4, r5, r6, r7, r8, pc}
 80058ec:	2464      	movs	r4, #100	; 0x64
 80058ee:	e7f9      	b.n	80058e4 <arpSendRequest+0xa8>
 80058f0:	0800a887 	.word	0x0800a887
 80058f4:	0800a9e4 	.word	0x0800a9e4

080058f8 <arpResolve>:
 80058f8:	b5f8      	push	{r3, r4, r5, r6, r7, lr}
 80058fa:	4606      	mov	r6, r0
 80058fc:	460f      	mov	r7, r1
 80058fe:	4615      	mov	r5, r2
 8005900:	f7ff fe05 	bl	800550e <arpFindEntry>
 8005904:	4604      	mov	r4, r0
 8005906:	b1a0      	cbz	r0, 8005932 <arpResolve+0x3a>
 8005908:	7803      	ldrb	r3, [r0, #0]
 800590a:	2b01      	cmp	r3, #1
 800590c:	d026      	beq.n	800595c <arpResolve+0x64>
 800590e:	2b03      	cmp	r3, #3
 8005910:	f100 0308 	add.w	r3, r0, #8
 8005914:	6880      	ldr	r0, [r0, #8]
 8005916:	6028      	str	r0, [r5, #0]
 8005918:	889b      	ldrh	r3, [r3, #4]
 800591a:	80ab      	strh	r3, [r5, #4]
 800591c:	d107      	bne.n	800592e <arpResolve+0x36>
 800591e:	f7fb f9c4 	bl	8000caa <osGetSystemTime>
 8005922:	f241 3388 	movw	r3, #5000	; 0x1388
 8005926:	6163      	str	r3, [r4, #20]
 8005928:	2304      	movs	r3, #4
 800592a:	6120      	str	r0, [r4, #16]
 800592c:	7023      	strb	r3, [r4, #0]
 800592e:	2000      	movs	r0, #0
 8005930:	bdf8      	pop	{r3, r4, r5, r6, r7, pc}
 8005932:	4630      	mov	r0, r6
 8005934:	f7ff fe58 	bl	80055e8 <arpCreateEntry>
 8005938:	4605      	mov	r5, r0
 800593a:	b190      	cbz	r0, 8005962 <arpResolve+0x6a>
 800593c:	4a0a      	ldr	r2, [pc, #40]	; (8005968 <arpResolve+0x70>)
 800593e:	6047      	str	r7, [r0, #4]
 8005940:	6184      	str	r4, [r0, #24]
 8005942:	65c4      	str	r4, [r0, #92]	; 0x5c
 8005944:	4639      	mov	r1, r7
 8005946:	4630      	mov	r0, r6
 8005948:	f7ff ff78 	bl	800583c <arpSendRequest>
 800594c:	f7fb f9ad 	bl	8000caa <osGetSystemTime>
 8005950:	f44f 737a 	mov.w	r3, #1000	; 0x3e8
 8005954:	616b      	str	r3, [r5, #20]
 8005956:	2301      	movs	r3, #1
 8005958:	6128      	str	r0, [r5, #16]
 800595a:	702b      	strb	r3, [r5, #0]
 800595c:	f240 2003 	movw	r0, #515	; 0x203
 8005960:	e7e6      	b.n	8005930 <arpResolve+0x38>
 8005962:	2065      	movs	r0, #101	; 0x65
 8005964:	e7e4      	b.n	8005930 <arpResolve+0x38>
 8005966:	bf00      	nop
 8005968:	0800a881 	.word	0x0800a881

0800596c <arpTick>:
 800596c:	e92d 47f0 	stmdb	sp!, {r4, r5, r6, r7, r8, r9, sl, lr}
 8005970:	4606      	mov	r6, r0
 8005972:	f7fb f99a 	bl	8000caa <osGetSystemTime>
 8005976:	f8df a0dc 	ldr.w	sl, [pc, #220]	; 8005a54 <arpTick+0xe8>
 800597a:	4605      	mov	r5, r0
 800597c:	4634      	mov	r4, r6
 800597e:	f506 7940 	add.w	r9, r6, #768	; 0x300
 8005982:	2700      	movs	r7, #0
 8005984:	f64e 2860 	movw	r8, #60000	; 0xea60
 8005988:	f894 3388 	ldrb.w	r3, [r4, #904]	; 0x388
 800598c:	2b01      	cmp	r3, #1
 800598e:	d125      	bne.n	80059dc <arpTick+0x70>
 8005990:	e9d4 32e6 	ldrd	r3, r2, [r4, #920]	; 0x398
 8005994:	4413      	add	r3, r2
 8005996:	1aeb      	subs	r3, r5, r3
 8005998:	2b00      	cmp	r3, #0
 800599a:	db12      	blt.n	80059c2 <arpTick+0x56>
 800599c:	f8d4 33a0 	ldr.w	r3, [r4, #928]	; 0x3a0
 80059a0:	3301      	adds	r3, #1
 80059a2:	2b02      	cmp	r3, #2
 80059a4:	f8c4 33a0 	str.w	r3, [r4, #928]	; 0x3a0
 80059a8:	d810      	bhi.n	80059cc <arpTick+0x60>
 80059aa:	f8d4 138c 	ldr.w	r1, [r4, #908]	; 0x38c
 80059ae:	4652      	mov	r2, sl
 80059b0:	4630      	mov	r0, r6
 80059b2:	f7ff ff43 	bl	800583c <arpSendRequest>
 80059b6:	f44f 737a 	mov.w	r3, #1000	; 0x3e8
 80059ba:	f8c4 5398 	str.w	r5, [r4, #920]	; 0x398
 80059be:	f8c4 339c 	str.w	r3, [r4, #924]	; 0x39c
 80059c2:	3460      	adds	r4, #96	; 0x60
 80059c4:	454c      	cmp	r4, r9
 80059c6:	d1df      	bne.n	8005988 <arpTick+0x1c>
 80059c8:	e8bd 87f0 	ldmia.w	sp!, {r4, r5, r6, r7, r8, r9, sl, pc}
 80059cc:	f504 7162 	add.w	r1, r4, #904	; 0x388
 80059d0:	4630      	mov	r0, r6
 80059d2:	f7ff fde5 	bl	80055a0 <arpFlushQueuedPackets>
 80059d6:	f884 7388 	strb.w	r7, [r4, #904]	; 0x388
 80059da:	e7f2      	b.n	80059c2 <arpTick+0x56>
 80059dc:	2b02      	cmp	r3, #2
 80059de:	d10d      	bne.n	80059fc <arpTick+0x90>
 80059e0:	e9d4 32e6 	ldrd	r3, r2, [r4, #920]	; 0x398
 80059e4:	4413      	add	r3, r2
 80059e6:	1aeb      	subs	r3, r5, r3
 80059e8:	2b00      	cmp	r3, #0
 80059ea:	dbea      	blt.n	80059c2 <arpTick+0x56>
 80059ec:	f7fb f95d 	bl	8000caa <osGetSystemTime>
 80059f0:	2303      	movs	r3, #3
 80059f2:	f8c4 0398 	str.w	r0, [r4, #920]	; 0x398
 80059f6:	f884 3388 	strb.w	r3, [r4, #904]	; 0x388
 80059fa:	e7e2      	b.n	80059c2 <arpTick+0x56>
 80059fc:	2b04      	cmp	r3, #4
 80059fe:	d110      	bne.n	8005a22 <arpTick+0xb6>
 8005a00:	e9d4 32e6 	ldrd	r3, r2, [r4, #920]	; 0x398
 8005a04:	4413      	add	r3, r2
 8005a06:	1aeb      	subs	r3, r5, r3
 8005a08:	2b00      	cmp	r3, #0
 8005a0a:	dbda      	blt.n	80059c2 <arpTick+0x56>
 8005a0c:	f8d4 138c 	ldr.w	r1, [r4, #908]	; 0x38c
 8005a10:	f504 7264 	add.w	r2, r4, #912	; 0x390
 8005a14:	4630      	mov	r0, r6
 8005a16:	f7ff ff11 	bl	800583c <arpSendRequest>
 8005a1a:	e9c4 58e6 	strd	r5, r8, [r4, #920]	; 0x398
 8005a1e:	2305      	movs	r3, #5
 8005a20:	e7e9      	b.n	80059f6 <arpTick+0x8a>
 8005a22:	2b05      	cmp	r3, #5
 8005a24:	d1cd      	bne.n	80059c2 <arpTick+0x56>
 8005a26:	e9d4 32e6 	ldrd	r3, r2, [r4, #920]	; 0x398
 8005a2a:	4413      	add	r3, r2
 8005a2c:	1aeb      	subs	r3, r5, r3
 8005a2e:	2b00      	cmp	r3, #0
 8005a30:	dbc7      	blt.n	80059c2 <arpTick+0x56>
 8005a32:	f8d4 33a0 	ldr.w	r3, [r4, #928]	; 0x3a0
 8005a36:	3301      	adds	r3, #1
 8005a38:	2b01      	cmp	r3, #1
 8005a3a:	f8c4 33a0 	str.w	r3, [r4, #928]	; 0x3a0
 8005a3e:	d8ca      	bhi.n	80059d6 <arpTick+0x6a>
 8005a40:	f8d4 138c 	ldr.w	r1, [r4, #908]	; 0x38c
 8005a44:	f504 7264 	add.w	r2, r4, #912	; 0x390
 8005a48:	4630      	mov	r0, r6
 8005a4a:	f7ff fef7 	bl	800583c <arpSendRequest>
 8005a4e:	e9c4 58e6 	strd	r5, r8, [r4, #920]	; 0x398
 8005a52:	e7b6      	b.n	80059c2 <arpTick+0x56>
 8005a54:	0800a881 	.word	0x0800a881

08005a58 <arpSendReply>:
 8005a58:	e92d 47f0 	stmdb	sp!, {r4, r5, r6, r7, r8, r9, sl, lr}
 8005a5c:	b08a      	sub	sp, #40	; 0x28
 8005a5e:	468a      	mov	sl, r1
 8005a60:	4691      	mov	r9, r2
 8005a62:	461f      	mov	r7, r3
 8005a64:	4680      	mov	r8, r0
 8005a66:	f7fc f989 	bl	8001d7c <nicGetLogicalInterface>
 8005a6a:	a903      	add	r1, sp, #12
 8005a6c:	4605      	mov	r5, r0
 8005a6e:	201c      	movs	r0, #28
 8005a70:	f7fb fa75 	bl	8000f5e <ethAllocBuffer>
 8005a74:	4606      	mov	r6, r0
 8005a76:	2800      	cmp	r0, #0
 8005a78:	d03e      	beq.n	8005af8 <arpSendReply+0xa0>
 8005a7a:	9903      	ldr	r1, [sp, #12]
 8005a7c:	f7fb fe7f 	bl	800177e <netBufferAt>
 8005a80:	4604      	mov	r4, r0
 8005a82:	2001      	movs	r0, #1
 8005a84:	f7fb f85f 	bl	8000b46 <swapInt16>
 8005a88:	8020      	strh	r0, [r4, #0]
 8005a8a:	f44f 6000 	mov.w	r0, #2048	; 0x800
 8005a8e:	f7fb f85a 	bl	8000b46 <swapInt16>
 8005a92:	2306      	movs	r3, #6
 8005a94:	7123      	strb	r3, [r4, #4]
 8005a96:	2304      	movs	r3, #4
 8005a98:	8060      	strh	r0, [r4, #2]
 8005a9a:	7163      	strb	r3, [r4, #5]
 8005a9c:	2002      	movs	r0, #2
 8005a9e:	f7fb f852 	bl	8000b46 <swapInt16>
 8005aa2:	f8b5 30d0 	ldrh.w	r3, [r5, #208]	; 0xd0
 8005aa6:	80e0      	strh	r0, [r4, #6]
 8005aa8:	f8d5 00cc 	ldr.w	r0, [r5, #204]	; 0xcc
 8005aac:	60a0      	str	r0, [r4, #8]
 8005aae:	81a3      	strh	r3, [r4, #12]
 8005ab0:	683b      	ldr	r3, [r7, #0]
 8005ab2:	f8c4 3012 	str.w	r3, [r4, #18]
 8005ab6:	4d11      	ldr	r5, [pc, #68]	; (8005afc <arpSendReply+0xa4>)
 8005ab8:	88bb      	ldrh	r3, [r7, #4]
 8005aba:	82e3      	strh	r3, [r4, #22]
 8005abc:	cd0f      	ldmia	r5!, {r0, r1, r2, r3}
 8005abe:	f8c4 a00e 	str.w	sl, [r4, #14]
 8005ac2:	f8c4 9018 	str.w	r9, [r4, #24]
 8005ac6:	ac04      	add	r4, sp, #16
 8005ac8:	c40f      	stmia	r4!, {r0, r1, r2, r3}
 8005aca:	e895 0003 	ldmia.w	r5, {r0, r1}
 8005ace:	ab04      	add	r3, sp, #16
 8005ad0:	e884 0003 	stmia.w	r4, {r0, r1}
 8005ad4:	9301      	str	r3, [sp, #4]
 8005ad6:	9b03      	ldr	r3, [sp, #12]
 8005ad8:	9300      	str	r3, [sp, #0]
 8005ada:	f640 0206 	movw	r2, #2054	; 0x806
 8005ade:	4633      	mov	r3, r6
 8005ae0:	4639      	mov	r1, r7
 8005ae2:	4640      	mov	r0, r8
 8005ae4:	f7fb f970 	bl	8000dc8 <ethSendFrame>
 8005ae8:	4604      	mov	r4, r0
 8005aea:	4630      	mov	r0, r6
 8005aec:	f7fb fe1d 	bl	800172a <netBufferFree>
 8005af0:	4620      	mov	r0, r4
 8005af2:	b00a      	add	sp, #40	; 0x28
 8005af4:	e8bd 87f0 	ldmia.w	sp!, {r4, r5, r6, r7, r8, r9, sl, pc}
 8005af8:	2464      	movs	r4, #100	; 0x64
 8005afa:	e7f9      	b.n	8005af0 <arpSendReply+0x98>
 8005afc:	0800a9e4 	.word	0x0800a9e4

08005b00 <arpProcessRequest>:
 8005b00:	b570      	push	{r4, r5, r6, lr}
 8005b02:	460d      	mov	r5, r1
 8005b04:	f8d1 100e 	ldr.w	r1, [r1, #14]
 8005b08:	4604      	mov	r4, r0
 8005b0a:	f000 fef4 	bl	80068f6 <ipv4IsBroadcastAddr>
 8005b0e:	b928      	cbnz	r0, 8005b1c <arpProcessRequest+0x1c>
 8005b10:	f8d5 200e 	ldr.w	r2, [r5, #14]
 8005b14:	f002 03f0 	and.w	r3, r2, #240	; 0xf0
 8005b18:	2be0      	cmp	r3, #224	; 0xe0
 8005b1a:	d115      	bne.n	8005b48 <arpProcessRequest+0x48>
 8005b1c:	bd70      	pop	{r4, r5, r6, pc}
 8005b1e:	f8d4 31dc 	ldr.w	r3, [r4, #476]	; 0x1dc
 8005b22:	428b      	cmp	r3, r1
 8005b24:	d115      	bne.n	8005b52 <arpProcessRequest+0x52>
 8005b26:	2a00      	cmp	r2, #0
 8005b28:	d1f8      	bne.n	8005b1c <arpProcessRequest+0x1c>
 8005b2a:	4620      	mov	r0, r4
 8005b2c:	f7fc f926 	bl	8001d7c <nicGetLogicalInterface>
 8005b30:	2206      	movs	r2, #6
 8005b32:	f100 01cc 	add.w	r1, r0, #204	; 0xcc
 8005b36:	f105 0008 	add.w	r0, r5, #8
 8005b3a:	f003 fce2 	bl	8009502 <memcmp>
 8005b3e:	2800      	cmp	r0, #0
 8005b40:	d0ec      	beq.n	8005b1c <arpProcessRequest+0x1c>
 8005b42:	f8c4 61e4 	str.w	r6, [r4, #484]	; 0x1e4
 8005b46:	e7e9      	b.n	8005b1c <arpProcessRequest+0x1c>
 8005b48:	f894 61e0 	ldrb.w	r6, [r4, #480]	; 0x1e0
 8005b4c:	69a9      	ldr	r1, [r5, #24]
 8005b4e:	2e01      	cmp	r6, #1
 8005b50:	d0e5      	beq.n	8005b1e <arpProcessRequest+0x1e>
 8005b52:	f105 0308 	add.w	r3, r5, #8
 8005b56:	4620      	mov	r0, r4
 8005b58:	e8bd 4070 	ldmia.w	sp!, {r4, r5, r6, lr}
 8005b5c:	f7ff bf7c 	b.w	8005a58 <arpSendReply>

08005b60 <arpProcessPacket>:
 8005b60:	2a1b      	cmp	r2, #27
 8005b62:	b570      	push	{r4, r5, r6, lr}
 8005b64:	4605      	mov	r5, r0
 8005b66:	460c      	mov	r4, r1
 8005b68:	d91a      	bls.n	8005ba0 <arpProcessPacket+0x40>
 8005b6a:	880b      	ldrh	r3, [r1, #0]
 8005b6c:	f5b3 7f80 	cmp.w	r3, #256	; 0x100
 8005b70:	d116      	bne.n	8005ba0 <arpProcessPacket+0x40>
 8005b72:	884b      	ldrh	r3, [r1, #2]
 8005b74:	2b08      	cmp	r3, #8
 8005b76:	d113      	bne.n	8005ba0 <arpProcessPacket+0x40>
 8005b78:	790e      	ldrb	r6, [r1, #4]
 8005b7a:	2e06      	cmp	r6, #6
 8005b7c:	d110      	bne.n	8005ba0 <arpProcessPacket+0x40>
 8005b7e:	794b      	ldrb	r3, [r1, #5]
 8005b80:	2b04      	cmp	r3, #4
 8005b82:	d10d      	bne.n	8005ba0 <arpProcessPacket+0x40>
 8005b84:	f890 31e0 	ldrb.w	r3, [r0, #480]	; 0x1e0
 8005b88:	b153      	cbz	r3, 8005ba0 <arpProcessPacket+0x40>
 8005b8a:	f8d4 200e 	ldr.w	r2, [r4, #14]
 8005b8e:	f8d5 11dc 	ldr.w	r1, [r5, #476]	; 0x1dc
 8005b92:	4291      	cmp	r1, r2
 8005b94:	d110      	bne.n	8005bb8 <arpProcessPacket+0x58>
 8005b96:	2b01      	cmp	r3, #1
 8005b98:	d103      	bne.n	8005ba2 <arpProcessPacket+0x42>
 8005b9a:	2301      	movs	r3, #1
 8005b9c:	f8c5 31e4 	str.w	r3, [r5, #484]	; 0x1e4
 8005ba0:	bd70      	pop	{r4, r5, r6, pc}
 8005ba2:	f7fc f8eb 	bl	8001d7c <nicGetLogicalInterface>
 8005ba6:	4632      	mov	r2, r6
 8005ba8:	f100 01cc 	add.w	r1, r0, #204	; 0xcc
 8005bac:	f104 0008 	add.w	r0, r4, #8
 8005bb0:	f003 fca7 	bl	8009502 <memcmp>
 8005bb4:	2800      	cmp	r0, #0
 8005bb6:	d1f0      	bne.n	8005b9a <arpProcessPacket+0x3a>
 8005bb8:	69a3      	ldr	r3, [r4, #24]
 8005bba:	f8d5 21dc 	ldr.w	r2, [r5, #476]	; 0x1dc
 8005bbe:	429a      	cmp	r2, r3
 8005bc0:	d1ee      	bne.n	8005ba0 <arpProcessPacket+0x40>
 8005bc2:	88e0      	ldrh	r0, [r4, #6]
 8005bc4:	f7fa ffbf 	bl	8000b46 <swapInt16>
 8005bc8:	2801      	cmp	r0, #1
 8005bca:	d007      	beq.n	8005bdc <arpProcessPacket+0x7c>
 8005bcc:	2802      	cmp	r0, #2
 8005bce:	d1e7      	bne.n	8005ba0 <arpProcessPacket+0x40>
 8005bd0:	4621      	mov	r1, r4
 8005bd2:	4628      	mov	r0, r5
 8005bd4:	e8bd 4070 	ldmia.w	sp!, {r4, r5, r6, lr}
 8005bd8:	f7ff bd7c 	b.w	80056d4 <arpProcessReply>
 8005bdc:	4621      	mov	r1, r4
 8005bde:	4628      	mov	r0, r5
 8005be0:	e8bd 4070 	ldmia.w	sp!, {r4, r5, r6, lr}
 8005be4:	f7ff bf8c 	b.w	8005b00 <arpProcessRequest>

08005be8 <icmpProcessEchoRequest>:
 8005be8:	e92d 47f0 	stmdb	sp!, {r4, r5, r6, r7, r8, r9, sl, lr}
 8005bec:	b08e      	sub	sp, #56	; 0x38
 8005bee:	4698      	mov	r8, r3
 8005bf0:	9003      	str	r0, [sp, #12]
 8005bf2:	4610      	mov	r0, r2
 8005bf4:	460e      	mov	r6, r1
 8005bf6:	4617      	mov	r7, r2
 8005bf8:	f7fb fd30 	bl	800165c <netBufferGetLength>
 8005bfc:	eba0 0a08 	sub.w	sl, r0, r8
 8005c00:	f1ba 0f07 	cmp.w	sl, #7
 8005c04:	d965      	bls.n	8005cd2 <icmpProcessEchoRequest+0xea>
 8005c06:	4641      	mov	r1, r8
 8005c08:	4638      	mov	r0, r7
 8005c0a:	f7fb fdb8 	bl	800177e <netBufferAt>
 8005c0e:	4681      	mov	r9, r0
 8005c10:	2800      	cmp	r0, #0
 8005c12:	d05e      	beq.n	8005cd2 <icmpProcessEchoRequest+0xea>
 8005c14:	6871      	ldr	r1, [r6, #4]
 8005c16:	9803      	ldr	r0, [sp, #12]
 8005c18:	f000 fe6d 	bl	80068f6 <ipv4IsBroadcastAddr>
 8005c1c:	b920      	cbnz	r0, 8005c28 <icmpProcessEchoRequest+0x40>
 8005c1e:	6873      	ldr	r3, [r6, #4]
 8005c20:	f003 02f0 	and.w	r2, r3, #240	; 0xf0
 8005c24:	2ae0      	cmp	r2, #224	; 0xe0
 8005c26:	d10c      	bne.n	8005c42 <icmpProcessEchoRequest+0x5a>
 8005c28:	9b03      	ldr	r3, [sp, #12]
 8005c2a:	f8d3 31d4 	ldr.w	r3, [r3, #468]	; 0x1d4
 8005c2e:	2b00      	cmp	r3, #0
 8005c30:	d04f      	beq.n	8005cd2 <icmpProcessEchoRequest+0xea>
 8005c32:	6831      	ldr	r1, [r6, #0]
 8005c34:	aa08      	add	r2, sp, #32
 8005c36:	a803      	add	r0, sp, #12
 8005c38:	f000 fef8 	bl	8006a2c <ipv4SelectSourceAddr>
 8005c3c:	2800      	cmp	r0, #0
 8005c3e:	d148      	bne.n	8005cd2 <icmpProcessEchoRequest+0xea>
 8005c40:	9b08      	ldr	r3, [sp, #32]
 8005c42:	9305      	str	r3, [sp, #20]
 8005c44:	a904      	add	r1, sp, #16
 8005c46:	2008      	movs	r0, #8
 8005c48:	f7fb fb2e 	bl	80012a8 <ipAllocBuffer>
 8005c4c:	4605      	mov	r5, r0
 8005c4e:	2800      	cmp	r0, #0
 8005c50:	d03f      	beq.n	8005cd2 <icmpProcessEchoRequest+0xea>
 8005c52:	9904      	ldr	r1, [sp, #16]
 8005c54:	f7fb fd93 	bl	800177e <netBufferAt>
 8005c58:	2300      	movs	r3, #0
 8005c5a:	7003      	strb	r3, [r0, #0]
 8005c5c:	7043      	strb	r3, [r0, #1]
 8005c5e:	7083      	strb	r3, [r0, #2]
 8005c60:	70c3      	strb	r3, [r0, #3]
 8005c62:	f8b9 3004 	ldrh.w	r3, [r9, #4]
 8005c66:	8083      	strh	r3, [r0, #4]
 8005c68:	f8b9 3006 	ldrh.w	r3, [r9, #6]
 8005c6c:	80c3      	strh	r3, [r0, #6]
 8005c6e:	4604      	mov	r4, r0
 8005c70:	f1aa 0308 	sub.w	r3, sl, #8
 8005c74:	f108 0208 	add.w	r2, r8, #8
 8005c78:	4639      	mov	r1, r7
 8005c7a:	4628      	mov	r0, r5
 8005c7c:	f7fb fd94 	bl	80017a8 <netBufferConcat>
 8005c80:	bb20      	cbnz	r0, 8005ccc <icmpProcessEchoRequest+0xe4>
 8005c82:	4628      	mov	r0, r5
 8005c84:	f7fb fcea 	bl	800165c <netBufferGetLength>
 8005c88:	9904      	ldr	r1, [sp, #16]
 8005c8a:	1a47      	subs	r7, r0, r1
 8005c8c:	463a      	mov	r2, r7
 8005c8e:	4628      	mov	r0, r5
 8005c90:	f7fb fab9 	bl	8001206 <ipCalcChecksumEx>
 8005c94:	6833      	ldr	r3, [r6, #0]
 8005c96:	8060      	strh	r0, [r4, #2]
 8005c98:	9306      	str	r3, [sp, #24]
 8005c9a:	b2b8      	uxth	r0, r7
 8005c9c:	f44f 7380 	mov.w	r3, #256	; 0x100
 8005ca0:	f8ad 301c 	strh.w	r3, [sp, #28]
 8005ca4:	f7fa ff4f 	bl	8000b46 <swapInt16>
 8005ca8:	4e0b      	ldr	r6, [pc, #44]	; (8005cd8 <icmpProcessEchoRequest+0xf0>)
 8005caa:	f8ad 001e 	strh.w	r0, [sp, #30]
 8005cae:	ce0f      	ldmia	r6!, {r0, r1, r2, r3}
 8005cb0:	ac08      	add	r4, sp, #32
 8005cb2:	c40f      	stmia	r4!, {r0, r1, r2, r3}
 8005cb4:	e896 0003 	ldmia.w	r6, {r0, r1}
 8005cb8:	ab08      	add	r3, sp, #32
 8005cba:	e884 0003 	stmia.w	r4, {r0, r1}
 8005cbe:	462a      	mov	r2, r5
 8005cc0:	9300      	str	r3, [sp, #0]
 8005cc2:	9803      	ldr	r0, [sp, #12]
 8005cc4:	9b04      	ldr	r3, [sp, #16]
 8005cc6:	a905      	add	r1, sp, #20
 8005cc8:	f000 fb1e 	bl	8006308 <ipv4SendDatagram>
 8005ccc:	4628      	mov	r0, r5
 8005cce:	f7fb fd2c 	bl	800172a <netBufferFree>
 8005cd2:	b00e      	add	sp, #56	; 0x38
 8005cd4:	e8bd 87f0 	ldmia.w	sp!, {r4, r5, r6, r7, r8, r9, sl, pc}
 8005cd8:	0800a9e4 	.word	0x0800a9e4

08005cdc <icmpProcessMessage>:
 8005cdc:	e92d 47f0 	stmdb	sp!, {r4, r5, r6, r7, r8, r9, sl, lr}
 8005ce0:	4680      	mov	r8, r0
 8005ce2:	4610      	mov	r0, r2
 8005ce4:	461d      	mov	r5, r3
 8005ce6:	4689      	mov	r9, r1
 8005ce8:	4614      	mov	r4, r2
 8005cea:	f7fb fcb7 	bl	800165c <netBufferGetLength>
 8005cee:	1b47      	subs	r7, r0, r5
 8005cf0:	2f03      	cmp	r7, #3
 8005cf2:	d916      	bls.n	8005d22 <icmpProcessMessage+0x46>
 8005cf4:	4629      	mov	r1, r5
 8005cf6:	4620      	mov	r0, r4
 8005cf8:	f7fb fd41 	bl	800177e <netBufferAt>
 8005cfc:	4606      	mov	r6, r0
 8005cfe:	b180      	cbz	r0, 8005d22 <icmpProcessMessage+0x46>
 8005d00:	463a      	mov	r2, r7
 8005d02:	4629      	mov	r1, r5
 8005d04:	4620      	mov	r0, r4
 8005d06:	f7fb fa7e 	bl	8001206 <ipCalcChecksumEx>
 8005d0a:	b950      	cbnz	r0, 8005d22 <icmpProcessMessage+0x46>
 8005d0c:	7833      	ldrb	r3, [r6, #0]
 8005d0e:	2b08      	cmp	r3, #8
 8005d10:	d107      	bne.n	8005d22 <icmpProcessMessage+0x46>
 8005d12:	462b      	mov	r3, r5
 8005d14:	4622      	mov	r2, r4
 8005d16:	4649      	mov	r1, r9
 8005d18:	4640      	mov	r0, r8
 8005d1a:	e8bd 47f0 	ldmia.w	sp!, {r4, r5, r6, r7, r8, r9, sl, lr}
 8005d1e:	f7ff bf63 	b.w	8005be8 <icmpProcessEchoRequest>
 8005d22:	e8bd 87f0 	ldmia.w	sp!, {r4, r5, r6, r7, r8, r9, sl, pc}
	...

08005d28 <icmpSendErrorMessage>:
 8005d28:	e92d 4ff0 	stmdb	sp!, {r4, r5, r6, r7, r8, r9, sl, fp, lr}
 8005d2c:	b091      	sub	sp, #68	; 0x44
 8005d2e:	e9dd 891a 	ldrd	r8, r9, [sp, #104]	; 0x68
 8005d32:	4607      	mov	r7, r0
 8005d34:	4640      	mov	r0, r8
 8005d36:	e9cd 2303 	strd	r2, r3, [sp, #12]
 8005d3a:	468b      	mov	fp, r1
 8005d3c:	f7fb fc8e 	bl	800165c <netBufferGetLength>
 8005d40:	eba0 0409 	sub.w	r4, r0, r9
 8005d44:	2c13      	cmp	r4, #19
 8005d46:	d96f      	bls.n	8005e28 <icmpSendErrorMessage+0x100>
 8005d48:	4649      	mov	r1, r9
 8005d4a:	4640      	mov	r0, r8
 8005d4c:	f7fb fd17 	bl	800177e <netBufferAt>
 8005d50:	4606      	mov	r6, r0
 8005d52:	2800      	cmp	r0, #0
 8005d54:	d06b      	beq.n	8005e2e <icmpSendErrorMessage+0x106>
 8005d56:	6901      	ldr	r1, [r0, #16]
 8005d58:	4638      	mov	r0, r7
 8005d5a:	f000 fdcc 	bl	80068f6 <ipv4IsBroadcastAddr>
 8005d5e:	4682      	mov	sl, r0
 8005d60:	2800      	cmp	r0, #0
 8005d62:	d167      	bne.n	8005e34 <icmpSendErrorMessage+0x10c>
 8005d64:	6933      	ldr	r3, [r6, #16]
 8005d66:	f003 03f0 	and.w	r3, r3, #240	; 0xf0
 8005d6a:	2be0      	cmp	r3, #224	; 0xe0
 8005d6c:	d062      	beq.n	8005e34 <icmpSendErrorMessage+0x10c>
 8005d6e:	7833      	ldrb	r3, [r6, #0]
 8005d70:	f003 030f 	and.w	r3, r3, #15
 8005d74:	3302      	adds	r3, #2
 8005d76:	009b      	lsls	r3, r3, #2
 8005d78:	42a3      	cmp	r3, r4
 8005d7a:	bf28      	it	cs
 8005d7c:	4623      	movcs	r3, r4
 8005d7e:	a906      	add	r1, sp, #24
 8005d80:	2008      	movs	r0, #8
 8005d82:	9305      	str	r3, [sp, #20]
 8005d84:	f7fb fa90 	bl	80012a8 <ipAllocBuffer>
 8005d88:	4605      	mov	r5, r0
 8005d8a:	2800      	cmp	r0, #0
 8005d8c:	d055      	beq.n	8005e3a <icmpSendErrorMessage+0x112>
 8005d8e:	9906      	ldr	r1, [sp, #24]
 8005d90:	f7fb fcf5 	bl	800177e <netBufferAt>
 8005d94:	9b03      	ldr	r3, [sp, #12]
 8005d96:	7043      	strb	r3, [r0, #1]
 8005d98:	9b04      	ldr	r3, [sp, #16]
 8005d9a:	7103      	strb	r3, [r0, #4]
 8005d9c:	f880 b000 	strb.w	fp, [r0]
 8005da0:	f880 a002 	strb.w	sl, [r0, #2]
 8005da4:	f880 a003 	strb.w	sl, [r0, #3]
 8005da8:	f880 a005 	strb.w	sl, [r0, #5]
 8005dac:	f880 a006 	strb.w	sl, [r0, #6]
 8005db0:	f880 a007 	strb.w	sl, [r0, #7]
 8005db4:	4641      	mov	r1, r8
 8005db6:	9b05      	ldr	r3, [sp, #20]
 8005db8:	4604      	mov	r4, r0
 8005dba:	464a      	mov	r2, r9
 8005dbc:	4628      	mov	r0, r5
 8005dbe:	f7fb fcf3 	bl	80017a8 <netBufferConcat>
 8005dc2:	4680      	mov	r8, r0
 8005dc4:	bb48      	cbnz	r0, 8005e1a <icmpSendErrorMessage+0xf2>
 8005dc6:	4628      	mov	r0, r5
 8005dc8:	f7fb fc48 	bl	800165c <netBufferGetLength>
 8005dcc:	9906      	ldr	r1, [sp, #24]
 8005dce:	eba0 0801 	sub.w	r8, r0, r1
 8005dd2:	4642      	mov	r2, r8
 8005dd4:	4628      	mov	r0, r5
 8005dd6:	f7fb fa16 	bl	8001206 <ipCalcChecksumEx>
 8005dda:	8060      	strh	r0, [r4, #2]
 8005ddc:	6933      	ldr	r3, [r6, #16]
 8005dde:	9307      	str	r3, [sp, #28]
 8005de0:	68f3      	ldr	r3, [r6, #12]
 8005de2:	9308      	str	r3, [sp, #32]
 8005de4:	fa1f f088 	uxth.w	r0, r8
 8005de8:	f44f 7380 	mov.w	r3, #256	; 0x100
 8005dec:	f8ad 3024 	strh.w	r3, [sp, #36]	; 0x24
 8005df0:	f7fa fea9 	bl	8000b46 <swapInt16>
 8005df4:	4e12      	ldr	r6, [pc, #72]	; (8005e40 <icmpSendErrorMessage+0x118>)
 8005df6:	f8ad 0026 	strh.w	r0, [sp, #38]	; 0x26
 8005dfa:	ce0f      	ldmia	r6!, {r0, r1, r2, r3}
 8005dfc:	ac0a      	add	r4, sp, #40	; 0x28
 8005dfe:	c40f      	stmia	r4!, {r0, r1, r2, r3}
 8005e00:	e896 0003 	ldmia.w	r6, {r0, r1}
 8005e04:	ab0a      	add	r3, sp, #40	; 0x28
 8005e06:	e884 0003 	stmia.w	r4, {r0, r1}
 8005e0a:	462a      	mov	r2, r5
 8005e0c:	9300      	str	r3, [sp, #0]
 8005e0e:	a907      	add	r1, sp, #28
 8005e10:	9b06      	ldr	r3, [sp, #24]
 8005e12:	4638      	mov	r0, r7
 8005e14:	f000 fa78 	bl	8006308 <ipv4SendDatagram>
 8005e18:	4680      	mov	r8, r0
 8005e1a:	4628      	mov	r0, r5
 8005e1c:	f7fb fc85 	bl	800172a <netBufferFree>
 8005e20:	4640      	mov	r0, r8
 8005e22:	b011      	add	sp, #68	; 0x44
 8005e24:	e8bd 8ff0 	ldmia.w	sp!, {r4, r5, r6, r7, r8, r9, sl, fp, pc}
 8005e28:	f04f 08ec 	mov.w	r8, #236	; 0xec
 8005e2c:	e7f8      	b.n	8005e20 <icmpSendErrorMessage+0xf8>
 8005e2e:	f04f 0801 	mov.w	r8, #1
 8005e32:	e7f5      	b.n	8005e20 <icmpSendErrorMessage+0xf8>
 8005e34:	f04f 08e4 	mov.w	r8, #228	; 0xe4
 8005e38:	e7f2      	b.n	8005e20 <icmpSendErrorMessage+0xf8>
 8005e3a:	f04f 0864 	mov.w	r8, #100	; 0x64
 8005e3e:	e7ef      	b.n	8005e20 <icmpSendErrorMessage+0xf8>
 8005e40:	0800a9e4 	.word	0x0800a9e4

08005e44 <ipv4Init>:
 8005e44:	b538      	push	{r3, r4, r5, lr}
 8005e46:	4604      	mov	r4, r0
 8005e48:	f7fb ff99 	bl	8001d7e <nicGetPhysicalInterface>
 8005e4c:	4605      	mov	r5, r0
 8005e4e:	f44f 72de 	mov.w	r2, #444	; 0x1bc
 8005e52:	2100      	movs	r1, #0
 8005e54:	f504 70e6 	add.w	r0, r4, #460	; 0x1cc
 8005e58:	f003 fb89 	bl	800956e <memset>
 8005e5c:	6b6b      	ldr	r3, [r5, #52]	; 0x34
 8005e5e:	685b      	ldr	r3, [r3, #4]
 8005e60:	f8c4 31cc 	str.w	r3, [r4, #460]	; 0x1cc
 8005e64:	2500      	movs	r5, #0
 8005e66:	2301      	movs	r3, #1
 8005e68:	e9c4 5374 	strd	r5, r3, [r4, #464]	; 0x1d0
 8005e6c:	4629      	mov	r1, r5
 8005e6e:	f8a4 51d8 	strh.w	r5, [r4, #472]	; 0x1d8
 8005e72:	f8c4 51f0 	str.w	r5, [r4, #496]	; 0x1f0
 8005e76:	f8c4 51f4 	str.w	r5, [r4, #500]	; 0x1f4
 8005e7a:	2250      	movs	r2, #80	; 0x50
 8005e7c:	f504 70fc 	add.w	r0, r4, #504	; 0x1f8
 8005e80:	f003 fb75 	bl	800956e <memset>
 8005e84:	f44f 72a0 	mov.w	r2, #320	; 0x140
 8005e88:	4629      	mov	r1, r5
 8005e8a:	f504 7012 	add.w	r0, r4, #584	; 0x248
 8005e8e:	f003 fb6e 	bl	800956e <memset>
 8005e92:	4628      	mov	r0, r5
 8005e94:	bd38      	pop	{r3, r4, r5, pc}
	...

08005e98 <ipv4SetHostAddrEx>:
 8005e98:	b570      	push	{r4, r5, r6, lr}
 8005e9a:	460c      	mov	r4, r1
 8005e9c:	4616      	mov	r6, r2
 8005e9e:	4605      	mov	r5, r0
 8005ea0:	b1b0      	cbz	r0, 8005ed0 <ipv4SetHostAddrEx+0x38>
 8005ea2:	b9b9      	cbnz	r1, 8005ed4 <ipv4SetHostAddrEx+0x3c>
 8005ea4:	f002 03f0 	and.w	r3, r2, #240	; 0xf0
 8005ea8:	2be0      	cmp	r3, #224	; 0xe0
 8005eaa:	d016      	beq.n	8005eda <ipv4SetHostAddrEx+0x42>
 8005eac:	480c      	ldr	r0, [pc, #48]	; (8005ee0 <ipv4SetHostAddrEx+0x48>)
 8005eae:	f7fa fef1 	bl	8000c94 <osAcquireMutex>
 8005eb2:	2e00      	cmp	r6, #0
 8005eb4:	bf14      	ite	ne
 8005eb6:	2302      	movne	r3, #2
 8005eb8:	2300      	moveq	r3, #0
 8005eba:	4809      	ldr	r0, [pc, #36]	; (8005ee0 <ipv4SetHostAddrEx+0x48>)
 8005ebc:	f8c5 61dc 	str.w	r6, [r5, #476]	; 0x1dc
 8005ec0:	f8c5 41e4 	str.w	r4, [r5, #484]	; 0x1e4
 8005ec4:	f885 31e0 	strb.w	r3, [r5, #480]	; 0x1e0
 8005ec8:	f7fa fee9 	bl	8000c9e <osReleaseMutex>
 8005ecc:	4620      	mov	r0, r4
 8005ece:	bd70      	pop	{r4, r5, r6, pc}
 8005ed0:	2002      	movs	r0, #2
 8005ed2:	e7fc      	b.n	8005ece <ipv4SetHostAddrEx+0x36>
 8005ed4:	f44f 7083 	mov.w	r0, #262	; 0x106
 8005ed8:	e7f9      	b.n	8005ece <ipv4SetHostAddrEx+0x36>
 8005eda:	20e4      	movs	r0, #228	; 0xe4
 8005edc:	e7f7      	b.n	8005ece <ipv4SetHostAddrEx+0x36>
 8005ede:	bf00      	nop
 8005ee0:	20008864 	.word	0x20008864

08005ee4 <ipv4SetHostAddr>:
 8005ee4:	460a      	mov	r2, r1
 8005ee6:	2100      	movs	r1, #0
 8005ee8:	f7ff bfd6 	b.w	8005e98 <ipv4SetHostAddrEx>

08005eec <ipv4SetSubnetMaskEx>:
 8005eec:	b570      	push	{r4, r5, r6, lr}
 8005eee:	460c      	mov	r4, r1
 8005ef0:	4616      	mov	r6, r2
 8005ef2:	4605      	mov	r5, r0
 8005ef4:	b150      	cbz	r0, 8005f0c <ipv4SetSubnetMaskEx+0x20>
 8005ef6:	b959      	cbnz	r1, 8005f10 <ipv4SetSubnetMaskEx+0x24>
 8005ef8:	4807      	ldr	r0, [pc, #28]	; (8005f18 <ipv4SetSubnetMaskEx+0x2c>)
 8005efa:	f7fa fecb 	bl	8000c94 <osAcquireMutex>
 8005efe:	4806      	ldr	r0, [pc, #24]	; (8005f18 <ipv4SetSubnetMaskEx+0x2c>)
 8005f00:	f8c5 61e8 	str.w	r6, [r5, #488]	; 0x1e8
 8005f04:	f7fa fecb 	bl	8000c9e <osReleaseMutex>
 8005f08:	4620      	mov	r0, r4
 8005f0a:	bd70      	pop	{r4, r5, r6, pc}
 8005f0c:	2002      	movs	r0, #2
 8005f0e:	e7fc      	b.n	8005f0a <ipv4SetSubnetMaskEx+0x1e>
 8005f10:	f44f 7083 	mov.w	r0, #262	; 0x106
 8005f14:	e7f9      	b.n	8005f0a <ipv4SetSubnetMaskEx+0x1e>
 8005f16:	bf00      	nop
 8005f18:	20008864 	.word	0x20008864

08005f1c <ipv4SetSubnetMask>:
 8005f1c:	460a      	mov	r2, r1
 8005f1e:	2100      	movs	r1, #0
 8005f20:	f7ff bfe4 	b.w	8005eec <ipv4SetSubnetMaskEx>

08005f24 <ipv4SetDefaultGatewayEx>:
 8005f24:	b570      	push	{r4, r5, r6, lr}
 8005f26:	460c      	mov	r4, r1
 8005f28:	4616      	mov	r6, r2
 8005f2a:	4605      	mov	r5, r0
 8005f2c:	b170      	cbz	r0, 8005f4c <ipv4SetDefaultGatewayEx+0x28>
 8005f2e:	b979      	cbnz	r1, 8005f50 <ipv4SetDefaultGatewayEx+0x2c>
 8005f30:	f002 03f0 	and.w	r3, r2, #240	; 0xf0
 8005f34:	2be0      	cmp	r3, #224	; 0xe0
 8005f36:	d00e      	beq.n	8005f56 <ipv4SetDefaultGatewayEx+0x32>
 8005f38:	4808      	ldr	r0, [pc, #32]	; (8005f5c <ipv4SetDefaultGatewayEx+0x38>)
 8005f3a:	f7fa feab 	bl	8000c94 <osAcquireMutex>
 8005f3e:	4807      	ldr	r0, [pc, #28]	; (8005f5c <ipv4SetDefaultGatewayEx+0x38>)
 8005f40:	f8c5 61ec 	str.w	r6, [r5, #492]	; 0x1ec
 8005f44:	f7fa feab 	bl	8000c9e <osReleaseMutex>
 8005f48:	4620      	mov	r0, r4
 8005f4a:	bd70      	pop	{r4, r5, r6, pc}
 8005f4c:	2002      	movs	r0, #2
 8005f4e:	e7fc      	b.n	8005f4a <ipv4SetDefaultGatewayEx+0x26>
 8005f50:	f44f 7083 	mov.w	r0, #262	; 0x106
 8005f54:	e7f9      	b.n	8005f4a <ipv4SetDefaultGatewayEx+0x26>
 8005f56:	20e4      	movs	r0, #228	; 0xe4
 8005f58:	e7f7      	b.n	8005f4a <ipv4SetDefaultGatewayEx+0x26>
 8005f5a:	bf00      	nop
 8005f5c:	20008864 	.word	0x20008864

08005f60 <ipv4SetDefaultGateway>:
 8005f60:	460a      	mov	r2, r1
 8005f62:	2100      	movs	r1, #0
 8005f64:	f7ff bfde 	b.w	8005f24 <ipv4SetDefaultGatewayEx>

08005f68 <ipv4LinkChangeEvent>:
 8005f68:	b510      	push	{r4, lr}
 8005f6a:	4604      	mov	r4, r0
 8005f6c:	f7fb ff07 	bl	8001d7e <nicGetPhysicalInterface>
 8005f70:	6b43      	ldr	r3, [r0, #52]	; 0x34
 8005f72:	685b      	ldr	r3, [r3, #4]
 8005f74:	f8c4 31cc 	str.w	r3, [r4, #460]	; 0x1cc
 8005f78:	4620      	mov	r0, r4
 8005f7a:	f7ff fb26 	bl	80055ca <arpFlushCache>
 8005f7e:	4620      	mov	r0, r4
 8005f80:	f000 fae2 	bl	8006548 <ipv4FlushFragQueue>
 8005f84:	f8d4 0688 	ldr.w	r0, [r4, #1672]	; 0x688
 8005f88:	e8bd 4010 	ldmia.w	sp!, {r4, lr}
 8005f8c:	f7fe bb82 	b.w	8004694 <dhcpClientLinkChangeEvent>

08005f90 <ipv4ProcessDatagram>:
 8005f90:	e92d 41f0 	stmdb	sp!, {r4, r5, r6, r7, r8, lr}
 8005f94:	4605      	mov	r5, r0
 8005f96:	b088      	sub	sp, #32
 8005f98:	4608      	mov	r0, r1
 8005f9a:	460c      	mov	r4, r1
 8005f9c:	4617      	mov	r7, r2
 8005f9e:	f7fb fb5d 	bl	800165c <netBufferGetLength>
 8005fa2:	2100      	movs	r1, #0
 8005fa4:	4680      	mov	r8, r0
 8005fa6:	4620      	mov	r0, r4
 8005fa8:	f7fb fbe9 	bl	800177e <netBufferAt>
 8005fac:	4606      	mov	r6, r0
 8005fae:	b368      	cbz	r0, 800600c <ipv4ProcessDatagram+0x7c>
 8005fb0:	7800      	ldrb	r0, [r0, #0]
 8005fb2:	f000 000f 	and.w	r0, r0, #15
 8005fb6:	0083      	lsls	r3, r0, #2
 8005fb8:	220c      	movs	r2, #12
 8005fba:	9303      	str	r3, [sp, #12]
 8005fbc:	9204      	str	r2, [sp, #16]
 8005fbe:	68f2      	ldr	r2, [r6, #12]
 8005fc0:	9205      	str	r2, [sp, #20]
 8005fc2:	6932      	ldr	r2, [r6, #16]
 8005fc4:	9206      	str	r2, [sp, #24]
 8005fc6:	2200      	movs	r2, #0
 8005fc8:	f88d 201c 	strb.w	r2, [sp, #28]
 8005fcc:	eba8 0080 	sub.w	r0, r8, r0, lsl #2
 8005fd0:	7a72      	ldrb	r2, [r6, #9]
 8005fd2:	f88d 201d 	strb.w	r2, [sp, #29]
 8005fd6:	b280      	uxth	r0, r0
 8005fd8:	f7fa fdb5 	bl	8000b46 <swapInt16>
 8005fdc:	f8ad 001e 	strh.w	r0, [sp, #30]
 8005fe0:	7a32      	ldrb	r2, [r6, #8]
 8005fe2:	703a      	strb	r2, [r7, #0]
 8005fe4:	7a72      	ldrb	r2, [r6, #9]
 8005fe6:	9b03      	ldr	r3, [sp, #12]
 8005fe8:	2a06      	cmp	r2, #6
 8005fea:	d012      	beq.n	8006012 <ipv4ProcessDatagram+0x82>
 8005fec:	2a11      	cmp	r2, #17
 8005fee:	d017      	beq.n	8006020 <ipv4ProcessDatagram+0x90>
 8005ff0:	2a01      	cmp	r2, #1
 8005ff2:	d12a      	bne.n	800604a <ipv4ProcessDatagram+0xba>
 8005ff4:	4622      	mov	r2, r4
 8005ff6:	a905      	add	r1, sp, #20
 8005ff8:	4628      	mov	r0, r5
 8005ffa:	f7ff fe6f 	bl	8005cdc <icmpProcessMessage>
 8005ffe:	9b03      	ldr	r3, [sp, #12]
 8006000:	9700      	str	r7, [sp, #0]
 8006002:	4622      	mov	r2, r4
 8006004:	a904      	add	r1, sp, #16
 8006006:	4628      	mov	r0, r5
 8006008:	f7fb ff98 	bl	8001f3c <rawSocketProcessIpPacket>
 800600c:	b008      	add	sp, #32
 800600e:	e8bd 81f0 	ldmia.w	sp!, {r4, r5, r6, r7, r8, pc}
 8006012:	9700      	str	r7, [sp, #0]
 8006014:	4622      	mov	r2, r4
 8006016:	a904      	add	r1, sp, #16
 8006018:	4628      	mov	r0, r5
 800601a:	f7fc fbd5 	bl	80027c8 <tcpProcessSegment>
 800601e:	e7f5      	b.n	800600c <ipv4ProcessDatagram+0x7c>
 8006020:	9700      	str	r7, [sp, #0]
 8006022:	4622      	mov	r2, r4
 8006024:	a904      	add	r1, sp, #16
 8006026:	4628      	mov	r0, r5
 8006028:	f7fd fe0e 	bl	8003c48 <udpProcessDatagram>
 800602c:	28d1      	cmp	r0, #209	; 0xd1
 800602e:	d113      	bne.n	8006058 <ipv4ProcessDatagram+0xc8>
 8006030:	4601      	mov	r1, r0
 8006032:	4628      	mov	r0, r5
 8006034:	f000 fd8d 	bl	8006b52 <ipv4UpdateErrorStats>
 8006038:	2300      	movs	r3, #0
 800603a:	e9cd 4300 	strd	r4, r3, [sp]
 800603e:	2202      	movs	r2, #2
 8006040:	2103      	movs	r1, #3
 8006042:	4628      	mov	r0, r5
 8006044:	f7ff fe70 	bl	8005d28 <icmpSendErrorMessage>
 8006048:	e7e0      	b.n	800600c <ipv4ProcessDatagram+0x7c>
 800604a:	9700      	str	r7, [sp, #0]
 800604c:	4622      	mov	r2, r4
 800604e:	a904      	add	r1, sp, #16
 8006050:	4628      	mov	r0, r5
 8006052:	f7fb ff73 	bl	8001f3c <rawSocketProcessIpPacket>
 8006056:	e7e9      	b.n	800602c <ipv4ProcessDatagram+0x9c>
 8006058:	28d2      	cmp	r0, #210	; 0xd2
 800605a:	d1d7      	bne.n	800600c <ipv4ProcessDatagram+0x7c>
 800605c:	2300      	movs	r3, #0
 800605e:	2203      	movs	r2, #3
 8006060:	e9cd 4300 	strd	r4, r3, [sp]
 8006064:	4611      	mov	r1, r2
 8006066:	e7ec      	b.n	8006042 <ipv4ProcessDatagram+0xb2>

08006068 <ipv4ProcessPacket>:
 8006068:	b5f0      	push	{r4, r5, r6, r7, lr}
 800606a:	2a13      	cmp	r2, #19
 800606c:	b085      	sub	sp, #20
 800606e:	4605      	mov	r5, r0
 8006070:	460c      	mov	r4, r1
 8006072:	4616      	mov	r6, r2
 8006074:	461f      	mov	r7, r3
 8006076:	d95a      	bls.n	800612e <ipv4ProcessPacket+0xc6>
 8006078:	780b      	ldrb	r3, [r1, #0]
 800607a:	f003 02f0 	and.w	r2, r3, #240	; 0xf0
 800607e:	2a40      	cmp	r2, #64	; 0x40
 8006080:	d004      	beq.n	800608c <ipv4ProcessPacket+0x24>
 8006082:	21d4      	movs	r1, #212	; 0xd4
 8006084:	4628      	mov	r0, r5
 8006086:	f000 fd64 	bl	8006b52 <ipv4UpdateErrorStats>
 800608a:	e042      	b.n	8006112 <ipv4ProcessPacket+0xaa>
 800608c:	f003 030f 	and.w	r3, r3, #15
 8006090:	2b04      	cmp	r3, #4
 8006092:	d9f6      	bls.n	8006082 <ipv4ProcessPacket+0x1a>
 8006094:	8848      	ldrh	r0, [r1, #2]
 8006096:	f7fa fd56 	bl	8000b46 <swapInt16>
 800609a:	7823      	ldrb	r3, [r4, #0]
 800609c:	f003 030f 	and.w	r3, r3, #15
 80060a0:	ebb0 0f83 	cmp.w	r0, r3, lsl #2
 80060a4:	dbed      	blt.n	8006082 <ipv4ProcessPacket+0x1a>
 80060a6:	8860      	ldrh	r0, [r4, #2]
 80060a8:	f7fa fd4d 	bl	8000b46 <swapInt16>
 80060ac:	42b0      	cmp	r0, r6
 80060ae:	d83e      	bhi.n	800612e <ipv4ProcessPacket+0xc6>
 80060b0:	68e1      	ldr	r1, [r4, #12]
 80060b2:	4628      	mov	r0, r5
 80060b4:	f000 fc3b 	bl	800692e <ipv4CheckSourceAddr>
 80060b8:	2800      	cmp	r0, #0
 80060ba:	d1e2      	bne.n	8006082 <ipv4ProcessPacket+0x1a>
 80060bc:	6921      	ldr	r1, [r4, #16]
 80060be:	4628      	mov	r0, r5
 80060c0:	f000 fc42 	bl	8006948 <ipv4CheckDestAddr>
 80060c4:	b108      	cbz	r0, 80060ca <ipv4ProcessPacket+0x62>
 80060c6:	21e4      	movs	r1, #228	; 0xe4
 80060c8:	e7dc      	b.n	8006084 <ipv4ProcessPacket+0x1c>
 80060ca:	6921      	ldr	r1, [r4, #16]
 80060cc:	4628      	mov	r0, r5
 80060ce:	f000 fc61 	bl	8006994 <ipv4IsTentativeAddr>
 80060d2:	2800      	cmp	r0, #0
 80060d4:	d1f7      	bne.n	80060c6 <ipv4ProcessPacket+0x5e>
 80060d6:	7821      	ldrb	r1, [r4, #0]
 80060d8:	f001 010f 	and.w	r1, r1, #15
 80060dc:	0089      	lsls	r1, r1, #2
 80060de:	4620      	mov	r0, r4
 80060e0:	f7fb f84d 	bl	800117e <ipCalcChecksum>
 80060e4:	2800      	cmp	r0, #0
 80060e6:	d1cc      	bne.n	8006082 <ipv4ProcessPacket+0x1a>
 80060e8:	4632      	mov	r2, r6
 80060ea:	6921      	ldr	r1, [r4, #16]
 80060ec:	4628      	mov	r0, r5
 80060ee:	f000 fd2e 	bl	8006b4e <ipv4UpdateInStats>
 80060f2:	8860      	ldrh	r0, [r4, #2]
 80060f4:	f7fa fd27 	bl	8000b46 <swapInt16>
 80060f8:	4606      	mov	r6, r0
 80060fa:	88e0      	ldrh	r0, [r4, #6]
 80060fc:	f7fa fd23 	bl	8000b46 <swapInt16>
 8006100:	f3c0 000d 	ubfx	r0, r0, #0, #14
 8006104:	b138      	cbz	r0, 8006116 <ipv4ProcessPacket+0xae>
 8006106:	463b      	mov	r3, r7
 8006108:	4632      	mov	r2, r6
 800610a:	4621      	mov	r1, r4
 800610c:	4628      	mov	r0, r5
 800610e:	f000 fadf 	bl	80066d0 <ipv4ReassembleDatagram>
 8006112:	b005      	add	sp, #20
 8006114:	bdf0      	pop	{r4, r5, r6, r7, pc}
 8006116:	2301      	movs	r3, #1
 8006118:	463a      	mov	r2, r7
 800611a:	4669      	mov	r1, sp
 800611c:	4628      	mov	r0, r5
 800611e:	e9cd 3300 	strd	r3, r3, [sp]
 8006122:	9402      	str	r4, [sp, #8]
 8006124:	f8ad 600c 	strh.w	r6, [sp, #12]
 8006128:	f7ff ff32 	bl	8005f90 <ipv4ProcessDatagram>
 800612c:	e7f1      	b.n	8006112 <ipv4ProcessPacket+0xaa>
 800612e:	21ec      	movs	r1, #236	; 0xec
 8006130:	e7a8      	b.n	8006084 <ipv4ProcessPacket+0x1c>
	...

08006134 <ipv4SendPacket>:
 8006134:	e92d 4ff0 	stmdb	sp!, {r4, r5, r6, r7, r8, r9, sl, fp, lr}
 8006138:	b085      	sub	sp, #20
 800613a:	461e      	mov	r6, r3
 800613c:	9d10      	ldr	r5, [sp, #64]	; 0x40
 800613e:	9f0e      	ldr	r7, [sp, #56]	; 0x38
 8006140:	68ab      	ldr	r3, [r5, #8]
 8006142:	4604      	mov	r4, r0
 8006144:	4689      	mov	r9, r1
 8006146:	4692      	mov	sl, r2
 8006148:	b923      	cbnz	r3, 8006154 <ipv4SendPacket+0x20>
 800614a:	9b0f      	ldr	r3, [sp, #60]	; 0x3c
 800614c:	2b13      	cmp	r3, #19
 800614e:	d80a      	bhi.n	8006166 <ipv4SendPacket+0x32>
 8006150:	2002      	movs	r0, #2
 8006152:	e005      	b.n	8006160 <ipv4SendPacket+0x2c>
 8006154:	a90f      	add	r1, sp, #60	; 0x3c
 8006156:	4638      	mov	r0, r7
 8006158:	f000 fb99 	bl	800688e <ipv4AddRouterAlertOption>
 800615c:	2800      	cmp	r0, #0
 800615e:	d0f4      	beq.n	800614a <ipv4SendPacket+0x16>
 8006160:	b005      	add	sp, #20
 8006162:	e8bd 8ff0 	ldmia.w	sp!, {r4, r5, r6, r7, r8, r9, sl, fp, pc}
 8006166:	3b14      	subs	r3, #20
 8006168:	4638      	mov	r0, r7
 800616a:	930f      	str	r3, [sp, #60]	; 0x3c
 800616c:	f7fb fa76 	bl	800165c <netBufferGetLength>
 8006170:	990f      	ldr	r1, [sp, #60]	; 0x3c
 8006172:	eba0 0801 	sub.w	r8, r0, r1
 8006176:	4638      	mov	r0, r7
 8006178:	f7fb fb01 	bl	800177e <netBufferAt>
 800617c:	2345      	movs	r3, #69	; 0x45
 800617e:	7003      	strb	r3, [r0, #0]
 8006180:	2300      	movs	r3, #0
 8006182:	4683      	mov	fp, r0
 8006184:	7043      	strb	r3, [r0, #1]
 8006186:	fa1f f088 	uxth.w	r0, r8
 800618a:	f7fa fcdc 	bl	8000b46 <swapInt16>
 800618e:	f8ab 0002 	strh.w	r0, [fp, #2]
 8006192:	4650      	mov	r0, sl
 8006194:	f7fa fcd7 	bl	8000b46 <swapInt16>
 8006198:	f8ab 0004 	strh.w	r0, [fp, #4]
 800619c:	b2b0      	uxth	r0, r6
 800619e:	f7fa fcd2 	bl	8000b46 <swapInt16>
 80061a2:	f8ab 0006 	strh.w	r0, [fp, #6]
 80061a6:	782a      	ldrb	r2, [r5, #0]
 80061a8:	f88b 2008 	strb.w	r2, [fp, #8]
 80061ac:	f899 1009 	ldrb.w	r1, [r9, #9]
 80061b0:	f88b 1009 	strb.w	r1, [fp, #9]
 80061b4:	2300      	movs	r3, #0
 80061b6:	f88b 300a 	strb.w	r3, [fp, #10]
 80061ba:	f88b 300b 	strb.w	r3, [fp, #11]
 80061be:	f8d9 3000 	ldr.w	r3, [r9]
 80061c2:	f8cb 300c 	str.w	r3, [fp, #12]
 80061c6:	f8d9 3004 	ldr.w	r3, [r9, #4]
 80061ca:	f8cb 3010 	str.w	r3, [fp, #16]
 80061ce:	68ab      	ldr	r3, [r5, #8]
 80061d0:	b133      	cbz	r3, 80061e0 <ipv4SendPacket+0xac>
 80061d2:	f89b 3000 	ldrb.w	r3, [fp]
 80061d6:	2106      	movs	r1, #6
 80061d8:	f361 0303 	bfi	r3, r1, #0, #4
 80061dc:	f88b 3000 	strb.w	r3, [fp]
 80061e0:	b912      	cbnz	r2, 80061e8 <ipv4SendPacket+0xb4>
 80061e2:	2340      	movs	r3, #64	; 0x40
 80061e4:	f88b 3008 	strb.w	r3, [fp, #8]
 80061e8:	f89b 2000 	ldrb.w	r2, [fp]
 80061ec:	990f      	ldr	r1, [sp, #60]	; 0x3c
 80061ee:	f002 020f 	and.w	r2, r2, #15
 80061f2:	0092      	lsls	r2, r2, #2
 80061f4:	4638      	mov	r0, r7
 80061f6:	f7fb f806 	bl	8001206 <ipCalcChecksumEx>
 80061fa:	f8d9 1000 	ldr.w	r1, [r9]
 80061fe:	f8ab 000a 	strh.w	r0, [fp, #10]
 8006202:	4620      	mov	r0, r4
 8006204:	f000 fb93 	bl	800692e <ipv4CheckSourceAddr>
 8006208:	2800      	cmp	r0, #0
 800620a:	d1a9      	bne.n	8006160 <ipv4SendPacket+0x2c>
 800620c:	f8d9 0004 	ldr.w	r0, [r9, #4]
 8006210:	2800      	cmp	r0, #0
 8006212:	d06e      	beq.n	80062f2 <ipv4SendPacket+0x1be>
 8006214:	f000 fbca 	bl	80069ac <ipv4IsLocalHostAddr>
 8006218:	2800      	cmp	r0, #0
 800621a:	d16c      	bne.n	80062f6 <ipv4SendPacket+0x1c2>
 800621c:	4620      	mov	r0, r4
 800621e:	f7fb fdae 	bl	8001d7e <nicGetPhysicalInterface>
 8006222:	6b43      	ldr	r3, [r0, #52]	; 0x34
 8006224:	2b00      	cmp	r3, #0
 8006226:	d069      	beq.n	80062fc <ipv4SendPacket+0x1c8>
 8006228:	781b      	ldrb	r3, [r3, #0]
 800622a:	2b01      	cmp	r3, #1
 800622c:	d166      	bne.n	80062fc <ipv4SendPacket+0x1c8>
 800622e:	f105 0612 	add.w	r6, r5, #18
 8006232:	f8d9 a004 	ldr.w	sl, [r9, #4]
 8006236:	4932      	ldr	r1, [pc, #200]	; (8006300 <ipv4SendPacket+0x1cc>)
 8006238:	f8cd a00c 	str.w	sl, [sp, #12]
 800623c:	2206      	movs	r2, #6
 800623e:	4630      	mov	r0, r6
 8006240:	f003 f95f 	bl	8009502 <memcmp>
 8006244:	b950      	cbnz	r0, 800625c <ipv4SendPacket+0x128>
 8006246:	4651      	mov	r1, sl
 8006248:	4620      	mov	r0, r4
 800624a:	f000 fb54 	bl	80068f6 <ipv4IsBroadcastAddr>
 800624e:	b1a8      	cbz	r0, 800627c <ipv4SendPacket+0x148>
 8006250:	4b2c      	ldr	r3, [pc, #176]	; (8006304 <ipv4SendPacket+0x1d0>)
 8006252:	681a      	ldr	r2, [r3, #0]
 8006254:	889b      	ldrh	r3, [r3, #4]
 8006256:	f8c5 2012 	str.w	r2, [r5, #18]
 800625a:	80b3      	strh	r3, [r6, #4]
 800625c:	9903      	ldr	r1, [sp, #12]
 800625e:	4642      	mov	r2, r8
 8006260:	4620      	mov	r0, r4
 8006262:	f000 fc75 	bl	8006b50 <ipv4UpdateOutStats>
 8006266:	9b0f      	ldr	r3, [sp, #60]	; 0x3c
 8006268:	9300      	str	r3, [sp, #0]
 800626a:	9501      	str	r5, [sp, #4]
 800626c:	463b      	mov	r3, r7
 800626e:	f44f 6200 	mov.w	r2, #2048	; 0x800
 8006272:	4631      	mov	r1, r6
 8006274:	4620      	mov	r0, r4
 8006276:	f7fa fda7 	bl	8000dc8 <ethSendFrame>
 800627a:	e771      	b.n	8006160 <ipv4SendPacket+0x2c>
 800627c:	9803      	ldr	r0, [sp, #12]
 800627e:	f000 03f0 	and.w	r3, r0, #240	; 0xf0
 8006282:	2be0      	cmp	r3, #224	; 0xe0
 8006284:	d105      	bne.n	8006292 <ipv4SendPacket+0x15e>
 8006286:	4631      	mov	r1, r6
 8006288:	f000 fc4a 	bl	8006b20 <ipv4MapMulticastAddrToMac>
 800628c:	2800      	cmp	r0, #0
 800628e:	d0e5      	beq.n	800625c <ipv4SendPacket+0x128>
 8006290:	e022      	b.n	80062d8 <ipv4SendPacket+0x1a4>
 8006292:	f8d9 3000 	ldr.w	r3, [r9]
 8006296:	f64f 62a9 	movw	r2, #65193	; 0xfea9
 800629a:	b29b      	uxth	r3, r3
 800629c:	4293      	cmp	r3, r2
 800629e:	d002      	beq.n	80062a6 <ipv4SendPacket+0x172>
 80062a0:	b283      	uxth	r3, r0
 80062a2:	4293      	cmp	r3, r2
 80062a4:	d105      	bne.n	80062b2 <ipv4SendPacket+0x17e>
 80062a6:	4632      	mov	r2, r6
 80062a8:	4601      	mov	r1, r0
 80062aa:	4620      	mov	r0, r4
 80062ac:	f7ff fb24 	bl	80058f8 <arpResolve>
 80062b0:	e7ec      	b.n	800628c <ipv4SendPacket+0x158>
 80062b2:	4601      	mov	r1, r0
 80062b4:	4620      	mov	r0, r4
 80062b6:	f000 fb0f 	bl	80068d8 <ipv4IsOnLink>
 80062ba:	b110      	cbz	r0, 80062c2 <ipv4SendPacket+0x18e>
 80062bc:	9903      	ldr	r1, [sp, #12]
 80062be:	4632      	mov	r2, r6
 80062c0:	e7f3      	b.n	80062aa <ipv4SendPacket+0x176>
 80062c2:	686b      	ldr	r3, [r5, #4]
 80062c4:	2b00      	cmp	r3, #0
 80062c6:	d1f9      	bne.n	80062bc <ipv4SendPacket+0x188>
 80062c8:	f8d9 1000 	ldr.w	r1, [r9]
 80062cc:	aa03      	add	r2, sp, #12
 80062ce:	4620      	mov	r0, r4
 80062d0:	f000 faf1 	bl	80068b6 <ipv4SelectDefaultGateway>
 80062d4:	2800      	cmp	r0, #0
 80062d6:	d0f1      	beq.n	80062bc <ipv4SendPacket+0x188>
 80062d8:	f240 2303 	movw	r3, #515	; 0x203
 80062dc:	4298      	cmp	r0, r3
 80062de:	f47f af3f 	bne.w	8006160 <ipv4SendPacket+0x2c>
 80062e2:	9b0f      	ldr	r3, [sp, #60]	; 0x3c
 80062e4:	9903      	ldr	r1, [sp, #12]
 80062e6:	9500      	str	r5, [sp, #0]
 80062e8:	463a      	mov	r2, r7
 80062ea:	4620      	mov	r0, r4
 80062ec:	f7ff f9a2 	bl	8005634 <arpEnqueuePacket>
 80062f0:	e736      	b.n	8006160 <ipv4SendPacket+0x2c>
 80062f2:	20e4      	movs	r0, #228	; 0xe4
 80062f4:	e734      	b.n	8006160 <ipv4SendPacket+0x2c>
 80062f6:	f44f 7002 	mov.w	r0, #520	; 0x208
 80062fa:	e731      	b.n	8006160 <ipv4SendPacket+0x2c>
 80062fc:	2007      	movs	r0, #7
 80062fe:	e72f      	b.n	8006160 <ipv4SendPacket+0x2c>
 8006300:	0800a887 	.word	0x0800a887
 8006304:	0800a881 	.word	0x0800a881

08006308 <ipv4SendDatagram>:
 8006308:	b5f0      	push	{r4, r5, r6, r7, lr}
 800630a:	4604      	mov	r4, r0
 800630c:	b087      	sub	sp, #28
 800630e:	4610      	mov	r0, r2
 8006310:	461e      	mov	r6, r3
 8006312:	9105      	str	r1, [sp, #20]
 8006314:	4615      	mov	r5, r2
 8006316:	9f0c      	ldr	r7, [sp, #48]	; 0x30
 8006318:	f7fb f9a0 	bl	800165c <netBufferGetLength>
 800631c:	f8b4 21d8 	ldrh.w	r2, [r4, #472]	; 0x1d8
 8006320:	9905      	ldr	r1, [sp, #20]
 8006322:	1c53      	adds	r3, r2, #1
 8006324:	f8a4 31d8 	strh.w	r3, [r4, #472]	; 0x1d8
 8006328:	f1c6 0314 	rsb	r3, r6, #20
 800632c:	4418      	add	r0, r3
 800632e:	f8d4 31cc 	ldr.w	r3, [r4, #460]	; 0x1cc
 8006332:	4298      	cmp	r0, r3
 8006334:	d808      	bhi.n	8006348 <ipv4SendDatagram+0x40>
 8006336:	e9cd 6701 	strd	r6, r7, [sp, #4]
 800633a:	9500      	str	r5, [sp, #0]
 800633c:	2300      	movs	r3, #0
 800633e:	4620      	mov	r0, r4
 8006340:	f7ff fef8 	bl	8006134 <ipv4SendPacket>
 8006344:	b007      	add	sp, #28
 8006346:	bdf0      	pop	{r4, r5, r6, r7, pc}
 8006348:	e9cd 6700 	strd	r6, r7, [sp]
 800634c:	462b      	mov	r3, r5
 800634e:	4620      	mov	r0, r4
 8006350:	f000 f88f 	bl	8006472 <ipv4FragmentDatagram>
 8006354:	e7f6      	b.n	8006344 <ipv4SendDatagram+0x3c>

08006356 <ipv4JoinMulticastGroup>:
 8006356:	f001 03f0 	and.w	r3, r1, #240	; 0xf0
 800635a:	2be0      	cmp	r3, #224	; 0xe0
 800635c:	e92d 41f3 	stmdb	sp!, {r0, r1, r4, r5, r6, r7, r8, lr}
 8006360:	4605      	mov	r5, r0
 8006362:	460f      	mov	r7, r1
 8006364:	d13d      	bne.n	80063e2 <ipv4JoinMulticastGroup+0x8c>
 8006366:	f7fb fd0a 	bl	8001d7e <nicGetPhysicalInterface>
 800636a:	2600      	movs	r6, #0
 800636c:	4680      	mov	r8, r0
 800636e:	462a      	mov	r2, r5
 8006370:	4633      	mov	r3, r6
 8006372:	f8d2 11fc 	ldr.w	r1, [r2, #508]	; 0x1fc
 8006376:	b171      	cbz	r1, 8006396 <ipv4JoinMulticastGroup+0x40>
 8006378:	f8d2 01f8 	ldr.w	r0, [r2, #504]	; 0x1f8
 800637c:	42b8      	cmp	r0, r7
 800637e:	d10d      	bne.n	800639c <ipv4JoinMulticastGroup+0x46>
 8006380:	2014      	movs	r0, #20
 8006382:	fb00 5503 	mla	r5, r0, r3, r5
 8006386:	3101      	adds	r1, #1
 8006388:	f8c5 11fc 	str.w	r1, [r5, #508]	; 0x1fc
 800638c:	2400      	movs	r4, #0
 800638e:	4620      	mov	r0, r4
 8006390:	b002      	add	sp, #8
 8006392:	e8bd 81f0 	ldmia.w	sp!, {r4, r5, r6, r7, r8, pc}
 8006396:	b90e      	cbnz	r6, 800639c <ipv4JoinMulticastGroup+0x46>
 8006398:	f502 76fc 	add.w	r6, r2, #504	; 0x1f8
 800639c:	3301      	adds	r3, #1
 800639e:	2b04      	cmp	r3, #4
 80063a0:	f102 0214 	add.w	r2, r2, #20
 80063a4:	d1e5      	bne.n	8006372 <ipv4JoinMulticastGroup+0x1c>
 80063a6:	b1f6      	cbz	r6, 80063e6 <ipv4JoinMulticastGroup+0x90>
 80063a8:	4669      	mov	r1, sp
 80063aa:	4638      	mov	r0, r7
 80063ac:	f000 fbb8 	bl	8006b20 <ipv4MapMulticastAddrToMac>
 80063b0:	4669      	mov	r1, sp
 80063b2:	4628      	mov	r0, r5
 80063b4:	f7fa fd70 	bl	8000e98 <ethAcceptMacAddr>
 80063b8:	4604      	mov	r4, r0
 80063ba:	2800      	cmp	r0, #0
 80063bc:	d1e7      	bne.n	800638e <ipv4JoinMulticastGroup+0x38>
 80063be:	4545      	cmp	r5, r8
 80063c0:	d00b      	beq.n	80063da <ipv4JoinMulticastGroup+0x84>
 80063c2:	4640      	mov	r0, r8
 80063c4:	4669      	mov	r1, sp
 80063c6:	f7fa fd67 	bl	8000e98 <ethAcceptMacAddr>
 80063ca:	4680      	mov	r8, r0
 80063cc:	b128      	cbz	r0, 80063da <ipv4JoinMulticastGroup+0x84>
 80063ce:	4669      	mov	r1, sp
 80063d0:	4628      	mov	r0, r5
 80063d2:	f7fa fd97 	bl	8000f04 <ethDropMacAddr>
 80063d6:	4644      	mov	r4, r8
 80063d8:	e7d9      	b.n	800638e <ipv4JoinMulticastGroup+0x38>
 80063da:	2301      	movs	r3, #1
 80063dc:	6037      	str	r7, [r6, #0]
 80063de:	6073      	str	r3, [r6, #4]
 80063e0:	e7d5      	b.n	800638e <ipv4JoinMulticastGroup+0x38>
 80063e2:	24e4      	movs	r4, #228	; 0xe4
 80063e4:	e7d3      	b.n	800638e <ipv4JoinMulticastGroup+0x38>
 80063e6:	2401      	movs	r4, #1
 80063e8:	e7d1      	b.n	800638e <ipv4JoinMulticastGroup+0x38>
	...

080063ec <ipv4StringToAddr>:
 80063ec:	b5f0      	push	{r4, r5, r6, r7, lr}
 80063ee:	4d13      	ldr	r5, [pc, #76]	; (800643c <ipv4StringToAddr+0x50>)
 80063f0:	1e44      	subs	r4, r0, #1
 80063f2:	f04f 33ff 	mov.w	r3, #4294967295	; 0xffffffff
 80063f6:	2200      	movs	r2, #0
 80063f8:	260a      	movs	r6, #10
 80063fa:	f814 0f01 	ldrb.w	r0, [r4, #1]!
 80063fe:	5d47      	ldrb	r7, [r0, r5]
 8006400:	077f      	lsls	r7, r7, #29
 8006402:	d508      	bpl.n	8006416 <ipv4StringToAddr+0x2a>
 8006404:	ea23 73e3 	bic.w	r3, r3, r3, asr #31
 8006408:	3830      	subs	r0, #48	; 0x30
 800640a:	fb06 0303 	mla	r3, r6, r3, r0
 800640e:	2bff      	cmp	r3, #255	; 0xff
 8006410:	ddf3      	ble.n	80063fa <ipv4StringToAddr+0xe>
 8006412:	2069      	movs	r0, #105	; 0x69
 8006414:	e011      	b.n	800643a <ipv4StringToAddr+0x4e>
 8006416:	282e      	cmp	r0, #46	; 0x2e
 8006418:	d108      	bne.n	800642c <ipv4StringToAddr+0x40>
 800641a:	2a03      	cmp	r2, #3
 800641c:	dcf9      	bgt.n	8006412 <ipv4StringToAddr+0x26>
 800641e:	2b00      	cmp	r3, #0
 8006420:	dbf7      	blt.n	8006412 <ipv4StringToAddr+0x26>
 8006422:	548b      	strb	r3, [r1, r2]
 8006424:	3201      	adds	r2, #1
 8006426:	f04f 33ff 	mov.w	r3, #4294967295	; 0xffffffff
 800642a:	e7e6      	b.n	80063fa <ipv4StringToAddr+0xe>
 800642c:	2800      	cmp	r0, #0
 800642e:	d1f0      	bne.n	8006412 <ipv4StringToAddr+0x26>
 8006430:	2a03      	cmp	r2, #3
 8006432:	d1ee      	bne.n	8006412 <ipv4StringToAddr+0x26>
 8006434:	2b00      	cmp	r3, #0
 8006436:	dbec      	blt.n	8006412 <ipv4StringToAddr+0x26>
 8006438:	70cb      	strb	r3, [r1, #3]
 800643a:	bdf0      	pop	{r4, r5, r6, r7, pc}
 800643c:	0800ac55 	.word	0x0800ac55

08006440 <ipv4AddrToString>:
 8006440:	b513      	push	{r0, r1, r4, lr}
 8006442:	4c09      	ldr	r4, [pc, #36]	; (8006468 <ipv4AddrToString+0x28>)
 8006444:	0e03      	lsrs	r3, r0, #24
 8006446:	2900      	cmp	r1, #0
 8006448:	bf18      	it	ne
 800644a:	460c      	movne	r4, r1
 800644c:	9301      	str	r3, [sp, #4]
 800644e:	f3c0 4307 	ubfx	r3, r0, #16, #8
 8006452:	9300      	str	r3, [sp, #0]
 8006454:	b2c2      	uxtb	r2, r0
 8006456:	f3c0 2307 	ubfx	r3, r0, #8, #8
 800645a:	4904      	ldr	r1, [pc, #16]	; (800646c <ipv4AddrToString+0x2c>)
 800645c:	4620      	mov	r0, r4
 800645e:	f003 fb7b 	bl	8009b58 <siprintf>
 8006462:	4620      	mov	r0, r4
 8006464:	b002      	add	sp, #8
 8006466:	bd10      	pop	{r4, pc}
 8006468:	20000904 	.word	0x20000904
 800646c:	0800ac14 	.word	0x0800ac14

08006470 <ipv4DumpHeader>:
 8006470:	4770      	bx	lr

08006472 <ipv4FragmentDatagram>:
 8006472:	e92d 4ff0 	stmdb	sp!, {r4, r5, r6, r7, r8, r9, sl, fp, lr}
 8006476:	ed2d 8b02 	vpush	{d8}
 800647a:	4607      	mov	r7, r0
 800647c:	b089      	sub	sp, #36	; 0x24
 800647e:	4618      	mov	r0, r3
 8006480:	ee08 1a10 	vmov	s16, r1
 8006484:	4691      	mov	r9, r2
 8006486:	4698      	mov	r8, r3
 8006488:	f7fb f8e8 	bl	800165c <netBufferGetLength>
 800648c:	9b14      	ldr	r3, [sp, #80]	; 0x50
 800648e:	a907      	add	r1, sp, #28
 8006490:	1ac3      	subs	r3, r0, r3
 8006492:	2000      	movs	r0, #0
 8006494:	9305      	str	r3, [sp, #20]
 8006496:	f7fa ff07 	bl	80012a8 <ipAllocBuffer>
 800649a:	4604      	mov	r4, r0
 800649c:	2800      	cmp	r0, #0
 800649e:	d050      	beq.n	8006542 <ipv4FragmentDatagram+0xd0>
 80064a0:	f8d7 51cc 	ldr.w	r5, [r7, #460]	; 0x1cc
 80064a4:	3d14      	subs	r5, #20
 80064a6:	f025 0507 	bic.w	r5, r5, #7
 80064aa:	2600      	movs	r6, #0
 80064ac:	9b05      	ldr	r3, [sp, #20]
 80064ae:	429e      	cmp	r6, r3
 80064b0:	d30a      	bcc.n	80064c8 <ipv4FragmentDatagram+0x56>
 80064b2:	f04f 0b00 	mov.w	fp, #0
 80064b6:	4620      	mov	r0, r4
 80064b8:	f7fb f937 	bl	800172a <netBufferFree>
 80064bc:	4658      	mov	r0, fp
 80064be:	b009      	add	sp, #36	; 0x24
 80064c0:	ecbd 8b02 	vpop	{d8}
 80064c4:	e8bd 8ff0 	ldmia.w	sp!, {r4, r5, r6, r7, r8, r9, sl, fp, pc}
 80064c8:	9907      	ldr	r1, [sp, #28]
 80064ca:	4620      	mov	r0, r4
 80064cc:	f7fb f8d4 	bl	8001678 <netBufferSetLength>
 80064d0:	4683      	mov	fp, r0
 80064d2:	2800      	cmp	r0, #0
 80064d4:	d1ef      	bne.n	80064b6 <ipv4FragmentDatagram+0x44>
 80064d6:	9b05      	ldr	r3, [sp, #20]
 80064d8:	eba3 0a06 	sub.w	sl, r3, r6
 80064dc:	9b14      	ldr	r3, [sp, #80]	; 0x50
 80064de:	45aa      	cmp	sl, r5
 80064e0:	eb06 0203 	add.w	r2, r6, r3
 80064e4:	ea4f 0bd6 	mov.w	fp, r6, lsr #3
 80064e8:	d816      	bhi.n	8006518 <ipv4FragmentDatagram+0xa6>
 80064ea:	4653      	mov	r3, sl
 80064ec:	4641      	mov	r1, r8
 80064ee:	4620      	mov	r0, r4
 80064f0:	f7fb f95a 	bl	80017a8 <netBufferConcat>
 80064f4:	9b15      	ldr	r3, [sp, #84]	; 0x54
 80064f6:	9302      	str	r3, [sp, #8]
 80064f8:	9b07      	ldr	r3, [sp, #28]
 80064fa:	ee18 1a10 	vmov	r1, s16
 80064fe:	e9cd 4300 	strd	r4, r3, [sp]
 8006502:	464a      	mov	r2, r9
 8006504:	465b      	mov	r3, fp
 8006506:	4638      	mov	r0, r7
 8006508:	f7ff fe14 	bl	8006134 <ipv4SendPacket>
 800650c:	4683      	mov	fp, r0
 800650e:	f1bb 0f00 	cmp.w	fp, #0
 8006512:	d1d0      	bne.n	80064b6 <ipv4FragmentDatagram+0x44>
 8006514:	4456      	add	r6, sl
 8006516:	e7c9      	b.n	80064ac <ipv4FragmentDatagram+0x3a>
 8006518:	462b      	mov	r3, r5
 800651a:	4641      	mov	r1, r8
 800651c:	4620      	mov	r0, r4
 800651e:	f7fb f943 	bl	80017a8 <netBufferConcat>
 8006522:	9b15      	ldr	r3, [sp, #84]	; 0x54
 8006524:	9302      	str	r3, [sp, #8]
 8006526:	9b07      	ldr	r3, [sp, #28]
 8006528:	ee18 1a10 	vmov	r1, s16
 800652c:	e9cd 4300 	strd	r4, r3, [sp]
 8006530:	464a      	mov	r2, r9
 8006532:	f44b 5300 	orr.w	r3, fp, #8192	; 0x2000
 8006536:	4638      	mov	r0, r7
 8006538:	f7ff fdfc 	bl	8006134 <ipv4SendPacket>
 800653c:	46aa      	mov	sl, r5
 800653e:	4683      	mov	fp, r0
 8006540:	e7e5      	b.n	800650e <ipv4FragmentDatagram+0x9c>
 8006542:	f04f 0b64 	mov.w	fp, #100	; 0x64
 8006546:	e7b9      	b.n	80064bc <ipv4FragmentDatagram+0x4a>

08006548 <ipv4FlushFragQueue>:
 8006548:	b510      	push	{r4, lr}
 800654a:	2100      	movs	r1, #0
 800654c:	4604      	mov	r4, r0
 800654e:	f500 7016 	add.w	r0, r0, #600	; 0x258
 8006552:	f7fb f891 	bl	8001678 <netBufferSetLength>
 8006556:	2100      	movs	r1, #0
 8006558:	f504 702a 	add.w	r0, r4, #680	; 0x2a8
 800655c:	f7fb f88c 	bl	8001678 <netBufferSetLength>
 8006560:	2100      	movs	r1, #0
 8006562:	f504 703e 	add.w	r0, r4, #760	; 0x2f8
 8006566:	f7fb f887 	bl	8001678 <netBufferSetLength>
 800656a:	f504 7052 	add.w	r0, r4, #840	; 0x348
 800656e:	2100      	movs	r1, #0
 8006570:	e8bd 4010 	ldmia.w	sp!, {r4, lr}
 8006574:	f7fb b880 	b.w	8001678 <netBufferSetLength>

08006578 <ipv4FindHole>:
 8006578:	6843      	ldr	r3, [r0, #4]
 800657a:	3010      	adds	r0, #16
 800657c:	4419      	add	r1, r3
 800657e:	f7fb b8fe 	b.w	800177e <netBufferAt>

08006582 <ipv4FragTick>:
 8006582:	e92d 43f7 	stmdb	sp!, {r0, r1, r2, r4, r5, r6, r7, r8, r9, lr}
 8006586:	4605      	mov	r5, r0
 8006588:	f7fa fb8f 	bl	8000caa <osGetSystemTime>
 800658c:	462c      	mov	r4, r5
 800658e:	4606      	mov	r6, r0
 8006590:	f505 78a0 	add.w	r8, r5, #320	; 0x140
 8006594:	f643 2997 	movw	r9, #14999	; 0x3a97
 8006598:	f8d4 3258 	ldr.w	r3, [r4, #600]	; 0x258
 800659c:	b333      	cbz	r3, 80065ec <ipv4FragTick+0x6a>
 800659e:	f8d4 3248 	ldr.w	r3, [r4, #584]	; 0x248
 80065a2:	1af3      	subs	r3, r6, r3
 80065a4:	454b      	cmp	r3, r9
 80065a6:	d921      	bls.n	80065ec <ipv4FragTick+0x6a>
 80065a8:	f8d4 0260 	ldr.w	r0, [r4, #608]	; 0x260
 80065ac:	f7ff ff60 	bl	8006470 <ipv4DumpHeader>
 80065b0:	f8b4 1254 	ldrh.w	r1, [r4, #596]	; 0x254
 80065b4:	f504 7012 	add.w	r0, r4, #584	; 0x248
 80065b8:	f7ff ffde 	bl	8006578 <ipv4FindHole>
 80065bc:	f504 7716 	add.w	r7, r4, #600	; 0x258
 80065c0:	b180      	cbz	r0, 80065e4 <ipv4FragTick+0x62>
 80065c2:	8803      	ldrh	r3, [r0, #0]
 80065c4:	b173      	cbz	r3, 80065e4 <ipv4FragTick+0x62>
 80065c6:	f8d4 124c 	ldr.w	r1, [r4, #588]	; 0x24c
 80065ca:	4638      	mov	r0, r7
 80065cc:	4419      	add	r1, r3
 80065ce:	f7fb f853 	bl	8001678 <netBufferSetLength>
 80065d2:	4603      	mov	r3, r0
 80065d4:	b930      	cbnz	r0, 80065e4 <ipv4FragTick+0x62>
 80065d6:	e9cd 7000 	strd	r7, r0, [sp]
 80065da:	2201      	movs	r2, #1
 80065dc:	210b      	movs	r1, #11
 80065de:	4628      	mov	r0, r5
 80065e0:	f7ff fba2 	bl	8005d28 <icmpSendErrorMessage>
 80065e4:	2100      	movs	r1, #0
 80065e6:	4638      	mov	r0, r7
 80065e8:	f7fb f846 	bl	8001678 <netBufferSetLength>
 80065ec:	3450      	adds	r4, #80	; 0x50
 80065ee:	4544      	cmp	r4, r8
 80065f0:	d1d2      	bne.n	8006598 <ipv4FragTick+0x16>
 80065f2:	b003      	add	sp, #12
 80065f4:	e8bd 83f0 	ldmia.w	sp!, {r4, r5, r6, r7, r8, r9, pc}

080065f8 <ipv4SearchFragQueue>:
 80065f8:	e92d 47f0 	stmdb	sp!, {r4, r5, r6, r7, r8, r9, sl, lr}
 80065fc:	4604      	mov	r4, r0
 80065fe:	460f      	mov	r7, r1
 8006600:	f44f 7516 	mov.w	r5, #600	; 0x258
 8006604:	5963      	ldr	r3, [r4, r5]
 8006606:	bb1b      	cbnz	r3, 8006650 <ipv4SearchFragQueue+0x58>
 8006608:	3550      	adds	r5, #80	; 0x50
 800660a:	f5b5 7f66 	cmp.w	r5, #920	; 0x398
 800660e:	d1f9      	bne.n	8006604 <ipv4SearchFragQueue+0xc>
 8006610:	2300      	movs	r3, #0
 8006612:	2250      	movs	r2, #80	; 0x50
 8006614:	f504 7116 	add.w	r1, r4, #600	; 0x258
 8006618:	fb02 fa03 	mul.w	sl, r2, r3
 800661c:	f851 500a 	ldr.w	r5, [r1, sl]
 8006620:	2d00      	cmp	r5, #0
 8006622:	d150      	bne.n	80066c6 <ipv4SearchFragQueue+0xce>
 8006624:	eb04 080a 	add.w	r8, r4, sl
 8006628:	f50a 7916 	add.w	r9, sl, #600	; 0x258
 800662c:	2307      	movs	r3, #7
 800662e:	44a1      	add	r9, r4
 8006630:	f8c8 325c 	str.w	r3, [r8, #604]	; 0x25c
 8006634:	f240 6106 	movw	r1, #1542	; 0x606
 8006638:	4648      	mov	r0, r9
 800663a:	f7fb f81d 	bl	8001678 <netBufferSetLength>
 800663e:	4606      	mov	r6, r0
 8006640:	b1e8      	cbz	r0, 800667e <ipv4SearchFragQueue+0x86>
 8006642:	4629      	mov	r1, r5
 8006644:	4648      	mov	r0, r9
 8006646:	f7fb f817 	bl	8001678 <netBufferSetLength>
 800664a:	4628      	mov	r0, r5
 800664c:	e8bd 87f0 	ldmia.w	sp!, {r4, r5, r6, r7, r8, r9, sl, pc}
 8006650:	2100      	movs	r1, #0
 8006652:	1960      	adds	r0, r4, r5
 8006654:	f7fb f893 	bl	800177e <netBufferAt>
 8006658:	68fb      	ldr	r3, [r7, #12]
 800665a:	68c2      	ldr	r2, [r0, #12]
 800665c:	429a      	cmp	r2, r3
 800665e:	d1d3      	bne.n	8006608 <ipv4SearchFragQueue+0x10>
 8006660:	6902      	ldr	r2, [r0, #16]
 8006662:	693b      	ldr	r3, [r7, #16]
 8006664:	429a      	cmp	r2, r3
 8006666:	d1cf      	bne.n	8006608 <ipv4SearchFragQueue+0x10>
 8006668:	8882      	ldrh	r2, [r0, #4]
 800666a:	88bb      	ldrh	r3, [r7, #4]
 800666c:	429a      	cmp	r2, r3
 800666e:	d1cb      	bne.n	8006608 <ipv4SearchFragQueue+0x10>
 8006670:	7a42      	ldrb	r2, [r0, #9]
 8006672:	7a7b      	ldrb	r3, [r7, #9]
 8006674:	429a      	cmp	r2, r3
 8006676:	d1c7      	bne.n	8006608 <ipv4SearchFragQueue+0x10>
 8006678:	3d10      	subs	r5, #16
 800667a:	4425      	add	r5, r4
 800667c:	e7e5      	b.n	800664a <ipv4SearchFragQueue+0x52>
 800667e:	783b      	ldrb	r3, [r7, #0]
 8006680:	f003 030f 	and.w	r3, r3, #15
 8006684:	009b      	lsls	r3, r3, #2
 8006686:	e9c8 3093 	strd	r3, r0, [r8, #588]	; 0x24c
 800668a:	f8a8 3264 	strh.w	r3, [r8, #612]	; 0x264
 800668e:	4601      	mov	r1, r0
 8006690:	463a      	mov	r2, r7
 8006692:	4648      	mov	r0, r9
 8006694:	f7fb f938 	bl	8001908 <netBufferWrite>
 8006698:	f7fa fb07 	bl	8000caa <osGetSystemTime>
 800669c:	f50a 7a12 	add.w	sl, sl, #584	; 0x248
 80066a0:	eb04 050a 	add.w	r5, r4, sl
 80066a4:	f8c8 0248 	str.w	r0, [r8, #584]	; 0x248
 80066a8:	f8a8 6254 	strh.w	r6, [r8, #596]	; 0x254
 80066ac:	4631      	mov	r1, r6
 80066ae:	4628      	mov	r0, r5
 80066b0:	f7ff ff62 	bl	8006578 <ipv4FindHole>
 80066b4:	f04f 33ff 	mov.w	r3, #4294967295	; 0xffffffff
 80066b8:	7006      	strb	r6, [r0, #0]
 80066ba:	7046      	strb	r6, [r0, #1]
 80066bc:	7083      	strb	r3, [r0, #2]
 80066be:	70c3      	strb	r3, [r0, #3]
 80066c0:	7103      	strb	r3, [r0, #4]
 80066c2:	7143      	strb	r3, [r0, #5]
 80066c4:	e7c1      	b.n	800664a <ipv4SearchFragQueue+0x52>
 80066c6:	3301      	adds	r3, #1
 80066c8:	2b04      	cmp	r3, #4
 80066ca:	d1a5      	bne.n	8006618 <ipv4SearchFragQueue+0x20>
 80066cc:	2500      	movs	r5, #0
 80066ce:	e7bc      	b.n	800664a <ipv4SearchFragQueue+0x52>

080066d0 <ipv4ReassembleDatagram>:
 80066d0:	e92d 4ff0 	stmdb	sp!, {r4, r5, r6, r7, r8, r9, sl, fp, lr}
 80066d4:	ed2d 8b02 	vpush	{d8}
 80066d8:	ee08 3a10 	vmov	s16, r3
 80066dc:	780b      	ldrb	r3, [r1, #0]
 80066de:	b087      	sub	sp, #28
 80066e0:	f003 030f 	and.w	r3, r3, #15
 80066e4:	4682      	mov	sl, r0
 80066e6:	88c8      	ldrh	r0, [r1, #6]
 80066e8:	eba2 0983 	sub.w	r9, r2, r3, lsl #2
 80066ec:	4688      	mov	r8, r1
 80066ee:	f7fa fa2a 	bl	8000b46 <swapInt16>
 80066f2:	f410 5300 	ands.w	r3, r0, #8192	; 0x2000
 80066f6:	9303      	str	r3, [sp, #12]
 80066f8:	d003      	beq.n	8006702 <ipv4ReassembleDatagram+0x32>
 80066fa:	f019 0f07 	tst.w	r9, #7
 80066fe:	f040 80c1 	bne.w	8006884 <ipv4ReassembleDatagram+0x1b4>
 8006702:	f3c0 060c 	ubfx	r6, r0, #0, #13
 8006706:	4641      	mov	r1, r8
 8006708:	4650      	mov	r0, sl
 800670a:	f7ff ff75 	bl	80065f8 <ipv4SearchFragQueue>
 800670e:	4605      	mov	r5, r0
 8006710:	2800      	cmp	r0, #0
 8006712:	f000 80b7 	beq.w	8006884 <ipv4ReassembleDatagram+0x1b4>
 8006716:	f100 0710 	add.w	r7, r0, #16
 800671a:	b9e6      	cbnz	r6, 8006756 <ipv4ReassembleDatagram+0x86>
 800671c:	f898 3000 	ldrb.w	r3, [r8]
 8006720:	6882      	ldr	r2, [r0, #8]
 8006722:	f003 030f 	and.w	r3, r3, #15
 8006726:	009b      	lsls	r3, r3, #2
 8006728:	441a      	add	r2, r3
 800672a:	f5b2 5f00 	cmp.w	r2, #8192	; 0x2000
 800672e:	6043      	str	r3, [r0, #4]
 8006730:	d908      	bls.n	8006744 <ipv4ReassembleDatagram+0x74>
 8006732:	2100      	movs	r1, #0
 8006734:	4638      	mov	r0, r7
 8006736:	b007      	add	sp, #28
 8006738:	ecbd 8b02 	vpop	{d8}
 800673c:	e8bd 4ff0 	ldmia.w	sp!, {r4, r5, r6, r7, r8, r9, sl, fp, lr}
 8006740:	f7fa bf9a 	b.w	8001678 <netBufferSetLength>
 8006744:	8bc2      	ldrh	r2, [r0, #30]
 8006746:	4293      	cmp	r3, r2
 8006748:	d8f3      	bhi.n	8006732 <ipv4ReassembleDatagram+0x62>
 800674a:	8383      	strh	r3, [r0, #28]
 800674c:	4642      	mov	r2, r8
 800674e:	4631      	mov	r1, r6
 8006750:	4638      	mov	r0, r7
 8006752:	f7fb f8d9 	bl	8001908 <netBufferWrite>
 8006756:	68ab      	ldr	r3, [r5, #8]
 8006758:	ea4f 0bc6 	mov.w	fp, r6, lsl #3
 800675c:	eb09 06c6 	add.w	r6, r9, r6, lsl #3
 8006760:	b2b6      	uxth	r6, r6
 8006762:	429e      	cmp	r6, r3
 8006764:	d90b      	bls.n	800677e <ipv4ReassembleDatagram+0xae>
 8006766:	6869      	ldr	r1, [r5, #4]
 8006768:	4431      	add	r1, r6
 800676a:	f5b1 5f00 	cmp.w	r1, #8192	; 0x2000
 800676e:	d8e0      	bhi.n	8006732 <ipv4ReassembleDatagram+0x62>
 8006770:	3106      	adds	r1, #6
 8006772:	4638      	mov	r0, r7
 8006774:	f7fa ff80 	bl	8001678 <netBufferSetLength>
 8006778:	2800      	cmp	r0, #0
 800677a:	d1da      	bne.n	8006732 <ipv4ReassembleDatagram+0x62>
 800677c:	60ae      	str	r6, [r5, #8]
 800677e:	89a9      	ldrh	r1, [r5, #12]
 8006780:	4628      	mov	r0, r5
 8006782:	f7ff fef9 	bl	8006578 <ipv4FindHole>
 8006786:	2300      	movs	r3, #0
 8006788:	4604      	mov	r4, r0
 800678a:	bb84      	cbnz	r4, 80067ee <ipv4ReassembleDatagram+0x11e>
 800678c:	f898 2000 	ldrb.w	r2, [r8]
 8006790:	6869      	ldr	r1, [r5, #4]
 8006792:	f002 020f 	and.w	r2, r2, #15
 8006796:	4459      	add	r1, fp
 8006798:	464b      	mov	r3, r9
 800679a:	eb08 0282 	add.w	r2, r8, r2, lsl #2
 800679e:	4638      	mov	r0, r7
 80067a0:	f7fb f8b2 	bl	8001908 <netBufferWrite>
 80067a4:	89a9      	ldrh	r1, [r5, #12]
 80067a6:	4628      	mov	r0, r5
 80067a8:	f7ff fee6 	bl	8006578 <ipv4FindHole>
 80067ac:	2800      	cmp	r0, #0
 80067ae:	d169      	bne.n	8006884 <ipv4ReassembleDatagram+0x1b4>
 80067b0:	e9d5 1301 	ldrd	r1, r3, [r5, #4]
 80067b4:	4638      	mov	r0, r7
 80067b6:	4419      	add	r1, r3
 80067b8:	f7fa ff5e 	bl	8001678 <netBufferSetLength>
 80067bc:	2800      	cmp	r0, #0
 80067be:	d1b8      	bne.n	8006732 <ipv4ReassembleDatagram+0x62>
 80067c0:	4621      	mov	r1, r4
 80067c2:	4638      	mov	r0, r7
 80067c4:	f7fa ffdb 	bl	800177e <netBufferAt>
 80067c8:	4606      	mov	r6, r0
 80067ca:	e9d5 0301 	ldrd	r0, r3, [r5, #4]
 80067ce:	4418      	add	r0, r3
 80067d0:	b280      	uxth	r0, r0
 80067d2:	f7fa f9b8 	bl	8000b46 <swapInt16>
 80067d6:	ee18 2a10 	vmov	r2, s16
 80067da:	8070      	strh	r0, [r6, #2]
 80067dc:	71b4      	strb	r4, [r6, #6]
 80067de:	71f4      	strb	r4, [r6, #7]
 80067e0:	72b4      	strb	r4, [r6, #10]
 80067e2:	72f4      	strb	r4, [r6, #11]
 80067e4:	4639      	mov	r1, r7
 80067e6:	4650      	mov	r0, sl
 80067e8:	f7ff fbd2 	bl	8005f90 <ipv4ProcessDatagram>
 80067ec:	e7a1      	b.n	8006732 <ipv4ReassembleDatagram+0x62>
 80067ee:	8862      	ldrh	r2, [r4, #2]
 80067f0:	f8ad 2008 	strh.w	r2, [sp, #8]
 80067f4:	b292      	uxth	r2, r2
 80067f6:	4593      	cmp	fp, r2
 80067f8:	9201      	str	r2, [sp, #4]
 80067fa:	d234      	bcs.n	8006866 <ipv4ReassembleDatagram+0x196>
 80067fc:	8822      	ldrh	r2, [r4, #0]
 80067fe:	b291      	uxth	r1, r2
 8006800:	428e      	cmp	r6, r1
 8006802:	d930      	bls.n	8006866 <ipv4ReassembleDatagram+0x196>
 8006804:	88a0      	ldrh	r0, [r4, #4]
 8006806:	b1ab      	cbz	r3, 8006834 <ipv4ReassembleDatagram+0x164>
 8006808:	8098      	strh	r0, [r3, #4]
 800680a:	458b      	cmp	fp, r1
 800680c:	d918      	bls.n	8006840 <ipv4ReassembleDatagram+0x170>
 800680e:	4628      	mov	r0, r5
 8006810:	e9cd 3204 	strd	r3, r2, [sp, #16]
 8006814:	f7ff feb0 	bl	8006578 <ipv4FindHole>
 8006818:	9b04      	ldr	r3, [sp, #16]
 800681a:	9a05      	ldr	r2, [sp, #20]
 800681c:	8002      	strh	r2, [r0, #0]
 800681e:	4604      	mov	r4, r0
 8006820:	f8a0 b002 	strh.w	fp, [r0, #2]
 8006824:	b143      	cbz	r3, 8006838 <ipv4ReassembleDatagram+0x168>
 8006826:	8899      	ldrh	r1, [r3, #4]
 8006828:	8081      	strh	r1, [r0, #4]
 800682a:	809a      	strh	r2, [r3, #4]
 800682c:	9b01      	ldr	r3, [sp, #4]
 800682e:	429e      	cmp	r6, r3
 8006830:	d30a      	bcc.n	8006848 <ipv4ReassembleDatagram+0x178>
 8006832:	e018      	b.n	8006866 <ipv4ReassembleDatagram+0x196>
 8006834:	81a8      	strh	r0, [r5, #12]
 8006836:	e7e8      	b.n	800680a <ipv4ReassembleDatagram+0x13a>
 8006838:	89ab      	ldrh	r3, [r5, #12]
 800683a:	8083      	strh	r3, [r0, #4]
 800683c:	81aa      	strh	r2, [r5, #12]
 800683e:	e7f5      	b.n	800682c <ipv4ReassembleDatagram+0x15c>
 8006840:	9a01      	ldr	r2, [sp, #4]
 8006842:	4296      	cmp	r6, r2
 8006844:	461c      	mov	r4, r3
 8006846:	d219      	bcs.n	800687c <ipv4ReassembleDatagram+0x1ac>
 8006848:	9b03      	ldr	r3, [sp, #12]
 800684a:	b1bb      	cbz	r3, 800687c <ipv4ReassembleDatagram+0x1ac>
 800684c:	4631      	mov	r1, r6
 800684e:	4628      	mov	r0, r5
 8006850:	f7ff fe92 	bl	8006578 <ipv4FindHole>
 8006854:	f8bd 2008 	ldrh.w	r2, [sp, #8]
 8006858:	8006      	strh	r6, [r0, #0]
 800685a:	8042      	strh	r2, [r0, #2]
 800685c:	b154      	cbz	r4, 8006874 <ipv4ReassembleDatagram+0x1a4>
 800685e:	88a2      	ldrh	r2, [r4, #4]
 8006860:	8082      	strh	r2, [r0, #4]
 8006862:	80a6      	strh	r6, [r4, #4]
 8006864:	4604      	mov	r4, r0
 8006866:	88a1      	ldrh	r1, [r4, #4]
 8006868:	4628      	mov	r0, r5
 800686a:	f7ff fe85 	bl	8006578 <ipv4FindHole>
 800686e:	4623      	mov	r3, r4
 8006870:	4604      	mov	r4, r0
 8006872:	e78a      	b.n	800678a <ipv4ReassembleDatagram+0xba>
 8006874:	89ab      	ldrh	r3, [r5, #12]
 8006876:	8083      	strh	r3, [r0, #4]
 8006878:	81ae      	strh	r6, [r5, #12]
 800687a:	e7f3      	b.n	8006864 <ipv4ReassembleDatagram+0x194>
 800687c:	2c00      	cmp	r4, #0
 800687e:	d1f2      	bne.n	8006866 <ipv4ReassembleDatagram+0x196>
 8006880:	89a9      	ldrh	r1, [r5, #12]
 8006882:	e7f1      	b.n	8006868 <ipv4ReassembleDatagram+0x198>
 8006884:	b007      	add	sp, #28
 8006886:	ecbd 8b02 	vpop	{d8}
 800688a:	e8bd 8ff0 	ldmia.w	sp!, {r4, r5, r6, r7, r8, r9, sl, fp, pc}

0800688e <ipv4AddRouterAlertOption>:
 800688e:	460a      	mov	r2, r1
 8006890:	6809      	ldr	r1, [r1, #0]
 8006892:	2903      	cmp	r1, #3
 8006894:	b508      	push	{r3, lr}
 8006896:	d90c      	bls.n	80068b2 <ipv4AddRouterAlertOption+0x24>
 8006898:	3904      	subs	r1, #4
 800689a:	6011      	str	r1, [r2, #0]
 800689c:	f7fa ff6f 	bl	800177e <netBufferAt>
 80068a0:	2394      	movs	r3, #148	; 0x94
 80068a2:	7003      	strb	r3, [r0, #0]
 80068a4:	2304      	movs	r3, #4
 80068a6:	7043      	strb	r3, [r0, #1]
 80068a8:	2300      	movs	r3, #0
 80068aa:	7083      	strb	r3, [r0, #2]
 80068ac:	70c3      	strb	r3, [r0, #3]
 80068ae:	4618      	mov	r0, r3
 80068b0:	bd08      	pop	{r3, pc}
 80068b2:	2002      	movs	r0, #2
 80068b4:	e7fc      	b.n	80068b0 <ipv4AddRouterAlertOption+0x22>

080068b6 <ipv4SelectDefaultGateway>:
 80068b6:	f890 31e0 	ldrb.w	r3, [r0, #480]	; 0x1e0
 80068ba:	2b02      	cmp	r3, #2
 80068bc:	d109      	bne.n	80068d2 <ipv4SelectDefaultGateway+0x1c>
 80068be:	f8d0 31ec 	ldr.w	r3, [r0, #492]	; 0x1ec
 80068c2:	b133      	cbz	r3, 80068d2 <ipv4SelectDefaultGateway+0x1c>
 80068c4:	f8d0 01dc 	ldr.w	r0, [r0, #476]	; 0x1dc
 80068c8:	4288      	cmp	r0, r1
 80068ca:	d102      	bne.n	80068d2 <ipv4SelectDefaultGateway+0x1c>
 80068cc:	6013      	str	r3, [r2, #0]
 80068ce:	2000      	movs	r0, #0
 80068d0:	4770      	bx	lr
 80068d2:	f44f 7002 	mov.w	r0, #520	; 0x208
 80068d6:	4770      	bx	lr

080068d8 <ipv4IsOnLink>:
 80068d8:	f890 31e0 	ldrb.w	r3, [r0, #480]	; 0x1e0
 80068dc:	b14b      	cbz	r3, 80068f2 <ipv4IsOnLink+0x1a>
 80068de:	f8d0 31dc 	ldr.w	r3, [r0, #476]	; 0x1dc
 80068e2:	4059      	eors	r1, r3
 80068e4:	f8d0 31e8 	ldr.w	r3, [r0, #488]	; 0x1e8
 80068e8:	4219      	tst	r1, r3
 80068ea:	bf0c      	ite	eq
 80068ec:	2001      	moveq	r0, #1
 80068ee:	2000      	movne	r0, #0
 80068f0:	4770      	bx	lr
 80068f2:	4618      	mov	r0, r3
 80068f4:	4770      	bx	lr

080068f6 <ipv4IsBroadcastAddr>:
 80068f6:	1c4a      	adds	r2, r1, #1
 80068f8:	d113      	bne.n	8006922 <ipv4IsBroadcastAddr+0x2c>
 80068fa:	2001      	movs	r0, #1
 80068fc:	4770      	bx	lr
 80068fe:	f8d0 31dc 	ldr.w	r3, [r0, #476]	; 0x1dc
 8006902:	f8d0 21e8 	ldr.w	r2, [r0, #488]	; 0x1e8
 8006906:	404b      	eors	r3, r1
 8006908:	ea13 0002 	ands.w	r0, r3, r2
 800690c:	d107      	bne.n	800691e <ipv4IsBroadcastAddr+0x28>
 800690e:	1c53      	adds	r3, r2, #1
 8006910:	d00c      	beq.n	800692c <ipv4IsBroadcastAddr+0x36>
 8006912:	ea41 0002 	orr.w	r0, r1, r2
 8006916:	1c43      	adds	r3, r0, #1
 8006918:	4258      	negs	r0, r3
 800691a:	4158      	adcs	r0, r3
 800691c:	4770      	bx	lr
 800691e:	2000      	movs	r0, #0
 8006920:	4770      	bx	lr
 8006922:	f890 31e0 	ldrb.w	r3, [r0, #480]	; 0x1e0
 8006926:	2b00      	cmp	r3, #0
 8006928:	d1e9      	bne.n	80068fe <ipv4IsBroadcastAddr+0x8>
 800692a:	4618      	mov	r0, r3
 800692c:	4770      	bx	lr

0800692e <ipv4CheckSourceAddr>:
 800692e:	b510      	push	{r4, lr}
 8006930:	f7ff ffe1 	bl	80068f6 <ipv4IsBroadcastAddr>
 8006934:	b930      	cbnz	r0, 8006944 <ipv4CheckSourceAddr+0x16>
 8006936:	f001 04f0 	and.w	r4, r1, #240	; 0xf0
 800693a:	2ce0      	cmp	r4, #224	; 0xe0
 800693c:	bf0c      	ite	eq
 800693e:	20e4      	moveq	r0, #228	; 0xe4
 8006940:	2000      	movne	r0, #0
 8006942:	bd10      	pop	{r4, pc}
 8006944:	20e4      	movs	r0, #228	; 0xe4
 8006946:	e7fc      	b.n	8006942 <ipv4CheckSourceAddr+0x14>

08006948 <ipv4CheckDestAddr>:
 8006948:	b538      	push	{r3, r4, r5, lr}
 800694a:	4604      	mov	r4, r0
 800694c:	460d      	mov	r5, r1
 800694e:	f7ff ffd2 	bl	80068f6 <ipv4IsBroadcastAddr>
 8006952:	b9e8      	cbnz	r0, 8006990 <ipv4CheckDestAddr+0x48>
 8006954:	f001 03f0 	and.w	r3, r1, #240	; 0xf0
 8006958:	2be0      	cmp	r3, #224	; 0xe0
 800695a:	d10e      	bne.n	800697a <ipv4CheckDestAddr+0x32>
 800695c:	4620      	mov	r0, r4
 800695e:	f104 0350 	add.w	r3, r4, #80	; 0x50
 8006962:	f8d0 21fc 	ldr.w	r2, [r0, #508]	; 0x1fc
 8006966:	b11a      	cbz	r2, 8006970 <ipv4CheckDestAddr+0x28>
 8006968:	f8d0 21f8 	ldr.w	r2, [r0, #504]	; 0x1f8
 800696c:	42aa      	cmp	r2, r5
 800696e:	d00f      	beq.n	8006990 <ipv4CheckDestAddr+0x48>
 8006970:	3014      	adds	r0, #20
 8006972:	4298      	cmp	r0, r3
 8006974:	d1f5      	bne.n	8006962 <ipv4CheckDestAddr+0x1a>
 8006976:	20e4      	movs	r0, #228	; 0xe4
 8006978:	e009      	b.n	800698e <ipv4CheckDestAddr+0x46>
 800697a:	f894 31e0 	ldrb.w	r3, [r4, #480]	; 0x1e0
 800697e:	2b00      	cmp	r3, #0
 8006980:	d0f9      	beq.n	8006976 <ipv4CheckDestAddr+0x2e>
 8006982:	f8d4 01dc 	ldr.w	r0, [r4, #476]	; 0x1dc
 8006986:	4288      	cmp	r0, r1
 8006988:	bf14      	ite	ne
 800698a:	20e4      	movne	r0, #228	; 0xe4
 800698c:	2000      	moveq	r0, #0
 800698e:	bd38      	pop	{r3, r4, r5, pc}
 8006990:	2000      	movs	r0, #0
 8006992:	e7fc      	b.n	800698e <ipv4CheckDestAddr+0x46>

08006994 <ipv4IsTentativeAddr>:
 8006994:	f890 21e0 	ldrb.w	r2, [r0, #480]	; 0x1e0
 8006998:	2a01      	cmp	r2, #1
 800699a:	d105      	bne.n	80069a8 <ipv4IsTentativeAddr+0x14>
 800699c:	f8d0 01dc 	ldr.w	r0, [r0, #476]	; 0x1dc
 80069a0:	1a43      	subs	r3, r0, r1
 80069a2:	4258      	negs	r0, r3
 80069a4:	4158      	adcs	r0, r3
 80069a6:	4770      	bx	lr
 80069a8:	2000      	movs	r0, #0
 80069aa:	4770      	bx	lr

080069ac <ipv4IsLocalHostAddr>:
 80069ac:	b2c3      	uxtb	r3, r0
 80069ae:	2b7f      	cmp	r3, #127	; 0x7f
 80069b0:	d00a      	beq.n	80069c8 <ipv4IsLocalHostAddr+0x1c>
 80069b2:	4b07      	ldr	r3, [pc, #28]	; (80069d0 <ipv4IsLocalHostAddr+0x24>)
 80069b4:	f893 22c0 	ldrb.w	r2, [r3, #704]	; 0x2c0
 80069b8:	2a02      	cmp	r2, #2
 80069ba:	d107      	bne.n	80069cc <ipv4IsLocalHostAddr+0x20>
 80069bc:	f8d3 32bc 	ldr.w	r3, [r3, #700]	; 0x2bc
 80069c0:	1a1b      	subs	r3, r3, r0
 80069c2:	4258      	negs	r0, r3
 80069c4:	4158      	adcs	r0, r3
 80069c6:	4770      	bx	lr
 80069c8:	2001      	movs	r0, #1
 80069ca:	4770      	bx	lr
 80069cc:	2000      	movs	r0, #0
 80069ce:	4770      	bx	lr
 80069d0:	20008864 	.word	0x20008864

080069d4 <ipv4GetAddrScope>:
 80069d4:	1c43      	adds	r3, r0, #1
 80069d6:	d015      	beq.n	8006a04 <ipv4GetAddrScope+0x30>
 80069d8:	f000 03f0 	and.w	r3, r0, #240	; 0xf0
 80069dc:	2be0      	cmp	r3, #224	; 0xe0
 80069de:	d106      	bne.n	80069ee <ipv4GetAddrScope+0x1a>
 80069e0:	f020 407f 	bic.w	r0, r0, #4278190080	; 0xff000000
 80069e4:	28e0      	cmp	r0, #224	; 0xe0
 80069e6:	bf14      	ite	ne
 80069e8:	2003      	movne	r0, #3
 80069ea:	2002      	moveq	r0, #2
 80069ec:	4770      	bx	lr
 80069ee:	b2c3      	uxtb	r3, r0
 80069f0:	2b7f      	cmp	r3, #127	; 0x7f
 80069f2:	d009      	beq.n	8006a08 <ipv4GetAddrScope+0x34>
 80069f4:	f64f 63a9 	movw	r3, #65193	; 0xfea9
 80069f8:	b280      	uxth	r0, r0
 80069fa:	4298      	cmp	r0, r3
 80069fc:	bf14      	ite	ne
 80069fe:	2003      	movne	r0, #3
 8006a00:	2002      	moveq	r0, #2
 8006a02:	4770      	bx	lr
 8006a04:	2002      	movs	r0, #2
 8006a06:	4770      	bx	lr
 8006a08:	2001      	movs	r0, #1
 8006a0a:	4770      	bx	lr

08006a0c <ipv4GetPrefixLength>:
 8006a0c:	b508      	push	{r3, lr}
 8006a0e:	f7fa f89d 	bl	8000b4c <swapInt32>
 8006a12:	f04f 4200 	mov.w	r2, #2147483648	; 0x80000000
 8006a16:	4603      	mov	r3, r0
 8006a18:	2000      	movs	r0, #0
 8006a1a:	fa22 f100 	lsr.w	r1, r2, r0
 8006a1e:	4219      	tst	r1, r3
 8006a20:	d002      	beq.n	8006a28 <ipv4GetPrefixLength+0x1c>
 8006a22:	3001      	adds	r0, #1
 8006a24:	2820      	cmp	r0, #32
 8006a26:	d1f8      	bne.n	8006a1a <ipv4GetPrefixLength+0xe>
 8006a28:	bd08      	pop	{r3, pc}
	...

08006a2c <ipv4SelectSourceAddr>:
 8006a2c:	e92d 4ff0 	stmdb	sp!, {r4, r5, r6, r7, r8, r9, sl, fp, lr}
 8006a30:	4b38      	ldr	r3, [pc, #224]	; (8006b14 <ipv4SelectSourceAddr+0xe8>)
 8006a32:	6806      	ldr	r6, [r0, #0]
 8006a34:	b085      	sub	sp, #20
 8006a36:	429e      	cmp	r6, r3
 8006a38:	4680      	mov	r8, r0
 8006a3a:	460d      	mov	r5, r1
 8006a3c:	9201      	str	r2, [sp, #4]
 8006a3e:	d05e      	beq.n	8006afe <ipv4SelectSourceAddr+0xd2>
 8006a40:	2e00      	cmp	r6, #0
 8006a42:	d064      	beq.n	8006b0e <ipv4SelectSourceAddr+0xe2>
 8006a44:	f240 10f7 	movw	r0, #503	; 0x1f7
 8006a48:	b005      	add	sp, #20
 8006a4a:	e8bd 8ff0 	ldmia.w	sp!, {r4, r5, r6, r7, r8, r9, sl, fp, pc}
 8006a4e:	2a02      	cmp	r2, #2
 8006a50:	d107      	bne.n	8006a62 <ipv4SelectSourceAddr+0x36>
 8006a52:	b97c      	cbnz	r4, 8006a74 <ipv4SelectSourceAddr+0x48>
 8006a54:	4c30      	ldr	r4, [pc, #192]	; (8006b18 <ipv4SelectSourceAddr+0xec>)
 8006a56:	9e02      	ldr	r6, [sp, #8]
 8006a58:	2301      	movs	r3, #1
 8006a5a:	f897 22c0 	ldrb.w	r2, [r7, #704]	; 0x2c0
 8006a5e:	2b00      	cmp	r3, #0
 8006a60:	d0f5      	beq.n	8006a4e <ipv4SelectSourceAddr+0x22>
 8006a62:	2c00      	cmp	r4, #0
 8006a64:	d0ee      	beq.n	8006a44 <ipv4SelectSourceAddr+0x18>
 8006a66:	9a01      	ldr	r2, [sp, #4]
 8006a68:	6823      	ldr	r3, [r4, #0]
 8006a6a:	f8c8 6000 	str.w	r6, [r8]
 8006a6e:	2000      	movs	r0, #0
 8006a70:	6013      	str	r3, [r2, #0]
 8006a72:	e7e9      	b.n	8006a48 <ipv4SelectSourceAddr+0x1c>
 8006a74:	6821      	ldr	r1, [r4, #0]
 8006a76:	42a9      	cmp	r1, r5
 8006a78:	d0ee      	beq.n	8006a58 <ipv4SelectSourceAddr+0x2c>
 8006a7a:	f8d7 22bc 	ldr.w	r2, [r7, #700]	; 0x2bc
 8006a7e:	42aa      	cmp	r2, r5
 8006a80:	d0e8      	beq.n	8006a54 <ipv4SelectSourceAddr+0x28>
 8006a82:	6923      	ldr	r3, [r4, #16]
 8006a84:	9303      	str	r3, [sp, #12]
 8006a86:	42ab      	cmp	r3, r5
 8006a88:	d0e6      	beq.n	8006a58 <ipv4SelectSourceAddr+0x2c>
 8006a8a:	f8d7 b2cc 	ldr.w	fp, [r7, #716]	; 0x2cc
 8006a8e:	45ab      	cmp	fp, r5
 8006a90:	d0e0      	beq.n	8006a54 <ipv4SelectSourceAddr+0x28>
 8006a92:	4610      	mov	r0, r2
 8006a94:	f7ff ff9e 	bl	80069d4 <ipv4GetAddrScope>
 8006a98:	4682      	mov	sl, r0
 8006a9a:	4608      	mov	r0, r1
 8006a9c:	f7ff ff9a 	bl	80069d4 <ipv4GetAddrScope>
 8006aa0:	4582      	cmp	sl, r0
 8006aa2:	9b03      	ldr	r3, [sp, #12]
 8006aa4:	4681      	mov	r9, r0
 8006aa6:	d205      	bcs.n	8006ab4 <ipv4SelectSourceAddr+0x88>
 8006aa8:	4628      	mov	r0, r5
 8006aaa:	f7ff ff93 	bl	80069d4 <ipv4GetAddrScope>
 8006aae:	4582      	cmp	sl, r0
 8006ab0:	d2d0      	bcs.n	8006a54 <ipv4SelectSourceAddr+0x28>
 8006ab2:	e7d1      	b.n	8006a58 <ipv4SelectSourceAddr+0x2c>
 8006ab4:	d905      	bls.n	8006ac2 <ipv4SelectSourceAddr+0x96>
 8006ab6:	4628      	mov	r0, r5
 8006ab8:	f7ff ff8c 	bl	80069d4 <ipv4GetAddrScope>
 8006abc:	4581      	cmp	r9, r0
 8006abe:	d3c9      	bcc.n	8006a54 <ipv4SelectSourceAddr+0x28>
 8006ac0:	e7ca      	b.n	8006a58 <ipv4SelectSourceAddr+0x2c>
 8006ac2:	ea81 0c05 	eor.w	ip, r1, r5
 8006ac6:	68e1      	ldr	r1, [r4, #12]
 8006ac8:	f8d7 02c8 	ldr.w	r0, [r7, #712]	; 0x2c8
 8006acc:	406a      	eors	r2, r5
 8006ace:	ea1c 0f01 	tst.w	ip, r1
 8006ad2:	ea02 0200 	and.w	r2, r2, r0
 8006ad6:	d10a      	bne.n	8006aee <ipv4SelectSourceAddr+0xc2>
 8006ad8:	2a00      	cmp	r2, #0
 8006ada:	d1bd      	bne.n	8006a58 <ipv4SelectSourceAddr+0x2c>
 8006adc:	f7ff ff96 	bl	8006a0c <ipv4GetPrefixLength>
 8006ae0:	4681      	mov	r9, r0
 8006ae2:	68e0      	ldr	r0, [r4, #12]
 8006ae4:	f7ff ff92 	bl	8006a0c <ipv4GetPrefixLength>
 8006ae8:	4581      	cmp	r9, r0
 8006aea:	d8b3      	bhi.n	8006a54 <ipv4SelectSourceAddr+0x28>
 8006aec:	e7b4      	b.n	8006a58 <ipv4SelectSourceAddr+0x2c>
 8006aee:	2a00      	cmp	r2, #0
 8006af0:	d0b0      	beq.n	8006a54 <ipv4SelectSourceAddr+0x28>
 8006af2:	2b00      	cmp	r3, #0
 8006af4:	d1b0      	bne.n	8006a58 <ipv4SelectSourceAddr+0x2c>
 8006af6:	f1bb 0f00 	cmp.w	fp, #0
 8006afa:	d0ad      	beq.n	8006a58 <ipv4SelectSourceAddr+0x2c>
 8006afc:	e7aa      	b.n	8006a54 <ipv4SelectSourceAddr+0x28>
 8006afe:	2400      	movs	r4, #0
 8006b00:	4626      	mov	r6, r4
 8006b02:	4623      	mov	r3, r4
 8006b04:	4f05      	ldr	r7, [pc, #20]	; (8006b1c <ipv4SelectSourceAddr+0xf0>)
 8006b06:	f107 02e0 	add.w	r2, r7, #224	; 0xe0
 8006b0a:	9202      	str	r2, [sp, #8]
 8006b0c:	e7a5      	b.n	8006a5a <ipv4SelectSourceAddr+0x2e>
 8006b0e:	4634      	mov	r4, r6
 8006b10:	4633      	mov	r3, r6
 8006b12:	e7f7      	b.n	8006b04 <ipv4SelectSourceAddr+0xd8>
 8006b14:	20008944 	.word	0x20008944
 8006b18:	20008b20 	.word	0x20008b20
 8006b1c:	20008864 	.word	0x20008864

08006b20 <ipv4MapMulticastAddrToMac>:
 8006b20:	f000 03f0 	and.w	r3, r0, #240	; 0xf0
 8006b24:	2be0      	cmp	r3, #224	; 0xe0
 8006b26:	d110      	bne.n	8006b4a <ipv4MapMulticastAddrToMac+0x2a>
 8006b28:	2301      	movs	r3, #1
 8006b2a:	700b      	strb	r3, [r1, #0]
 8006b2c:	235e      	movs	r3, #94	; 0x5e
 8006b2e:	708b      	strb	r3, [r1, #2]
 8006b30:	f3c0 2306 	ubfx	r3, r0, #8, #7
 8006b34:	70cb      	strb	r3, [r1, #3]
 8006b36:	f3c0 4307 	ubfx	r3, r0, #16, #8
 8006b3a:	2200      	movs	r2, #0
 8006b3c:	710b      	strb	r3, [r1, #4]
 8006b3e:	f3c0 6307 	ubfx	r3, r0, #24, #8
 8006b42:	704a      	strb	r2, [r1, #1]
 8006b44:	714b      	strb	r3, [r1, #5]
 8006b46:	4610      	mov	r0, r2
 8006b48:	4770      	bx	lr
 8006b4a:	20e4      	movs	r0, #228	; 0xe4
 8006b4c:	4770      	bx	lr

08006b4e <ipv4UpdateInStats>:
 8006b4e:	4770      	bx	lr

08006b50 <ipv4UpdateOutStats>:
 8006b50:	4770      	bx	lr

08006b52 <ipv4UpdateErrorStats>:
 8006b52:	4770      	bx	lr

08006b54 <llmnrResponderInit>:
 8006b54:	b510      	push	{r4, lr}
 8006b56:	4907      	ldr	r1, [pc, #28]	; (8006b74 <llmnrResponderInit+0x20>)
 8006b58:	4604      	mov	r4, r0
 8006b5a:	f7ff fbfc 	bl	8006356 <ipv4JoinMulticastGroup>
 8006b5e:	4603      	mov	r3, r0
 8006b60:	b938      	cbnz	r0, 8006b72 <llmnrResponderInit+0x1e>
 8006b62:	4620      	mov	r0, r4
 8006b64:	4a04      	ldr	r2, [pc, #16]	; (8006b78 <llmnrResponderInit+0x24>)
 8006b66:	e8bd 4010 	ldmia.w	sp!, {r4, lr}
 8006b6a:	f241 41eb 	movw	r1, #5355	; 0x14eb
 8006b6e:	f7fd b80d 	b.w	8003b8c <udpAttachRxCallback>
 8006b72:	bd10      	pop	{r4, pc}
 8006b74:	fc0000e0 	.word	0xfc0000e0
 8006b78:	08006cb5 	.word	0x08006cb5

08006b7c <llmnrSendResponse>:
 8006b7c:	e92d 4ff0 	stmdb	sp!, {r4, r5, r6, r7, r8, r9, sl, fp, lr}
 8006b80:	b08f      	sub	sp, #60	; 0x3c
 8006b82:	4607      	mov	r7, r0
 8006b84:	4688      	mov	r8, r1
 8006b86:	f44f 7000 	mov.w	r0, #512	; 0x200
 8006b8a:	a907      	add	r1, sp, #28
 8006b8c:	f8bd a060 	ldrh.w	sl, [sp, #96]	; 0x60
 8006b90:	9204      	str	r2, [sp, #16]
 8006b92:	461d      	mov	r5, r3
 8006b94:	f7fc ffc4 	bl	8003b20 <udpAllocBuffer>
 8006b98:	4606      	mov	r6, r0
 8006b9a:	2800      	cmp	r0, #0
 8006b9c:	f000 8084 	beq.w	8006ca8 <llmnrSendResponse+0x12c>
 8006ba0:	9907      	ldr	r1, [sp, #28]
 8006ba2:	f7fa fdec 	bl	800177e <netBufferAt>
 8006ba6:	2380      	movs	r3, #128	; 0x80
 8006ba8:	2201      	movs	r2, #1
 8006baa:	7083      	strb	r3, [r0, #2]
 8006bac:	f107 0b19 	add.w	fp, r7, #25
 8006bb0:	2300      	movs	r3, #0
 8006bb2:	7142      	strb	r2, [r0, #5]
 8006bb4:	f100 010c 	add.w	r1, r0, #12
 8006bb8:	4604      	mov	r4, r0
 8006bba:	8005      	strh	r5, [r0, #0]
 8006bbc:	70c3      	strb	r3, [r0, #3]
 8006bbe:	7103      	strb	r3, [r0, #4]
 8006bc0:	7183      	strb	r3, [r0, #6]
 8006bc2:	71c3      	strb	r3, [r0, #7]
 8006bc4:	7203      	strb	r3, [r0, #8]
 8006bc6:	7243      	strb	r3, [r0, #9]
 8006bc8:	7283      	strb	r3, [r0, #10]
 8006bca:	72c3      	strb	r3, [r0, #11]
 8006bcc:	4658      	mov	r0, fp
 8006bce:	f7fd ff9d 	bl	8004b0c <dnsEncodeName>
 8006bd2:	f100 030c 	add.w	r3, r0, #12
 8006bd6:	4605      	mov	r5, r0
 8006bd8:	4650      	mov	r0, sl
 8006bda:	eb04 0903 	add.w	r9, r4, r3
 8006bde:	9305      	str	r3, [sp, #20]
 8006be0:	f7f9 ffb1 	bl	8000b46 <swapInt16>
 8006be4:	9b05      	ldr	r3, [sp, #20]
 8006be6:	52e0      	strh	r0, [r4, r3]
 8006be8:	f8bd 0064 	ldrh.w	r0, [sp, #100]	; 0x64
 8006bec:	f7f9 ffab 	bl	8000b46 <swapInt16>
 8006bf0:	f1ba 0f01 	cmp.w	sl, #1
 8006bf4:	f8a9 0002 	strh.w	r0, [r9, #2]
 8006bf8:	f105 0510 	add.w	r5, r5, #16
 8006bfc:	d002      	beq.n	8006c04 <llmnrSendResponse+0x88>
 8006bfe:	f1ba 0fff 	cmp.w	sl, #255	; 0xff
 8006c02:	d120      	bne.n	8006c46 <llmnrSendResponse+0xca>
 8006c04:	f897 31e0 	ldrb.w	r3, [r7, #480]	; 0x1e0
 8006c08:	2b02      	cmp	r3, #2
 8006c0a:	d11c      	bne.n	8006c46 <llmnrSendResponse+0xca>
 8006c0c:	1961      	adds	r1, r4, r5
 8006c0e:	4658      	mov	r0, fp
 8006c10:	f7fd ff7c 	bl	8004b0c <dnsEncodeName>
 8006c14:	4428      	add	r0, r5
 8006c16:	1823      	adds	r3, r4, r0
 8006c18:	2200      	movs	r2, #0
 8006c1a:	2101      	movs	r1, #1
 8006c1c:	5422      	strb	r2, [r4, r0]
 8006c1e:	7059      	strb	r1, [r3, #1]
 8006c20:	709a      	strb	r2, [r3, #2]
 8006c22:	70d9      	strb	r1, [r3, #3]
 8006c24:	711a      	strb	r2, [r3, #4]
 8006c26:	715a      	strb	r2, [r3, #5]
 8006c28:	719a      	strb	r2, [r3, #6]
 8006c2a:	721a      	strb	r2, [r3, #8]
 8006c2c:	211e      	movs	r1, #30
 8006c2e:	2204      	movs	r2, #4
 8006c30:	71d9      	strb	r1, [r3, #7]
 8006c32:	725a      	strb	r2, [r3, #9]
 8006c34:	f8d7 21dc 	ldr.w	r2, [r7, #476]	; 0x1dc
 8006c38:	f8c3 200a 	str.w	r2, [r3, #10]
 8006c3c:	88e3      	ldrh	r3, [r4, #6]
 8006c3e:	3301      	adds	r3, #1
 8006c40:	80e3      	strh	r3, [r4, #6]
 8006c42:	f100 050e 	add.w	r5, r0, #14
 8006c46:	f8b4 a006 	ldrh.w	sl, [r4, #6]
 8006c4a:	f1ba 0f00 	cmp.w	sl, #0
 8006c4e:	d024      	beq.n	8006c9a <llmnrSendResponse+0x11e>
 8006c50:	4650      	mov	r0, sl
 8006c52:	f7f9 ff78 	bl	8000b46 <swapInt16>
 8006c56:	9907      	ldr	r1, [sp, #28]
 8006c58:	80e0      	strh	r0, [r4, #6]
 8006c5a:	4429      	add	r1, r5
 8006c5c:	4d14      	ldr	r5, [pc, #80]	; (8006cb0 <llmnrSendResponse+0x134>)
 8006c5e:	4630      	mov	r0, r6
 8006c60:	f7fa fd0a 	bl	8001678 <netBufferSetLength>
 8006c64:	cd0f      	ldmia	r5!, {r0, r1, r2, r3}
 8006c66:	ac08      	add	r4, sp, #32
 8006c68:	c40f      	stmia	r4!, {r0, r1, r2, r3}
 8006c6a:	e895 0003 	ldmia.w	r5, {r0, r1}
 8006c6e:	23ff      	movs	r3, #255	; 0xff
 8006c70:	f88d 3020 	strb.w	r3, [sp, #32]
 8006c74:	2301      	movs	r3, #1
 8006c76:	9309      	str	r3, [sp, #36]	; 0x24
 8006c78:	ab08      	add	r3, sp, #32
 8006c7a:	e884 0003 	stmia.w	r4, {r0, r1}
 8006c7e:	9303      	str	r3, [sp, #12]
 8006c80:	9b07      	ldr	r3, [sp, #28]
 8006c82:	e9cd 6301 	strd	r6, r3, [sp, #4]
 8006c86:	9b04      	ldr	r3, [sp, #16]
 8006c88:	9300      	str	r3, [sp, #0]
 8006c8a:	f241 42eb 	movw	r2, #5355	; 0x14eb
 8006c8e:	4643      	mov	r3, r8
 8006c90:	2100      	movs	r1, #0
 8006c92:	4638      	mov	r0, r7
 8006c94:	f7fc fed6 	bl	8003a44 <udpSendBuffer>
 8006c98:	4682      	mov	sl, r0
 8006c9a:	4630      	mov	r0, r6
 8006c9c:	f7fa fd45 	bl	800172a <netBufferFree>
 8006ca0:	4650      	mov	r0, sl
 8006ca2:	b00f      	add	sp, #60	; 0x3c
 8006ca4:	e8bd 8ff0 	ldmia.w	sp!, {r4, r5, r6, r7, r8, r9, sl, fp, pc}
 8006ca8:	f04f 0a64 	mov.w	sl, #100	; 0x64
 8006cac:	e7f8      	b.n	8006ca0 <llmnrSendResponse+0x124>
 8006cae:	bf00      	nop
 8006cb0:	0800a9e4 	.word	0x0800a9e4

08006cb4 <llmnrProcessQuery>:
 8006cb4:	e92d 43f0 	stmdb	sp!, {r4, r5, r6, r7, r8, r9, lr}
 8006cb8:	b087      	sub	sp, #28
 8006cba:	4607      	mov	r7, r0
 8006cbc:	4618      	mov	r0, r3
 8006cbe:	f8dd 9038 	ldr.w	r9, [sp, #56]	; 0x38
 8006cc2:	461c      	mov	r4, r3
 8006cc4:	460d      	mov	r5, r1
 8006cc6:	4690      	mov	r8, r2
 8006cc8:	f7fa fcc8 	bl	800165c <netBufferGetLength>
 8006ccc:	eba0 0609 	sub.w	r6, r0, r9
 8006cd0:	f1a6 030c 	sub.w	r3, r6, #12
 8006cd4:	f5b3 7ffa 	cmp.w	r3, #500	; 0x1f4
 8006cd8:	d863      	bhi.n	8006da2 <llmnrProcessQuery+0xee>
 8006cda:	4620      	mov	r0, r4
 8006cdc:	4649      	mov	r1, r9
 8006cde:	f7fa fd4e 	bl	800177e <netBufferAt>
 8006ce2:	4604      	mov	r4, r0
 8006ce4:	2800      	cmp	r0, #0
 8006ce6:	d05c      	beq.n	8006da2 <llmnrProcessQuery+0xee>
 8006ce8:	682b      	ldr	r3, [r5, #0]
 8006cea:	2b0c      	cmp	r3, #12
 8006cec:	d159      	bne.n	8006da2 <llmnrProcessQuery+0xee>
 8006cee:	68ab      	ldr	r3, [r5, #8]
 8006cf0:	f003 03f0 	and.w	r3, r3, #240	; 0xf0
 8006cf4:	2be0      	cmp	r3, #224	; 0xe0
 8006cf6:	d154      	bne.n	8006da2 <llmnrProcessQuery+0xee>
 8006cf8:	f990 2002 	ldrsb.w	r2, [r0, #2]
 8006cfc:	2304      	movs	r3, #4
 8006cfe:	9304      	str	r3, [sp, #16]
 8006d00:	2a00      	cmp	r2, #0
 8006d02:	686b      	ldr	r3, [r5, #4]
 8006d04:	9305      	str	r3, [sp, #20]
 8006d06:	7883      	ldrb	r3, [r0, #2]
 8006d08:	db4b      	blt.n	8006da2 <llmnrProcessQuery+0xee>
 8006d0a:	f013 0f78 	tst.w	r3, #120	; 0x78
 8006d0e:	d148      	bne.n	8006da2 <llmnrProcessQuery+0xee>
 8006d10:	78c3      	ldrb	r3, [r0, #3]
 8006d12:	071b      	lsls	r3, r3, #28
 8006d14:	d145      	bne.n	8006da2 <llmnrProcessQuery+0xee>
 8006d16:	8880      	ldrh	r0, [r0, #4]
 8006d18:	f7f9 ff15 	bl	8000b46 <swapInt16>
 8006d1c:	2801      	cmp	r0, #1
 8006d1e:	d140      	bne.n	8006da2 <llmnrProcessQuery+0xee>
 8006d20:	88e0      	ldrh	r0, [r4, #6]
 8006d22:	f7f9 ff10 	bl	8000b46 <swapInt16>
 8006d26:	2800      	cmp	r0, #0
 8006d28:	d13b      	bne.n	8006da2 <llmnrProcessQuery+0xee>
 8006d2a:	8920      	ldrh	r0, [r4, #8]
 8006d2c:	f7f9 ff0b 	bl	8000b46 <swapInt16>
 8006d30:	bbb8      	cbnz	r0, 8006da2 <llmnrProcessQuery+0xee>
 8006d32:	2300      	movs	r3, #0
 8006d34:	9300      	str	r3, [sp, #0]
 8006d36:	220c      	movs	r2, #12
 8006d38:	4631      	mov	r1, r6
 8006d3a:	4620      	mov	r0, r4
 8006d3c:	f7fd ff0c 	bl	8004b58 <dnsParseName>
 8006d40:	4605      	mov	r5, r0
 8006d42:	b370      	cbz	r0, 8006da2 <llmnrProcessQuery+0xee>
 8006d44:	1d03      	adds	r3, r0, #4
 8006d46:	42b3      	cmp	r3, r6
 8006d48:	d82b      	bhi.n	8006da2 <llmnrProcessQuery+0xee>
 8006d4a:	4425      	add	r5, r4
 8006d4c:	8868      	ldrh	r0, [r5, #2]
 8006d4e:	f7f9 fefa 	bl	8000b46 <swapInt16>
 8006d52:	2801      	cmp	r0, #1
 8006d54:	d120      	bne.n	8006d98 <llmnrProcessQuery+0xe4>
 8006d56:	2300      	movs	r3, #0
 8006d58:	9300      	str	r3, [sp, #0]
 8006d5a:	220c      	movs	r2, #12
 8006d5c:	f107 0319 	add.w	r3, r7, #25
 8006d60:	4631      	mov	r1, r6
 8006d62:	4620      	mov	r0, r4
 8006d64:	f7fd ff44 	bl	8004bf0 <dnsCompareName>
 8006d68:	b9d8      	cbnz	r0, 8006da2 <llmnrProcessQuery+0xee>
 8006d6a:	f8b8 0000 	ldrh.w	r0, [r8]
 8006d6e:	f7f9 feea 	bl	8000b46 <swapInt16>
 8006d72:	8823      	ldrh	r3, [r4, #0]
 8006d74:	9003      	str	r0, [sp, #12]
 8006d76:	8828      	ldrh	r0, [r5, #0]
 8006d78:	9302      	str	r3, [sp, #8]
 8006d7a:	f7f9 fee4 	bl	8000b46 <swapInt16>
 8006d7e:	4604      	mov	r4, r0
 8006d80:	8868      	ldrh	r0, [r5, #2]
 8006d82:	f7f9 fee0 	bl	8000b46 <swapInt16>
 8006d86:	e9dd 3202 	ldrd	r3, r2, [sp, #8]
 8006d8a:	e9cd 4000 	strd	r4, r0, [sp]
 8006d8e:	a904      	add	r1, sp, #16
 8006d90:	4638      	mov	r0, r7
 8006d92:	f7ff fef3 	bl	8006b7c <llmnrSendResponse>
 8006d96:	e004      	b.n	8006da2 <llmnrProcessQuery+0xee>
 8006d98:	8868      	ldrh	r0, [r5, #2]
 8006d9a:	f7f9 fed4 	bl	8000b46 <swapInt16>
 8006d9e:	28ff      	cmp	r0, #255	; 0xff
 8006da0:	d0d9      	beq.n	8006d56 <llmnrProcessQuery+0xa2>
 8006da2:	b007      	add	sp, #28
 8006da4:	e8bd 83f0 	ldmia.w	sp!, {r4, r5, r6, r7, r8, r9, pc}

08006da8 <HAL_Init>:
 8006da8:	b508      	push	{r3, lr}
 8006daa:	4b0b      	ldr	r3, [pc, #44]	; (8006dd8 <HAL_Init+0x30>)
 8006dac:	681a      	ldr	r2, [r3, #0]
 8006dae:	f442 7200 	orr.w	r2, r2, #512	; 0x200
 8006db2:	601a      	str	r2, [r3, #0]
 8006db4:	681a      	ldr	r2, [r3, #0]
 8006db6:	f442 6280 	orr.w	r2, r2, #1024	; 0x400
 8006dba:	601a      	str	r2, [r3, #0]
 8006dbc:	681a      	ldr	r2, [r3, #0]
 8006dbe:	f442 7280 	orr.w	r2, r2, #256	; 0x100
 8006dc2:	601a      	str	r2, [r3, #0]
 8006dc4:	2003      	movs	r0, #3
 8006dc6:	f000 f82f 	bl	8006e28 <HAL_NVIC_SetPriorityGrouping>
 8006dca:	200f      	movs	r0, #15
 8006dcc:	f7f9 fdf4 	bl	80009b8 <HAL_InitTick>
 8006dd0:	f7f9 fdd2 	bl	8000978 <HAL_MspInit>
 8006dd4:	2000      	movs	r0, #0
 8006dd6:	bd08      	pop	{r3, pc}
 8006dd8:	40023c00 	.word	0x40023c00

08006ddc <HAL_IncTick>:
 8006ddc:	4a03      	ldr	r2, [pc, #12]	; (8006dec <HAL_IncTick+0x10>)
 8006dde:	4b04      	ldr	r3, [pc, #16]	; (8006df0 <HAL_IncTick+0x14>)
 8006de0:	6811      	ldr	r1, [r2, #0]
 8006de2:	781b      	ldrb	r3, [r3, #0]
 8006de4:	440b      	add	r3, r1
 8006de6:	6013      	str	r3, [r2, #0]
 8006de8:	4770      	bx	lr
 8006dea:	bf00      	nop
 8006dec:	2000ad48 	.word	0x2000ad48
 8006df0:	20000004 	.word	0x20000004

08006df4 <HAL_GetTick>:
 8006df4:	4b01      	ldr	r3, [pc, #4]	; (8006dfc <HAL_GetTick+0x8>)
 8006df6:	6818      	ldr	r0, [r3, #0]
 8006df8:	4770      	bx	lr
 8006dfa:	bf00      	nop
 8006dfc:	2000ad48 	.word	0x2000ad48

08006e00 <HAL_Delay>:
 8006e00:	b538      	push	{r3, r4, r5, lr}
 8006e02:	4604      	mov	r4, r0
 8006e04:	f7ff fff6 	bl	8006df4 <HAL_GetTick>
 8006e08:	1c63      	adds	r3, r4, #1
 8006e0a:	bf1c      	itt	ne
 8006e0c:	4b05      	ldrne	r3, [pc, #20]	; (8006e24 <HAL_Delay+0x24>)
 8006e0e:	781b      	ldrbne	r3, [r3, #0]
 8006e10:	4605      	mov	r5, r0
 8006e12:	bf18      	it	ne
 8006e14:	18e4      	addne	r4, r4, r3
 8006e16:	f7ff ffed 	bl	8006df4 <HAL_GetTick>
 8006e1a:	1b43      	subs	r3, r0, r5
 8006e1c:	42a3      	cmp	r3, r4
 8006e1e:	d3fa      	bcc.n	8006e16 <HAL_Delay+0x16>
 8006e20:	bd38      	pop	{r3, r4, r5, pc}
 8006e22:	bf00      	nop
 8006e24:	20000004 	.word	0x20000004

08006e28 <HAL_NVIC_SetPriorityGrouping>:
 8006e28:	4907      	ldr	r1, [pc, #28]	; (8006e48 <HAL_NVIC_SetPriorityGrouping+0x20>)
 8006e2a:	68ca      	ldr	r2, [r1, #12]
 8006e2c:	f422 62e0 	bic.w	r2, r2, #1792	; 0x700
 8006e30:	0203      	lsls	r3, r0, #8
 8006e32:	0412      	lsls	r2, r2, #16
 8006e34:	f403 63e0 	and.w	r3, r3, #1792	; 0x700
 8006e38:	0c12      	lsrs	r2, r2, #16
 8006e3a:	4313      	orrs	r3, r2
 8006e3c:	f043 63bf 	orr.w	r3, r3, #100139008	; 0x5f80000
 8006e40:	f443 3300 	orr.w	r3, r3, #131072	; 0x20000
 8006e44:	60cb      	str	r3, [r1, #12]
 8006e46:	4770      	bx	lr
 8006e48:	e000ed00 	.word	0xe000ed00

08006e4c <HAL_NVIC_SetPriority>:
 8006e4c:	4b16      	ldr	r3, [pc, #88]	; (8006ea8 <HAL_NVIC_SetPriority+0x5c>)
 8006e4e:	b530      	push	{r4, r5, lr}
 8006e50:	68dc      	ldr	r4, [r3, #12]
 8006e52:	f3c4 2402 	ubfx	r4, r4, #8, #3
 8006e56:	f1c4 0507 	rsb	r5, r4, #7
 8006e5a:	1d23      	adds	r3, r4, #4
 8006e5c:	2d04      	cmp	r5, #4
 8006e5e:	bf28      	it	cs
 8006e60:	2504      	movcs	r5, #4
 8006e62:	2b06      	cmp	r3, #6
 8006e64:	f04f 33ff 	mov.w	r3, #4294967295	; 0xffffffff
 8006e68:	bf8c      	ite	hi
 8006e6a:	3c03      	subhi	r4, #3
 8006e6c:	2400      	movls	r4, #0
 8006e6e:	fa03 f505 	lsl.w	r5, r3, r5
 8006e72:	ea21 0105 	bic.w	r1, r1, r5
 8006e76:	40a3      	lsls	r3, r4
 8006e78:	ea22 0203 	bic.w	r2, r2, r3
 8006e7c:	40a1      	lsls	r1, r4
 8006e7e:	2800      	cmp	r0, #0
 8006e80:	ea41 0302 	orr.w	r3, r1, r2
 8006e84:	bfac      	ite	ge
 8006e86:	f100 4060 	addge.w	r0, r0, #3758096384	; 0xe0000000
 8006e8a:	4a08      	ldrlt	r2, [pc, #32]	; (8006eac <HAL_NVIC_SetPriority+0x60>)
 8006e8c:	ea4f 1303 	mov.w	r3, r3, lsl #4
 8006e90:	bfb8      	it	lt
 8006e92:	f000 000f 	andlt.w	r0, r0, #15
 8006e96:	b2db      	uxtb	r3, r3
 8006e98:	bfaa      	itet	ge
 8006e9a:	f500 4061 	addge.w	r0, r0, #57600	; 0xe100
 8006e9e:	5413      	strblt	r3, [r2, r0]
 8006ea0:	f880 3300 	strbge.w	r3, [r0, #768]	; 0x300
 8006ea4:	bd30      	pop	{r4, r5, pc}
 8006ea6:	bf00      	nop
 8006ea8:	e000ed00 	.word	0xe000ed00
 8006eac:	e000ed14 	.word	0xe000ed14

08006eb0 <HAL_NVIC_EnableIRQ>:
 8006eb0:	2800      	cmp	r0, #0
 8006eb2:	db08      	blt.n	8006ec6 <HAL_NVIC_EnableIRQ+0x16>
 8006eb4:	0942      	lsrs	r2, r0, #5
 8006eb6:	2301      	movs	r3, #1
 8006eb8:	f000 001f 	and.w	r0, r0, #31
 8006ebc:	fa03 f000 	lsl.w	r0, r3, r0
 8006ec0:	4b01      	ldr	r3, [pc, #4]	; (8006ec8 <HAL_NVIC_EnableIRQ+0x18>)
 8006ec2:	f843 0022 	str.w	r0, [r3, r2, lsl #2]
 8006ec6:	4770      	bx	lr
 8006ec8:	e000e100 	.word	0xe000e100

08006ecc <HAL_GPIO_Init>:
 8006ecc:	e92d 4ff7 	stmdb	sp!, {r0, r1, r2, r4, r5, r6, r7, r8, r9, sl, fp, lr}
 8006ed0:	f8df 91a8 	ldr.w	r9, [pc, #424]	; 800707c <HAL_GPIO_Init+0x1b0>
 8006ed4:	4a67      	ldr	r2, [pc, #412]	; (8007074 <HAL_GPIO_Init+0x1a8>)
 8006ed6:	2300      	movs	r3, #0
 8006ed8:	680d      	ldr	r5, [r1, #0]
 8006eda:	2401      	movs	r4, #1
 8006edc:	409c      	lsls	r4, r3
 8006ede:	ea04 0c05 	and.w	ip, r4, r5
 8006ee2:	43ac      	bics	r4, r5
 8006ee4:	f040 80b1 	bne.w	800704a <HAL_GPIO_Init+0x17e>
 8006ee8:	684d      	ldr	r5, [r1, #4]
 8006eea:	f005 0403 	and.w	r4, r5, #3
 8006eee:	ea4f 0843 	mov.w	r8, r3, lsl #1
 8006ef2:	2603      	movs	r6, #3
 8006ef4:	1e67      	subs	r7, r4, #1
 8006ef6:	fa06 f608 	lsl.w	r6, r6, r8
 8006efa:	2f01      	cmp	r7, #1
 8006efc:	ea6f 0606 	mvn.w	r6, r6
 8006f00:	d834      	bhi.n	8006f6c <HAL_GPIO_Init+0xa0>
 8006f02:	6887      	ldr	r7, [r0, #8]
 8006f04:	ea07 0e06 	and.w	lr, r7, r6
 8006f08:	68cf      	ldr	r7, [r1, #12]
 8006f0a:	fa07 f708 	lsl.w	r7, r7, r8
 8006f0e:	ea47 070e 	orr.w	r7, r7, lr
 8006f12:	6087      	str	r7, [r0, #8]
 8006f14:	6847      	ldr	r7, [r0, #4]
 8006f16:	ea27 0e0c 	bic.w	lr, r7, ip
 8006f1a:	f3c5 1700 	ubfx	r7, r5, #4, #1
 8006f1e:	409f      	lsls	r7, r3
 8006f20:	ea47 070e 	orr.w	r7, r7, lr
 8006f24:	6047      	str	r7, [r0, #4]
 8006f26:	68c7      	ldr	r7, [r0, #12]
 8006f28:	ea07 0e06 	and.w	lr, r7, r6
 8006f2c:	688f      	ldr	r7, [r1, #8]
 8006f2e:	fa07 f708 	lsl.w	r7, r7, r8
 8006f32:	ea47 070e 	orr.w	r7, r7, lr
 8006f36:	2c02      	cmp	r4, #2
 8006f38:	60c7      	str	r7, [r0, #12]
 8006f3a:	d119      	bne.n	8006f70 <HAL_GPIO_Init+0xa4>
 8006f3c:	ea4f 0ad3 	mov.w	sl, r3, lsr #3
 8006f40:	eb00 0a8a 	add.w	sl, r0, sl, lsl #2
 8006f44:	f003 0b07 	and.w	fp, r3, #7
 8006f48:	f8da 7020 	ldr.w	r7, [sl, #32]
 8006f4c:	ea4f 0b8b 	mov.w	fp, fp, lsl #2
 8006f50:	f04f 0e0f 	mov.w	lr, #15
 8006f54:	fa0e fe0b 	lsl.w	lr, lr, fp
 8006f58:	ea27 0e0e 	bic.w	lr, r7, lr
 8006f5c:	690f      	ldr	r7, [r1, #16]
 8006f5e:	fa07 f70b 	lsl.w	r7, r7, fp
 8006f62:	ea47 070e 	orr.w	r7, r7, lr
 8006f66:	f8ca 7020 	str.w	r7, [sl, #32]
 8006f6a:	e001      	b.n	8006f70 <HAL_GPIO_Init+0xa4>
 8006f6c:	2c03      	cmp	r4, #3
 8006f6e:	d1da      	bne.n	8006f26 <HAL_GPIO_Init+0x5a>
 8006f70:	6807      	ldr	r7, [r0, #0]
 8006f72:	fa04 f408 	lsl.w	r4, r4, r8
 8006f76:	403e      	ands	r6, r7
 8006f78:	4326      	orrs	r6, r4
 8006f7a:	f415 3f40 	tst.w	r5, #196608	; 0x30000
 8006f7e:	6006      	str	r6, [r0, #0]
 8006f80:	d063      	beq.n	800704a <HAL_GPIO_Init+0x17e>
 8006f82:	f04f 0a00 	mov.w	sl, #0
 8006f86:	f8cd a004 	str.w	sl, [sp, #4]
 8006f8a:	f8d9 6044 	ldr.w	r6, [r9, #68]	; 0x44
 8006f8e:	4c3a      	ldr	r4, [pc, #232]	; (8007078 <HAL_GPIO_Init+0x1ac>)
 8006f90:	f446 4680 	orr.w	r6, r6, #16384	; 0x4000
 8006f94:	f8c9 6044 	str.w	r6, [r9, #68]	; 0x44
 8006f98:	f8d9 6044 	ldr.w	r6, [r9, #68]	; 0x44
 8006f9c:	f406 4680 	and.w	r6, r6, #16384	; 0x4000
 8006fa0:	9601      	str	r6, [sp, #4]
 8006fa2:	9e01      	ldr	r6, [sp, #4]
 8006fa4:	f023 0603 	bic.w	r6, r3, #3
 8006fa8:	f106 4680 	add.w	r6, r6, #1073741824	; 0x40000000
 8006fac:	f506 369c 	add.w	r6, r6, #79872	; 0x13800
 8006fb0:	f003 0e03 	and.w	lr, r3, #3
 8006fb4:	f8d6 8008 	ldr.w	r8, [r6, #8]
 8006fb8:	ea4f 0e8e 	mov.w	lr, lr, lsl #2
 8006fbc:	270f      	movs	r7, #15
 8006fbe:	fa07 f70e 	lsl.w	r7, r7, lr
 8006fc2:	42a0      	cmp	r0, r4
 8006fc4:	ea28 0707 	bic.w	r7, r8, r7
 8006fc8:	d046      	beq.n	8007058 <HAL_GPIO_Init+0x18c>
 8006fca:	f504 6480 	add.w	r4, r4, #1024	; 0x400
 8006fce:	42a0      	cmp	r0, r4
 8006fd0:	d044      	beq.n	800705c <HAL_GPIO_Init+0x190>
 8006fd2:	f504 6480 	add.w	r4, r4, #1024	; 0x400
 8006fd6:	42a0      	cmp	r0, r4
 8006fd8:	d042      	beq.n	8007060 <HAL_GPIO_Init+0x194>
 8006fda:	f504 6480 	add.w	r4, r4, #1024	; 0x400
 8006fde:	42a0      	cmp	r0, r4
 8006fe0:	d040      	beq.n	8007064 <HAL_GPIO_Init+0x198>
 8006fe2:	f504 6480 	add.w	r4, r4, #1024	; 0x400
 8006fe6:	42a0      	cmp	r0, r4
 8006fe8:	d03e      	beq.n	8007068 <HAL_GPIO_Init+0x19c>
 8006fea:	f504 6480 	add.w	r4, r4, #1024	; 0x400
 8006fee:	42a0      	cmp	r0, r4
 8006ff0:	d03c      	beq.n	800706c <HAL_GPIO_Init+0x1a0>
 8006ff2:	f504 6480 	add.w	r4, r4, #1024	; 0x400
 8006ff6:	42a0      	cmp	r0, r4
 8006ff8:	d03a      	beq.n	8007070 <HAL_GPIO_Init+0x1a4>
 8006ffa:	f504 6480 	add.w	r4, r4, #1024	; 0x400
 8006ffe:	42a0      	cmp	r0, r4
 8007000:	bf0c      	ite	eq
 8007002:	2407      	moveq	r4, #7
 8007004:	2408      	movne	r4, #8
 8007006:	fa04 f40e 	lsl.w	r4, r4, lr
 800700a:	433c      	orrs	r4, r7
 800700c:	60b4      	str	r4, [r6, #8]
 800700e:	6814      	ldr	r4, [r2, #0]
 8007010:	ea6f 060c 	mvn.w	r6, ip
 8007014:	03ef      	lsls	r7, r5, #15
 8007016:	bf54      	ite	pl
 8007018:	4034      	andpl	r4, r6
 800701a:	ea4c 0404 	orrmi.w	r4, ip, r4
 800701e:	6014      	str	r4, [r2, #0]
 8007020:	6854      	ldr	r4, [r2, #4]
 8007022:	03af      	lsls	r7, r5, #14
 8007024:	bf54      	ite	pl
 8007026:	4034      	andpl	r4, r6
 8007028:	ea4c 0404 	orrmi.w	r4, ip, r4
 800702c:	6054      	str	r4, [r2, #4]
 800702e:	6894      	ldr	r4, [r2, #8]
 8007030:	02ef      	lsls	r7, r5, #11
 8007032:	bf54      	ite	pl
 8007034:	4034      	andpl	r4, r6
 8007036:	ea4c 0404 	orrmi.w	r4, ip, r4
 800703a:	6094      	str	r4, [r2, #8]
 800703c:	68d4      	ldr	r4, [r2, #12]
 800703e:	02ad      	lsls	r5, r5, #10
 8007040:	bf54      	ite	pl
 8007042:	4034      	andpl	r4, r6
 8007044:	ea4c 0404 	orrmi.w	r4, ip, r4
 8007048:	60d4      	str	r4, [r2, #12]
 800704a:	3301      	adds	r3, #1
 800704c:	2b10      	cmp	r3, #16
 800704e:	f47f af43 	bne.w	8006ed8 <HAL_GPIO_Init+0xc>
 8007052:	b003      	add	sp, #12
 8007054:	e8bd 8ff0 	ldmia.w	sp!, {r4, r5, r6, r7, r8, r9, sl, fp, pc}
 8007058:	4654      	mov	r4, sl
 800705a:	e7d4      	b.n	8007006 <HAL_GPIO_Init+0x13a>
 800705c:	2401      	movs	r4, #1
 800705e:	e7d2      	b.n	8007006 <HAL_GPIO_Init+0x13a>
 8007060:	2402      	movs	r4, #2
 8007062:	e7d0      	b.n	8007006 <HAL_GPIO_Init+0x13a>
 8007064:	2403      	movs	r4, #3
 8007066:	e7ce      	b.n	8007006 <HAL_GPIO_Init+0x13a>
 8007068:	2404      	movs	r4, #4
 800706a:	e7cc      	b.n	8007006 <HAL_GPIO_Init+0x13a>
 800706c:	2405      	movs	r4, #5
 800706e:	e7ca      	b.n	8007006 <HAL_GPIO_Init+0x13a>
 8007070:	2406      	movs	r4, #6
 8007072:	e7c8      	b.n	8007006 <HAL_GPIO_Init+0x13a>
 8007074:	40013c00 	.word	0x40013c00
 8007078:	40020000 	.word	0x40020000
 800707c:	40023800 	.word	0x40023800

08007080 <HAL_GPIO_WritePin>:
 8007080:	b10a      	cbz	r2, 8007086 <HAL_GPIO_WritePin+0x6>
 8007082:	6181      	str	r1, [r0, #24]
 8007084:	4770      	bx	lr
 8007086:	0409      	lsls	r1, r1, #16
 8007088:	e7fb      	b.n	8007082 <HAL_GPIO_WritePin+0x2>

0800708a <HAL_GPIO_TogglePin>:
 800708a:	6943      	ldr	r3, [r0, #20]
 800708c:	ea01 0203 	and.w	r2, r1, r3
 8007090:	ea21 0103 	bic.w	r1, r1, r3
 8007094:	ea41 4102 	orr.w	r1, r1, r2, lsl #16
 8007098:	6181      	str	r1, [r0, #24]
 800709a:	4770      	bx	lr

0800709c <HAL_GPIO_EXTI_IRQHandler>:
 800709c:	4a04      	ldr	r2, [pc, #16]	; (80070b0 <HAL_GPIO_EXTI_IRQHandler+0x14>)
 800709e:	6951      	ldr	r1, [r2, #20]
 80070a0:	4201      	tst	r1, r0
 80070a2:	b508      	push	{r3, lr}
 80070a4:	d002      	beq.n	80070ac <HAL_GPIO_EXTI_IRQHandler+0x10>
 80070a6:	6150      	str	r0, [r2, #20]
 80070a8:	f002 f930 	bl	800930c <HAL_GPIO_EXTI_Callback>
 80070ac:	bd08      	pop	{r3, pc}
 80070ae:	bf00      	nop
 80070b0:	40013c00 	.word	0x40013c00

080070b4 <HAL_RCC_OscConfig>:
 80070b4:	e92d 41f3 	stmdb	sp!, {r0, r1, r4, r5, r6, r7, r8, lr}
 80070b8:	4604      	mov	r4, r0
 80070ba:	b340      	cbz	r0, 800710e <HAL_RCC_OscConfig+0x5a>
 80070bc:	6803      	ldr	r3, [r0, #0]
 80070be:	07dd      	lsls	r5, r3, #31
 80070c0:	d410      	bmi.n	80070e4 <HAL_RCC_OscConfig+0x30>
 80070c2:	6823      	ldr	r3, [r4, #0]
 80070c4:	0798      	lsls	r0, r3, #30
 80070c6:	d45e      	bmi.n	8007186 <HAL_RCC_OscConfig+0xd2>
 80070c8:	6823      	ldr	r3, [r4, #0]
 80070ca:	071a      	lsls	r2, r3, #28
 80070cc:	f100 80a0 	bmi.w	8007210 <HAL_RCC_OscConfig+0x15c>
 80070d0:	6823      	ldr	r3, [r4, #0]
 80070d2:	075b      	lsls	r3, r3, #29
 80070d4:	f100 80be 	bmi.w	8007254 <HAL_RCC_OscConfig+0x1a0>
 80070d8:	69a0      	ldr	r0, [r4, #24]
 80070da:	2800      	cmp	r0, #0
 80070dc:	f040 811f 	bne.w	800731e <HAL_RCC_OscConfig+0x26a>
 80070e0:	2000      	movs	r0, #0
 80070e2:	e02b      	b.n	800713c <HAL_RCC_OscConfig+0x88>
 80070e4:	4ba6      	ldr	r3, [pc, #664]	; (8007380 <HAL_RCC_OscConfig+0x2cc>)
 80070e6:	689a      	ldr	r2, [r3, #8]
 80070e8:	f002 020c 	and.w	r2, r2, #12
 80070ec:	2a04      	cmp	r2, #4
 80070ee:	d007      	beq.n	8007100 <HAL_RCC_OscConfig+0x4c>
 80070f0:	689a      	ldr	r2, [r3, #8]
 80070f2:	f002 020c 	and.w	r2, r2, #12
 80070f6:	2a08      	cmp	r2, #8
 80070f8:	d10b      	bne.n	8007112 <HAL_RCC_OscConfig+0x5e>
 80070fa:	685a      	ldr	r2, [r3, #4]
 80070fc:	0251      	lsls	r1, r2, #9
 80070fe:	d508      	bpl.n	8007112 <HAL_RCC_OscConfig+0x5e>
 8007100:	4b9f      	ldr	r3, [pc, #636]	; (8007380 <HAL_RCC_OscConfig+0x2cc>)
 8007102:	681b      	ldr	r3, [r3, #0]
 8007104:	039a      	lsls	r2, r3, #14
 8007106:	d5dc      	bpl.n	80070c2 <HAL_RCC_OscConfig+0xe>
 8007108:	6863      	ldr	r3, [r4, #4]
 800710a:	2b00      	cmp	r3, #0
 800710c:	d1d9      	bne.n	80070c2 <HAL_RCC_OscConfig+0xe>
 800710e:	2001      	movs	r0, #1
 8007110:	e014      	b.n	800713c <HAL_RCC_OscConfig+0x88>
 8007112:	6862      	ldr	r2, [r4, #4]
 8007114:	f5b2 3f80 	cmp.w	r2, #65536	; 0x10000
 8007118:	d113      	bne.n	8007142 <HAL_RCC_OscConfig+0x8e>
 800711a:	681a      	ldr	r2, [r3, #0]
 800711c:	f442 3280 	orr.w	r2, r2, #65536	; 0x10000
 8007120:	601a      	str	r2, [r3, #0]
 8007122:	f7ff fe67 	bl	8006df4 <HAL_GetTick>
 8007126:	4e96      	ldr	r6, [pc, #600]	; (8007380 <HAL_RCC_OscConfig+0x2cc>)
 8007128:	4605      	mov	r5, r0
 800712a:	6833      	ldr	r3, [r6, #0]
 800712c:	039b      	lsls	r3, r3, #14
 800712e:	d4c8      	bmi.n	80070c2 <HAL_RCC_OscConfig+0xe>
 8007130:	f7ff fe60 	bl	8006df4 <HAL_GetTick>
 8007134:	1b40      	subs	r0, r0, r5
 8007136:	2864      	cmp	r0, #100	; 0x64
 8007138:	d9f7      	bls.n	800712a <HAL_RCC_OscConfig+0x76>
 800713a:	2003      	movs	r0, #3
 800713c:	b002      	add	sp, #8
 800713e:	e8bd 81f0 	ldmia.w	sp!, {r4, r5, r6, r7, r8, pc}
 8007142:	4d8f      	ldr	r5, [pc, #572]	; (8007380 <HAL_RCC_OscConfig+0x2cc>)
 8007144:	f5b2 2fa0 	cmp.w	r2, #327680	; 0x50000
 8007148:	682b      	ldr	r3, [r5, #0]
 800714a:	d107      	bne.n	800715c <HAL_RCC_OscConfig+0xa8>
 800714c:	f443 2380 	orr.w	r3, r3, #262144	; 0x40000
 8007150:	602b      	str	r3, [r5, #0]
 8007152:	682b      	ldr	r3, [r5, #0]
 8007154:	f443 3380 	orr.w	r3, r3, #65536	; 0x10000
 8007158:	602b      	str	r3, [r5, #0]
 800715a:	e7e2      	b.n	8007122 <HAL_RCC_OscConfig+0x6e>
 800715c:	f423 3380 	bic.w	r3, r3, #65536	; 0x10000
 8007160:	602b      	str	r3, [r5, #0]
 8007162:	682b      	ldr	r3, [r5, #0]
 8007164:	f423 2380 	bic.w	r3, r3, #262144	; 0x40000
 8007168:	602b      	str	r3, [r5, #0]
 800716a:	2a00      	cmp	r2, #0
 800716c:	d1d9      	bne.n	8007122 <HAL_RCC_OscConfig+0x6e>
 800716e:	f7ff fe41 	bl	8006df4 <HAL_GetTick>
 8007172:	4606      	mov	r6, r0
 8007174:	682b      	ldr	r3, [r5, #0]
 8007176:	039f      	lsls	r7, r3, #14
 8007178:	d5a3      	bpl.n	80070c2 <HAL_RCC_OscConfig+0xe>
 800717a:	f7ff fe3b 	bl	8006df4 <HAL_GetTick>
 800717e:	1b80      	subs	r0, r0, r6
 8007180:	2864      	cmp	r0, #100	; 0x64
 8007182:	d9f7      	bls.n	8007174 <HAL_RCC_OscConfig+0xc0>
 8007184:	e7d9      	b.n	800713a <HAL_RCC_OscConfig+0x86>
 8007186:	4b7e      	ldr	r3, [pc, #504]	; (8007380 <HAL_RCC_OscConfig+0x2cc>)
 8007188:	689a      	ldr	r2, [r3, #8]
 800718a:	f012 0f0c 	tst.w	r2, #12
 800718e:	d007      	beq.n	80071a0 <HAL_RCC_OscConfig+0xec>
 8007190:	689a      	ldr	r2, [r3, #8]
 8007192:	f002 020c 	and.w	r2, r2, #12
 8007196:	2a08      	cmp	r2, #8
 8007198:	d111      	bne.n	80071be <HAL_RCC_OscConfig+0x10a>
 800719a:	685b      	ldr	r3, [r3, #4]
 800719c:	025e      	lsls	r6, r3, #9
 800719e:	d40e      	bmi.n	80071be <HAL_RCC_OscConfig+0x10a>
 80071a0:	4b77      	ldr	r3, [pc, #476]	; (8007380 <HAL_RCC_OscConfig+0x2cc>)
 80071a2:	681a      	ldr	r2, [r3, #0]
 80071a4:	0795      	lsls	r5, r2, #30
 80071a6:	d502      	bpl.n	80071ae <HAL_RCC_OscConfig+0xfa>
 80071a8:	68e2      	ldr	r2, [r4, #12]
 80071aa:	2a01      	cmp	r2, #1
 80071ac:	d1af      	bne.n	800710e <HAL_RCC_OscConfig+0x5a>
 80071ae:	681a      	ldr	r2, [r3, #0]
 80071b0:	6921      	ldr	r1, [r4, #16]
 80071b2:	f022 02f8 	bic.w	r2, r2, #248	; 0xf8
 80071b6:	ea42 02c1 	orr.w	r2, r2, r1, lsl #3
 80071ba:	601a      	str	r2, [r3, #0]
 80071bc:	e784      	b.n	80070c8 <HAL_RCC_OscConfig+0x14>
 80071be:	68e2      	ldr	r2, [r4, #12]
 80071c0:	4b70      	ldr	r3, [pc, #448]	; (8007384 <HAL_RCC_OscConfig+0x2d0>)
 80071c2:	b1b2      	cbz	r2, 80071f2 <HAL_RCC_OscConfig+0x13e>
 80071c4:	2201      	movs	r2, #1
 80071c6:	601a      	str	r2, [r3, #0]
 80071c8:	f7ff fe14 	bl	8006df4 <HAL_GetTick>
 80071cc:	4d6c      	ldr	r5, [pc, #432]	; (8007380 <HAL_RCC_OscConfig+0x2cc>)
 80071ce:	4606      	mov	r6, r0
 80071d0:	682b      	ldr	r3, [r5, #0]
 80071d2:	0798      	lsls	r0, r3, #30
 80071d4:	d507      	bpl.n	80071e6 <HAL_RCC_OscConfig+0x132>
 80071d6:	682b      	ldr	r3, [r5, #0]
 80071d8:	6922      	ldr	r2, [r4, #16]
 80071da:	f023 03f8 	bic.w	r3, r3, #248	; 0xf8
 80071de:	ea43 03c2 	orr.w	r3, r3, r2, lsl #3
 80071e2:	602b      	str	r3, [r5, #0]
 80071e4:	e770      	b.n	80070c8 <HAL_RCC_OscConfig+0x14>
 80071e6:	f7ff fe05 	bl	8006df4 <HAL_GetTick>
 80071ea:	1b80      	subs	r0, r0, r6
 80071ec:	2802      	cmp	r0, #2
 80071ee:	d9ef      	bls.n	80071d0 <HAL_RCC_OscConfig+0x11c>
 80071f0:	e7a3      	b.n	800713a <HAL_RCC_OscConfig+0x86>
 80071f2:	601a      	str	r2, [r3, #0]
 80071f4:	f7ff fdfe 	bl	8006df4 <HAL_GetTick>
 80071f8:	4e61      	ldr	r6, [pc, #388]	; (8007380 <HAL_RCC_OscConfig+0x2cc>)
 80071fa:	4605      	mov	r5, r0
 80071fc:	6833      	ldr	r3, [r6, #0]
 80071fe:	0799      	lsls	r1, r3, #30
 8007200:	f57f af62 	bpl.w	80070c8 <HAL_RCC_OscConfig+0x14>
 8007204:	f7ff fdf6 	bl	8006df4 <HAL_GetTick>
 8007208:	1b40      	subs	r0, r0, r5
 800720a:	2802      	cmp	r0, #2
 800720c:	d9f6      	bls.n	80071fc <HAL_RCC_OscConfig+0x148>
 800720e:	e794      	b.n	800713a <HAL_RCC_OscConfig+0x86>
 8007210:	6962      	ldr	r2, [r4, #20]
 8007212:	4b5d      	ldr	r3, [pc, #372]	; (8007388 <HAL_RCC_OscConfig+0x2d4>)
 8007214:	b17a      	cbz	r2, 8007236 <HAL_RCC_OscConfig+0x182>
 8007216:	2201      	movs	r2, #1
 8007218:	601a      	str	r2, [r3, #0]
 800721a:	f7ff fdeb 	bl	8006df4 <HAL_GetTick>
 800721e:	4e58      	ldr	r6, [pc, #352]	; (8007380 <HAL_RCC_OscConfig+0x2cc>)
 8007220:	4605      	mov	r5, r0
 8007222:	6f73      	ldr	r3, [r6, #116]	; 0x74
 8007224:	079f      	lsls	r7, r3, #30
 8007226:	f53f af53 	bmi.w	80070d0 <HAL_RCC_OscConfig+0x1c>
 800722a:	f7ff fde3 	bl	8006df4 <HAL_GetTick>
 800722e:	1b40      	subs	r0, r0, r5
 8007230:	2802      	cmp	r0, #2
 8007232:	d9f6      	bls.n	8007222 <HAL_RCC_OscConfig+0x16e>
 8007234:	e781      	b.n	800713a <HAL_RCC_OscConfig+0x86>
 8007236:	601a      	str	r2, [r3, #0]
 8007238:	f7ff fddc 	bl	8006df4 <HAL_GetTick>
 800723c:	4e50      	ldr	r6, [pc, #320]	; (8007380 <HAL_RCC_OscConfig+0x2cc>)
 800723e:	4605      	mov	r5, r0
 8007240:	6f73      	ldr	r3, [r6, #116]	; 0x74
 8007242:	0798      	lsls	r0, r3, #30
 8007244:	f57f af44 	bpl.w	80070d0 <HAL_RCC_OscConfig+0x1c>
 8007248:	f7ff fdd4 	bl	8006df4 <HAL_GetTick>
 800724c:	1b40      	subs	r0, r0, r5
 800724e:	2802      	cmp	r0, #2
 8007250:	d9f6      	bls.n	8007240 <HAL_RCC_OscConfig+0x18c>
 8007252:	e772      	b.n	800713a <HAL_RCC_OscConfig+0x86>
 8007254:	4b4a      	ldr	r3, [pc, #296]	; (8007380 <HAL_RCC_OscConfig+0x2cc>)
 8007256:	6c1a      	ldr	r2, [r3, #64]	; 0x40
 8007258:	f012 5280 	ands.w	r2, r2, #268435456	; 0x10000000
 800725c:	d128      	bne.n	80072b0 <HAL_RCC_OscConfig+0x1fc>
 800725e:	9201      	str	r2, [sp, #4]
 8007260:	6c1a      	ldr	r2, [r3, #64]	; 0x40
 8007262:	f042 5280 	orr.w	r2, r2, #268435456	; 0x10000000
 8007266:	641a      	str	r2, [r3, #64]	; 0x40
 8007268:	6c1b      	ldr	r3, [r3, #64]	; 0x40
 800726a:	f003 5380 	and.w	r3, r3, #268435456	; 0x10000000
 800726e:	9301      	str	r3, [sp, #4]
 8007270:	9b01      	ldr	r3, [sp, #4]
 8007272:	2701      	movs	r7, #1
 8007274:	4d45      	ldr	r5, [pc, #276]	; (800738c <HAL_RCC_OscConfig+0x2d8>)
 8007276:	682b      	ldr	r3, [r5, #0]
 8007278:	05d9      	lsls	r1, r3, #23
 800727a:	d51b      	bpl.n	80072b4 <HAL_RCC_OscConfig+0x200>
 800727c:	68a3      	ldr	r3, [r4, #8]
 800727e:	4d40      	ldr	r5, [pc, #256]	; (8007380 <HAL_RCC_OscConfig+0x2cc>)
 8007280:	2b01      	cmp	r3, #1
 8007282:	d127      	bne.n	80072d4 <HAL_RCC_OscConfig+0x220>
 8007284:	6f2b      	ldr	r3, [r5, #112]	; 0x70
 8007286:	f043 0301 	orr.w	r3, r3, #1
 800728a:	672b      	str	r3, [r5, #112]	; 0x70
 800728c:	f7ff fdb2 	bl	8006df4 <HAL_GetTick>
 8007290:	4e3b      	ldr	r6, [pc, #236]	; (8007380 <HAL_RCC_OscConfig+0x2cc>)
 8007292:	4605      	mov	r5, r0
 8007294:	f241 3888 	movw	r8, #5000	; 0x1388
 8007298:	6f33      	ldr	r3, [r6, #112]	; 0x70
 800729a:	079b      	lsls	r3, r3, #30
 800729c:	d539      	bpl.n	8007312 <HAL_RCC_OscConfig+0x25e>
 800729e:	2f00      	cmp	r7, #0
 80072a0:	f43f af1a 	beq.w	80070d8 <HAL_RCC_OscConfig+0x24>
 80072a4:	4a36      	ldr	r2, [pc, #216]	; (8007380 <HAL_RCC_OscConfig+0x2cc>)
 80072a6:	6c13      	ldr	r3, [r2, #64]	; 0x40
 80072a8:	f023 5380 	bic.w	r3, r3, #268435456	; 0x10000000
 80072ac:	6413      	str	r3, [r2, #64]	; 0x40
 80072ae:	e713      	b.n	80070d8 <HAL_RCC_OscConfig+0x24>
 80072b0:	2700      	movs	r7, #0
 80072b2:	e7df      	b.n	8007274 <HAL_RCC_OscConfig+0x1c0>
 80072b4:	682b      	ldr	r3, [r5, #0]
 80072b6:	f443 7380 	orr.w	r3, r3, #256	; 0x100
 80072ba:	602b      	str	r3, [r5, #0]
 80072bc:	f7ff fd9a 	bl	8006df4 <HAL_GetTick>
 80072c0:	4606      	mov	r6, r0
 80072c2:	682b      	ldr	r3, [r5, #0]
 80072c4:	05da      	lsls	r2, r3, #23
 80072c6:	d4d9      	bmi.n	800727c <HAL_RCC_OscConfig+0x1c8>
 80072c8:	f7ff fd94 	bl	8006df4 <HAL_GetTick>
 80072cc:	1b80      	subs	r0, r0, r6
 80072ce:	2802      	cmp	r0, #2
 80072d0:	d9f7      	bls.n	80072c2 <HAL_RCC_OscConfig+0x20e>
 80072d2:	e732      	b.n	800713a <HAL_RCC_OscConfig+0x86>
 80072d4:	2b05      	cmp	r3, #5
 80072d6:	d104      	bne.n	80072e2 <HAL_RCC_OscConfig+0x22e>
 80072d8:	6f2b      	ldr	r3, [r5, #112]	; 0x70
 80072da:	f043 0304 	orr.w	r3, r3, #4
 80072de:	672b      	str	r3, [r5, #112]	; 0x70
 80072e0:	e7d0      	b.n	8007284 <HAL_RCC_OscConfig+0x1d0>
 80072e2:	6f2a      	ldr	r2, [r5, #112]	; 0x70
 80072e4:	f022 0201 	bic.w	r2, r2, #1
 80072e8:	672a      	str	r2, [r5, #112]	; 0x70
 80072ea:	6f2a      	ldr	r2, [r5, #112]	; 0x70
 80072ec:	f022 0204 	bic.w	r2, r2, #4
 80072f0:	672a      	str	r2, [r5, #112]	; 0x70
 80072f2:	2b00      	cmp	r3, #0
 80072f4:	d1ca      	bne.n	800728c <HAL_RCC_OscConfig+0x1d8>
 80072f6:	f7ff fd7d 	bl	8006df4 <HAL_GetTick>
 80072fa:	f241 3888 	movw	r8, #5000	; 0x1388
 80072fe:	4606      	mov	r6, r0
 8007300:	6f2b      	ldr	r3, [r5, #112]	; 0x70
 8007302:	0798      	lsls	r0, r3, #30
 8007304:	d5cb      	bpl.n	800729e <HAL_RCC_OscConfig+0x1ea>
 8007306:	f7ff fd75 	bl	8006df4 <HAL_GetTick>
 800730a:	1b80      	subs	r0, r0, r6
 800730c:	4540      	cmp	r0, r8
 800730e:	d9f7      	bls.n	8007300 <HAL_RCC_OscConfig+0x24c>
 8007310:	e713      	b.n	800713a <HAL_RCC_OscConfig+0x86>
 8007312:	f7ff fd6f 	bl	8006df4 <HAL_GetTick>
 8007316:	1b40      	subs	r0, r0, r5
 8007318:	4540      	cmp	r0, r8
 800731a:	d9bd      	bls.n	8007298 <HAL_RCC_OscConfig+0x1e4>
 800731c:	e70d      	b.n	800713a <HAL_RCC_OscConfig+0x86>
 800731e:	4d18      	ldr	r5, [pc, #96]	; (8007380 <HAL_RCC_OscConfig+0x2cc>)
 8007320:	68ab      	ldr	r3, [r5, #8]
 8007322:	f003 030c 	and.w	r3, r3, #12
 8007326:	2b08      	cmp	r3, #8
 8007328:	d047      	beq.n	80073ba <HAL_RCC_OscConfig+0x306>
 800732a:	4e19      	ldr	r6, [pc, #100]	; (8007390 <HAL_RCC_OscConfig+0x2dc>)
 800732c:	2300      	movs	r3, #0
 800732e:	2802      	cmp	r0, #2
 8007330:	6033      	str	r3, [r6, #0]
 8007332:	d135      	bne.n	80073a0 <HAL_RCC_OscConfig+0x2ec>
 8007334:	f7ff fd5e 	bl	8006df4 <HAL_GetTick>
 8007338:	4607      	mov	r7, r0
 800733a:	682b      	ldr	r3, [r5, #0]
 800733c:	0199      	lsls	r1, r3, #6
 800733e:	d429      	bmi.n	8007394 <HAL_RCC_OscConfig+0x2e0>
 8007340:	e9d4 3207 	ldrd	r3, r2, [r4, #28]
 8007344:	4313      	orrs	r3, r2
 8007346:	6a62      	ldr	r2, [r4, #36]	; 0x24
 8007348:	ea43 1382 	orr.w	r3, r3, r2, lsl #6
 800734c:	6ae2      	ldr	r2, [r4, #44]	; 0x2c
 800734e:	ea43 6302 	orr.w	r3, r3, r2, lsl #24
 8007352:	6aa2      	ldr	r2, [r4, #40]	; 0x28
 8007354:	0852      	lsrs	r2, r2, #1
 8007356:	3a01      	subs	r2, #1
 8007358:	ea43 4302 	orr.w	r3, r3, r2, lsl #16
 800735c:	606b      	str	r3, [r5, #4]
 800735e:	2301      	movs	r3, #1
 8007360:	6033      	str	r3, [r6, #0]
 8007362:	f7ff fd47 	bl	8006df4 <HAL_GetTick>
 8007366:	4d06      	ldr	r5, [pc, #24]	; (8007380 <HAL_RCC_OscConfig+0x2cc>)
 8007368:	4604      	mov	r4, r0
 800736a:	682b      	ldr	r3, [r5, #0]
 800736c:	019a      	lsls	r2, r3, #6
 800736e:	f53f aeb7 	bmi.w	80070e0 <HAL_RCC_OscConfig+0x2c>
 8007372:	f7ff fd3f 	bl	8006df4 <HAL_GetTick>
 8007376:	1b00      	subs	r0, r0, r4
 8007378:	2802      	cmp	r0, #2
 800737a:	d9f6      	bls.n	800736a <HAL_RCC_OscConfig+0x2b6>
 800737c:	e6dd      	b.n	800713a <HAL_RCC_OscConfig+0x86>
 800737e:	bf00      	nop
 8007380:	40023800 	.word	0x40023800
 8007384:	42470000 	.word	0x42470000
 8007388:	42470e80 	.word	0x42470e80
 800738c:	40007000 	.word	0x40007000
 8007390:	42470060 	.word	0x42470060
 8007394:	f7ff fd2e 	bl	8006df4 <HAL_GetTick>
 8007398:	1bc0      	subs	r0, r0, r7
 800739a:	2802      	cmp	r0, #2
 800739c:	d9cd      	bls.n	800733a <HAL_RCC_OscConfig+0x286>
 800739e:	e6cc      	b.n	800713a <HAL_RCC_OscConfig+0x86>
 80073a0:	f7ff fd28 	bl	8006df4 <HAL_GetTick>
 80073a4:	4604      	mov	r4, r0
 80073a6:	682b      	ldr	r3, [r5, #0]
 80073a8:	019b      	lsls	r3, r3, #6
 80073aa:	f57f ae99 	bpl.w	80070e0 <HAL_RCC_OscConfig+0x2c>
 80073ae:	f7ff fd21 	bl	8006df4 <HAL_GetTick>
 80073b2:	1b00      	subs	r0, r0, r4
 80073b4:	2802      	cmp	r0, #2
 80073b6:	d9f6      	bls.n	80073a6 <HAL_RCC_OscConfig+0x2f2>
 80073b8:	e6bf      	b.n	800713a <HAL_RCC_OscConfig+0x86>
 80073ba:	2801      	cmp	r0, #1
 80073bc:	f43f aebe 	beq.w	800713c <HAL_RCC_OscConfig+0x88>
 80073c0:	686b      	ldr	r3, [r5, #4]
 80073c2:	69e2      	ldr	r2, [r4, #28]
 80073c4:	f403 0180 	and.w	r1, r3, #4194304	; 0x400000
 80073c8:	4291      	cmp	r1, r2
 80073ca:	f47f aea0 	bne.w	800710e <HAL_RCC_OscConfig+0x5a>
 80073ce:	6a21      	ldr	r1, [r4, #32]
 80073d0:	f003 023f 	and.w	r2, r3, #63	; 0x3f
 80073d4:	428a      	cmp	r2, r1
 80073d6:	f47f ae9a 	bne.w	800710e <HAL_RCC_OscConfig+0x5a>
 80073da:	6a61      	ldr	r1, [r4, #36]	; 0x24
 80073dc:	f647 72c0 	movw	r2, #32704	; 0x7fc0
 80073e0:	401a      	ands	r2, r3
 80073e2:	ebb2 1f81 	cmp.w	r2, r1, lsl #6
 80073e6:	f47f ae92 	bne.w	800710e <HAL_RCC_OscConfig+0x5a>
 80073ea:	6aa2      	ldr	r2, [r4, #40]	; 0x28
 80073ec:	0852      	lsrs	r2, r2, #1
 80073ee:	f403 3140 	and.w	r1, r3, #196608	; 0x30000
 80073f2:	3a01      	subs	r2, #1
 80073f4:	ebb1 4f02 	cmp.w	r1, r2, lsl #16
 80073f8:	f47f ae89 	bne.w	800710e <HAL_RCC_OscConfig+0x5a>
 80073fc:	6ae2      	ldr	r2, [r4, #44]	; 0x2c
 80073fe:	f003 6370 	and.w	r3, r3, #251658240	; 0xf000000
 8007402:	ebb3 6f02 	cmp.w	r3, r2, lsl #24
 8007406:	f43f ae6b 	beq.w	80070e0 <HAL_RCC_OscConfig+0x2c>
 800740a:	e680      	b.n	800710e <HAL_RCC_OscConfig+0x5a>

0800740c <HAL_RCC_GetSysClockFreq>:
 800740c:	4913      	ldr	r1, [pc, #76]	; (800745c <HAL_RCC_GetSysClockFreq+0x50>)
 800740e:	b508      	push	{r3, lr}
 8007410:	688b      	ldr	r3, [r1, #8]
 8007412:	f003 030c 	and.w	r3, r3, #12
 8007416:	2b04      	cmp	r3, #4
 8007418:	d01c      	beq.n	8007454 <HAL_RCC_GetSysClockFreq+0x48>
 800741a:	2b08      	cmp	r3, #8
 800741c:	d11c      	bne.n	8007458 <HAL_RCC_GetSysClockFreq+0x4c>
 800741e:	684a      	ldr	r2, [r1, #4]
 8007420:	684b      	ldr	r3, [r1, #4]
 8007422:	6849      	ldr	r1, [r1, #4]
 8007424:	f413 0380 	ands.w	r3, r3, #4194304	; 0x400000
 8007428:	bf14      	ite	ne
 800742a:	480d      	ldrne	r0, [pc, #52]	; (8007460 <HAL_RCC_GetSysClockFreq+0x54>)
 800742c:	480d      	ldreq	r0, [pc, #52]	; (8007464 <HAL_RCC_GetSysClockFreq+0x58>)
 800742e:	f3c1 1188 	ubfx	r1, r1, #6, #9
 8007432:	bf18      	it	ne
 8007434:	2300      	movne	r3, #0
 8007436:	f002 023f 	and.w	r2, r2, #63	; 0x3f
 800743a:	fba1 0100 	umull	r0, r1, r1, r0
 800743e:	f7f8 ff1f 	bl	8000280 <__aeabi_uldivmod>
 8007442:	4b06      	ldr	r3, [pc, #24]	; (800745c <HAL_RCC_GetSysClockFreq+0x50>)
 8007444:	685b      	ldr	r3, [r3, #4]
 8007446:	f3c3 4301 	ubfx	r3, r3, #16, #2
 800744a:	3301      	adds	r3, #1
 800744c:	005b      	lsls	r3, r3, #1
 800744e:	fbb0 f0f3 	udiv	r0, r0, r3
 8007452:	bd08      	pop	{r3, pc}
 8007454:	4802      	ldr	r0, [pc, #8]	; (8007460 <HAL_RCC_GetSysClockFreq+0x54>)
 8007456:	e7fc      	b.n	8007452 <HAL_RCC_GetSysClockFreq+0x46>
 8007458:	4802      	ldr	r0, [pc, #8]	; (8007464 <HAL_RCC_GetSysClockFreq+0x58>)
 800745a:	e7fa      	b.n	8007452 <HAL_RCC_GetSysClockFreq+0x46>
 800745c:	40023800 	.word	0x40023800
 8007460:	007a1200 	.word	0x007a1200
 8007464:	00f42400 	.word	0x00f42400

08007468 <HAL_RCC_ClockConfig>:
 8007468:	e92d 41f0 	stmdb	sp!, {r4, r5, r6, r7, r8, lr}
 800746c:	460d      	mov	r5, r1
 800746e:	4604      	mov	r4, r0
 8007470:	b910      	cbnz	r0, 8007478 <HAL_RCC_ClockConfig+0x10>
 8007472:	2001      	movs	r0, #1
 8007474:	e8bd 81f0 	ldmia.w	sp!, {r4, r5, r6, r7, r8, pc}
 8007478:	4b44      	ldr	r3, [pc, #272]	; (800758c <HAL_RCC_ClockConfig+0x124>)
 800747a:	681a      	ldr	r2, [r3, #0]
 800747c:	f002 0207 	and.w	r2, r2, #7
 8007480:	428a      	cmp	r2, r1
 8007482:	d328      	bcc.n	80074d6 <HAL_RCC_ClockConfig+0x6e>
 8007484:	6822      	ldr	r2, [r4, #0]
 8007486:	0797      	lsls	r7, r2, #30
 8007488:	d42d      	bmi.n	80074e6 <HAL_RCC_ClockConfig+0x7e>
 800748a:	07d0      	lsls	r0, r2, #31
 800748c:	d441      	bmi.n	8007512 <HAL_RCC_ClockConfig+0xaa>
 800748e:	4b3f      	ldr	r3, [pc, #252]	; (800758c <HAL_RCC_ClockConfig+0x124>)
 8007490:	681a      	ldr	r2, [r3, #0]
 8007492:	f002 0207 	and.w	r2, r2, #7
 8007496:	42aa      	cmp	r2, r5
 8007498:	d866      	bhi.n	8007568 <HAL_RCC_ClockConfig+0x100>
 800749a:	6822      	ldr	r2, [r4, #0]
 800749c:	0751      	lsls	r1, r2, #29
 800749e:	d46c      	bmi.n	800757a <HAL_RCC_ClockConfig+0x112>
 80074a0:	0713      	lsls	r3, r2, #28
 80074a2:	d507      	bpl.n	80074b4 <HAL_RCC_ClockConfig+0x4c>
 80074a4:	4a3a      	ldr	r2, [pc, #232]	; (8007590 <HAL_RCC_ClockConfig+0x128>)
 80074a6:	6921      	ldr	r1, [r4, #16]
 80074a8:	6893      	ldr	r3, [r2, #8]
 80074aa:	f423 4360 	bic.w	r3, r3, #57344	; 0xe000
 80074ae:	ea43 03c1 	orr.w	r3, r3, r1, lsl #3
 80074b2:	6093      	str	r3, [r2, #8]
 80074b4:	f7ff ffaa 	bl	800740c <HAL_RCC_GetSysClockFreq>
 80074b8:	4b35      	ldr	r3, [pc, #212]	; (8007590 <HAL_RCC_ClockConfig+0x128>)
 80074ba:	4a36      	ldr	r2, [pc, #216]	; (8007594 <HAL_RCC_ClockConfig+0x12c>)
 80074bc:	689b      	ldr	r3, [r3, #8]
 80074be:	f3c3 1303 	ubfx	r3, r3, #4, #4
 80074c2:	5cd3      	ldrb	r3, [r2, r3]
 80074c4:	40d8      	lsrs	r0, r3
 80074c6:	4b34      	ldr	r3, [pc, #208]	; (8007598 <HAL_RCC_ClockConfig+0x130>)
 80074c8:	6018      	str	r0, [r3, #0]
 80074ca:	4b34      	ldr	r3, [pc, #208]	; (800759c <HAL_RCC_ClockConfig+0x134>)
 80074cc:	6818      	ldr	r0, [r3, #0]
 80074ce:	f7f9 fa73 	bl	80009b8 <HAL_InitTick>
 80074d2:	2000      	movs	r0, #0
 80074d4:	e7ce      	b.n	8007474 <HAL_RCC_ClockConfig+0xc>
 80074d6:	b2ca      	uxtb	r2, r1
 80074d8:	701a      	strb	r2, [r3, #0]
 80074da:	681b      	ldr	r3, [r3, #0]
 80074dc:	f003 0307 	and.w	r3, r3, #7
 80074e0:	428b      	cmp	r3, r1
 80074e2:	d1c6      	bne.n	8007472 <HAL_RCC_ClockConfig+0xa>
 80074e4:	e7ce      	b.n	8007484 <HAL_RCC_ClockConfig+0x1c>
 80074e6:	4b2a      	ldr	r3, [pc, #168]	; (8007590 <HAL_RCC_ClockConfig+0x128>)
 80074e8:	f012 0f04 	tst.w	r2, #4
 80074ec:	bf1e      	ittt	ne
 80074ee:	6899      	ldrne	r1, [r3, #8]
 80074f0:	f441 51e0 	orrne.w	r1, r1, #7168	; 0x1c00
 80074f4:	6099      	strne	r1, [r3, #8]
 80074f6:	0716      	lsls	r6, r2, #28
 80074f8:	bf42      	ittt	mi
 80074fa:	6899      	ldrmi	r1, [r3, #8]
 80074fc:	f441 4160 	orrmi.w	r1, r1, #57344	; 0xe000
 8007500:	6099      	strmi	r1, [r3, #8]
 8007502:	4923      	ldr	r1, [pc, #140]	; (8007590 <HAL_RCC_ClockConfig+0x128>)
 8007504:	68a0      	ldr	r0, [r4, #8]
 8007506:	688b      	ldr	r3, [r1, #8]
 8007508:	f023 03f0 	bic.w	r3, r3, #240	; 0xf0
 800750c:	4303      	orrs	r3, r0
 800750e:	608b      	str	r3, [r1, #8]
 8007510:	e7bb      	b.n	800748a <HAL_RCC_ClockConfig+0x22>
 8007512:	6862      	ldr	r2, [r4, #4]
 8007514:	4b1e      	ldr	r3, [pc, #120]	; (8007590 <HAL_RCC_ClockConfig+0x128>)
 8007516:	2a01      	cmp	r2, #1
 8007518:	d11c      	bne.n	8007554 <HAL_RCC_ClockConfig+0xec>
 800751a:	681b      	ldr	r3, [r3, #0]
 800751c:	f413 3f00 	tst.w	r3, #131072	; 0x20000
 8007520:	d0a7      	beq.n	8007472 <HAL_RCC_ClockConfig+0xa>
 8007522:	4e1b      	ldr	r6, [pc, #108]	; (8007590 <HAL_RCC_ClockConfig+0x128>)
 8007524:	68b3      	ldr	r3, [r6, #8]
 8007526:	f023 0303 	bic.w	r3, r3, #3
 800752a:	4313      	orrs	r3, r2
 800752c:	60b3      	str	r3, [r6, #8]
 800752e:	f7ff fc61 	bl	8006df4 <HAL_GetTick>
 8007532:	f241 3888 	movw	r8, #5000	; 0x1388
 8007536:	4607      	mov	r7, r0
 8007538:	68b3      	ldr	r3, [r6, #8]
 800753a:	6862      	ldr	r2, [r4, #4]
 800753c:	f003 030c 	and.w	r3, r3, #12
 8007540:	ebb3 0f82 	cmp.w	r3, r2, lsl #2
 8007544:	d0a3      	beq.n	800748e <HAL_RCC_ClockConfig+0x26>
 8007546:	f7ff fc55 	bl	8006df4 <HAL_GetTick>
 800754a:	1bc0      	subs	r0, r0, r7
 800754c:	4540      	cmp	r0, r8
 800754e:	d9f3      	bls.n	8007538 <HAL_RCC_ClockConfig+0xd0>
 8007550:	2003      	movs	r0, #3
 8007552:	e78f      	b.n	8007474 <HAL_RCC_ClockConfig+0xc>
 8007554:	1e91      	subs	r1, r2, #2
 8007556:	2901      	cmp	r1, #1
 8007558:	681b      	ldr	r3, [r3, #0]
 800755a:	d802      	bhi.n	8007562 <HAL_RCC_ClockConfig+0xfa>
 800755c:	f013 7f00 	tst.w	r3, #33554432	; 0x2000000
 8007560:	e7de      	b.n	8007520 <HAL_RCC_ClockConfig+0xb8>
 8007562:	f013 0f02 	tst.w	r3, #2
 8007566:	e7db      	b.n	8007520 <HAL_RCC_ClockConfig+0xb8>
 8007568:	b2ea      	uxtb	r2, r5
 800756a:	701a      	strb	r2, [r3, #0]
 800756c:	681b      	ldr	r3, [r3, #0]
 800756e:	f003 0307 	and.w	r3, r3, #7
 8007572:	42ab      	cmp	r3, r5
 8007574:	f47f af7d 	bne.w	8007472 <HAL_RCC_ClockConfig+0xa>
 8007578:	e78f      	b.n	800749a <HAL_RCC_ClockConfig+0x32>
 800757a:	4905      	ldr	r1, [pc, #20]	; (8007590 <HAL_RCC_ClockConfig+0x128>)
 800757c:	68e0      	ldr	r0, [r4, #12]
 800757e:	688b      	ldr	r3, [r1, #8]
 8007580:	f423 53e0 	bic.w	r3, r3, #7168	; 0x1c00
 8007584:	4303      	orrs	r3, r0
 8007586:	608b      	str	r3, [r1, #8]
 8007588:	e78a      	b.n	80074a0 <HAL_RCC_ClockConfig+0x38>
 800758a:	bf00      	nop
 800758c:	40023c00 	.word	0x40023c00
 8007590:	40023800 	.word	0x40023800
 8007594:	0800a81e 	.word	0x0800a81e
 8007598:	20000000 	.word	0x20000000
 800759c:	20000008 	.word	0x20000008

080075a0 <HAL_RCC_GetPCLK2Freq>:
 80075a0:	4b04      	ldr	r3, [pc, #16]	; (80075b4 <HAL_RCC_GetPCLK2Freq+0x14>)
 80075a2:	4a05      	ldr	r2, [pc, #20]	; (80075b8 <HAL_RCC_GetPCLK2Freq+0x18>)
 80075a4:	689b      	ldr	r3, [r3, #8]
 80075a6:	f3c3 3342 	ubfx	r3, r3, #13, #3
 80075aa:	5cd3      	ldrb	r3, [r2, r3]
 80075ac:	4a03      	ldr	r2, [pc, #12]	; (80075bc <HAL_RCC_GetPCLK2Freq+0x1c>)
 80075ae:	6810      	ldr	r0, [r2, #0]
 80075b0:	40d8      	lsrs	r0, r3
 80075b2:	4770      	bx	lr
 80075b4:	40023800 	.word	0x40023800
 80075b8:	0800a82e 	.word	0x0800a82e
 80075bc:	20000000 	.word	0x20000000

080075c0 <HAL_RCC_GetClockConfig>:
 80075c0:	230f      	movs	r3, #15
 80075c2:	6003      	str	r3, [r0, #0]
 80075c4:	4b0b      	ldr	r3, [pc, #44]	; (80075f4 <HAL_RCC_GetClockConfig+0x34>)
 80075c6:	689a      	ldr	r2, [r3, #8]
 80075c8:	f002 0203 	and.w	r2, r2, #3
 80075cc:	6042      	str	r2, [r0, #4]
 80075ce:	689a      	ldr	r2, [r3, #8]
 80075d0:	f002 02f0 	and.w	r2, r2, #240	; 0xf0
 80075d4:	6082      	str	r2, [r0, #8]
 80075d6:	689a      	ldr	r2, [r3, #8]
 80075d8:	f402 52e0 	and.w	r2, r2, #7168	; 0x1c00
 80075dc:	60c2      	str	r2, [r0, #12]
 80075de:	689b      	ldr	r3, [r3, #8]
 80075e0:	08db      	lsrs	r3, r3, #3
 80075e2:	f403 53e0 	and.w	r3, r3, #7168	; 0x1c00
 80075e6:	6103      	str	r3, [r0, #16]
 80075e8:	4b03      	ldr	r3, [pc, #12]	; (80075f8 <HAL_RCC_GetClockConfig+0x38>)
 80075ea:	681b      	ldr	r3, [r3, #0]
 80075ec:	f003 0307 	and.w	r3, r3, #7
 80075f0:	600b      	str	r3, [r1, #0]
 80075f2:	4770      	bx	lr
 80075f4:	40023800 	.word	0x40023800
 80075f8:	40023c00 	.word	0x40023c00

080075fc <SPI_WaitFlagStateUntilTimeout.constprop.0>:
 80075fc:	e92d 41f3 	stmdb	sp!, {r0, r1, r4, r5, r6, r7, r8, lr}
 8007600:	461d      	mov	r5, r3
 8007602:	4617      	mov	r7, r2
 8007604:	4688      	mov	r8, r1
 8007606:	4606      	mov	r6, r0
 8007608:	f7ff fbf4 	bl	8006df4 <HAL_GetTick>
 800760c:	443d      	add	r5, r7
 800760e:	1a2c      	subs	r4, r5, r0
 8007610:	f7ff fbf0 	bl	8006df4 <HAL_GetTick>
 8007614:	4b22      	ldr	r3, [pc, #136]	; (80076a0 <SPI_WaitFlagStateUntilTimeout.constprop.0+0xa4>)
 8007616:	681b      	ldr	r3, [r3, #0]
 8007618:	f3c3 33cb 	ubfx	r3, r3, #15, #12
 800761c:	4605      	mov	r5, r0
 800761e:	4363      	muls	r3, r4
 8007620:	6832      	ldr	r2, [r6, #0]
 8007622:	9301      	str	r3, [sp, #4]
 8007624:	6893      	ldr	r3, [r2, #8]
 8007626:	ea38 0303 	bics.w	r3, r8, r3
 800762a:	d001      	beq.n	8007630 <SPI_WaitFlagStateUntilTimeout.constprop.0+0x34>
 800762c:	2000      	movs	r0, #0
 800762e:	e02d      	b.n	800768c <SPI_WaitFlagStateUntilTimeout.constprop.0+0x90>
 8007630:	1c7b      	adds	r3, r7, #1
 8007632:	d0f7      	beq.n	8007624 <SPI_WaitFlagStateUntilTimeout.constprop.0+0x28>
 8007634:	f7ff fbde 	bl	8006df4 <HAL_GetTick>
 8007638:	1b40      	subs	r0, r0, r5
 800763a:	42a0      	cmp	r0, r4
 800763c:	d329      	bcc.n	8007692 <SPI_WaitFlagStateUntilTimeout.constprop.0+0x96>
 800763e:	6833      	ldr	r3, [r6, #0]
 8007640:	685a      	ldr	r2, [r3, #4]
 8007642:	f022 02e0 	bic.w	r2, r2, #224	; 0xe0
 8007646:	605a      	str	r2, [r3, #4]
 8007648:	6872      	ldr	r2, [r6, #4]
 800764a:	f5b2 7f82 	cmp.w	r2, #260	; 0x104
 800764e:	d10a      	bne.n	8007666 <SPI_WaitFlagStateUntilTimeout.constprop.0+0x6a>
 8007650:	68b2      	ldr	r2, [r6, #8]
 8007652:	f5b2 4f00 	cmp.w	r2, #32768	; 0x8000
 8007656:	d002      	beq.n	800765e <SPI_WaitFlagStateUntilTimeout.constprop.0+0x62>
 8007658:	f5b2 6f80 	cmp.w	r2, #1024	; 0x400
 800765c:	d103      	bne.n	8007666 <SPI_WaitFlagStateUntilTimeout.constprop.0+0x6a>
 800765e:	681a      	ldr	r2, [r3, #0]
 8007660:	f022 0240 	bic.w	r2, r2, #64	; 0x40
 8007664:	601a      	str	r2, [r3, #0]
 8007666:	6ab2      	ldr	r2, [r6, #40]	; 0x28
 8007668:	f5b2 5f00 	cmp.w	r2, #8192	; 0x2000
 800766c:	d107      	bne.n	800767e <SPI_WaitFlagStateUntilTimeout.constprop.0+0x82>
 800766e:	681a      	ldr	r2, [r3, #0]
 8007670:	f422 5200 	bic.w	r2, r2, #8192	; 0x2000
 8007674:	601a      	str	r2, [r3, #0]
 8007676:	681a      	ldr	r2, [r3, #0]
 8007678:	f442 5200 	orr.w	r2, r2, #8192	; 0x2000
 800767c:	601a      	str	r2, [r3, #0]
 800767e:	2301      	movs	r3, #1
 8007680:	f886 3051 	strb.w	r3, [r6, #81]	; 0x51
 8007684:	2300      	movs	r3, #0
 8007686:	f886 3050 	strb.w	r3, [r6, #80]	; 0x50
 800768a:	2003      	movs	r0, #3
 800768c:	b002      	add	sp, #8
 800768e:	e8bd 81f0 	ldmia.w	sp!, {r4, r5, r6, r7, r8, pc}
 8007692:	9b01      	ldr	r3, [sp, #4]
 8007694:	2b00      	cmp	r3, #0
 8007696:	9b01      	ldr	r3, [sp, #4]
 8007698:	bf08      	it	eq
 800769a:	2400      	moveq	r4, #0
 800769c:	3b01      	subs	r3, #1
 800769e:	e7bf      	b.n	8007620 <SPI_WaitFlagStateUntilTimeout.constprop.0+0x24>
 80076a0:	20000000 	.word	0x20000000

080076a4 <SPI_EndRxTxTransaction>:
 80076a4:	b537      	push	{r0, r1, r2, r4, r5, lr}
 80076a6:	4613      	mov	r3, r2
 80076a8:	4a12      	ldr	r2, [pc, #72]	; (80076f4 <SPI_EndRxTxTransaction+0x50>)
 80076aa:	4d13      	ldr	r5, [pc, #76]	; (80076f8 <SPI_EndRxTxTransaction+0x54>)
 80076ac:	6812      	ldr	r2, [r2, #0]
 80076ae:	fbb2 f5f5 	udiv	r5, r2, r5
 80076b2:	f44f 727a 	mov.w	r2, #1000	; 0x3e8
 80076b6:	436a      	muls	r2, r5
 80076b8:	9201      	str	r2, [sp, #4]
 80076ba:	6842      	ldr	r2, [r0, #4]
 80076bc:	f5b2 7f82 	cmp.w	r2, #260	; 0x104
 80076c0:	4604      	mov	r4, r0
 80076c2:	d10b      	bne.n	80076dc <SPI_EndRxTxTransaction+0x38>
 80076c4:	460a      	mov	r2, r1
 80076c6:	2180      	movs	r1, #128	; 0x80
 80076c8:	f7ff ff98 	bl	80075fc <SPI_WaitFlagStateUntilTimeout.constprop.0>
 80076cc:	b178      	cbz	r0, 80076ee <SPI_EndRxTxTransaction+0x4a>
 80076ce:	6d63      	ldr	r3, [r4, #84]	; 0x54
 80076d0:	f043 0320 	orr.w	r3, r3, #32
 80076d4:	6563      	str	r3, [r4, #84]	; 0x54
 80076d6:	2003      	movs	r0, #3
 80076d8:	b003      	add	sp, #12
 80076da:	bd30      	pop	{r4, r5, pc}
 80076dc:	9b01      	ldr	r3, [sp, #4]
 80076de:	b133      	cbz	r3, 80076ee <SPI_EndRxTxTransaction+0x4a>
 80076e0:	9b01      	ldr	r3, [sp, #4]
 80076e2:	3b01      	subs	r3, #1
 80076e4:	9301      	str	r3, [sp, #4]
 80076e6:	6823      	ldr	r3, [r4, #0]
 80076e8:	689b      	ldr	r3, [r3, #8]
 80076ea:	061b      	lsls	r3, r3, #24
 80076ec:	d4f6      	bmi.n	80076dc <SPI_EndRxTxTransaction+0x38>
 80076ee:	2000      	movs	r0, #0
 80076f0:	e7f2      	b.n	80076d8 <SPI_EndRxTxTransaction+0x34>
 80076f2:	bf00      	nop
 80076f4:	20000000 	.word	0x20000000
 80076f8:	016e3600 	.word	0x016e3600

080076fc <HAL_SPI_Init>:
 80076fc:	b510      	push	{r4, lr}
 80076fe:	4604      	mov	r4, r0
 8007700:	2800      	cmp	r0, #0
 8007702:	d055      	beq.n	80077b0 <HAL_SPI_Init+0xb4>
 8007704:	6a43      	ldr	r3, [r0, #36]	; 0x24
 8007706:	2b00      	cmp	r3, #0
 8007708:	d14e      	bne.n	80077a8 <HAL_SPI_Init+0xac>
 800770a:	6842      	ldr	r2, [r0, #4]
 800770c:	f5b2 7f82 	cmp.w	r2, #260	; 0x104
 8007710:	d000      	beq.n	8007714 <HAL_SPI_Init+0x18>
 8007712:	61c3      	str	r3, [r0, #28]
 8007714:	2300      	movs	r3, #0
 8007716:	62a3      	str	r3, [r4, #40]	; 0x28
 8007718:	f894 3051 	ldrb.w	r3, [r4, #81]	; 0x51
 800771c:	f003 02ff 	and.w	r2, r3, #255	; 0xff
 8007720:	b923      	cbnz	r3, 800772c <HAL_SPI_Init+0x30>
 8007722:	f884 2050 	strb.w	r2, [r4, #80]	; 0x50
 8007726:	4620      	mov	r0, r4
 8007728:	f7f9 f8d0 	bl	80008cc <HAL_SPI_MspInit>
 800772c:	6821      	ldr	r1, [r4, #0]
 800772e:	68a0      	ldr	r0, [r4, #8]
 8007730:	69a2      	ldr	r2, [r4, #24]
 8007732:	2302      	movs	r3, #2
 8007734:	f884 3051 	strb.w	r3, [r4, #81]	; 0x51
 8007738:	680b      	ldr	r3, [r1, #0]
 800773a:	f023 0340 	bic.w	r3, r3, #64	; 0x40
 800773e:	600b      	str	r3, [r1, #0]
 8007740:	6863      	ldr	r3, [r4, #4]
 8007742:	f400 4004 	and.w	r0, r0, #33792	; 0x8400
 8007746:	f403 7382 	and.w	r3, r3, #260	; 0x104
 800774a:	4303      	orrs	r3, r0
 800774c:	68e0      	ldr	r0, [r4, #12]
 800774e:	f400 6000 	and.w	r0, r0, #2048	; 0x800
 8007752:	4303      	orrs	r3, r0
 8007754:	6920      	ldr	r0, [r4, #16]
 8007756:	f000 0002 	and.w	r0, r0, #2
 800775a:	4303      	orrs	r3, r0
 800775c:	6960      	ldr	r0, [r4, #20]
 800775e:	f000 0001 	and.w	r0, r0, #1
 8007762:	4303      	orrs	r3, r0
 8007764:	f402 7000 	and.w	r0, r2, #512	; 0x200
 8007768:	4303      	orrs	r3, r0
 800776a:	69e0      	ldr	r0, [r4, #28]
 800776c:	f000 0038 	and.w	r0, r0, #56	; 0x38
 8007770:	4303      	orrs	r3, r0
 8007772:	6a20      	ldr	r0, [r4, #32]
 8007774:	f000 0080 	and.w	r0, r0, #128	; 0x80
 8007778:	4303      	orrs	r3, r0
 800777a:	6aa0      	ldr	r0, [r4, #40]	; 0x28
 800777c:	f400 5000 	and.w	r0, r0, #8192	; 0x2000
 8007780:	4303      	orrs	r3, r0
 8007782:	600b      	str	r3, [r1, #0]
 8007784:	6a63      	ldr	r3, [r4, #36]	; 0x24
 8007786:	0c12      	lsrs	r2, r2, #16
 8007788:	f003 0310 	and.w	r3, r3, #16
 800778c:	f002 0204 	and.w	r2, r2, #4
 8007790:	431a      	orrs	r2, r3
 8007792:	604a      	str	r2, [r1, #4]
 8007794:	69cb      	ldr	r3, [r1, #28]
 8007796:	f423 6300 	bic.w	r3, r3, #2048	; 0x800
 800779a:	61cb      	str	r3, [r1, #28]
 800779c:	2000      	movs	r0, #0
 800779e:	2301      	movs	r3, #1
 80077a0:	6560      	str	r0, [r4, #84]	; 0x54
 80077a2:	f884 3051 	strb.w	r3, [r4, #81]	; 0x51
 80077a6:	bd10      	pop	{r4, pc}
 80077a8:	2300      	movs	r3, #0
 80077aa:	e9c0 3304 	strd	r3, r3, [r0, #16]
 80077ae:	e7b1      	b.n	8007714 <HAL_SPI_Init+0x18>
 80077b0:	2001      	movs	r0, #1
 80077b2:	e7f8      	b.n	80077a6 <HAL_SPI_Init+0xaa>

080077b4 <HAL_SPI_TransmitReceive>:
 80077b4:	e92d 43f7 	stmdb	sp!, {r0, r1, r2, r4, r5, r6, r7, r8, r9, lr}
 80077b8:	461e      	mov	r6, r3
 80077ba:	f890 3050 	ldrb.w	r3, [r0, #80]	; 0x50
 80077be:	f8dd 8028 	ldr.w	r8, [sp, #40]	; 0x28
 80077c2:	2b01      	cmp	r3, #1
 80077c4:	4604      	mov	r4, r0
 80077c6:	460d      	mov	r5, r1
 80077c8:	4691      	mov	r9, r2
 80077ca:	f000 80e0 	beq.w	800798e <HAL_SPI_TransmitReceive+0x1da>
 80077ce:	2301      	movs	r3, #1
 80077d0:	f880 3050 	strb.w	r3, [r0, #80]	; 0x50
 80077d4:	f7ff fb0e 	bl	8006df4 <HAL_GetTick>
 80077d8:	f894 3051 	ldrb.w	r3, [r4, #81]	; 0x51
 80077dc:	6862      	ldr	r2, [r4, #4]
 80077de:	2b01      	cmp	r3, #1
 80077e0:	4607      	mov	r7, r0
 80077e2:	b2d9      	uxtb	r1, r3
 80077e4:	d00a      	beq.n	80077fc <HAL_SPI_TransmitReceive+0x48>
 80077e6:	f5b2 7f82 	cmp.w	r2, #260	; 0x104
 80077ea:	f040 80ce 	bne.w	800798a <HAL_SPI_TransmitReceive+0x1d6>
 80077ee:	68a3      	ldr	r3, [r4, #8]
 80077f0:	2b00      	cmp	r3, #0
 80077f2:	f040 80ca 	bne.w	800798a <HAL_SPI_TransmitReceive+0x1d6>
 80077f6:	2904      	cmp	r1, #4
 80077f8:	f040 80c7 	bne.w	800798a <HAL_SPI_TransmitReceive+0x1d6>
 80077fc:	2d00      	cmp	r5, #0
 80077fe:	d03f      	beq.n	8007880 <HAL_SPI_TransmitReceive+0xcc>
 8007800:	f1b9 0f00 	cmp.w	r9, #0
 8007804:	d03c      	beq.n	8007880 <HAL_SPI_TransmitReceive+0xcc>
 8007806:	2e00      	cmp	r6, #0
 8007808:	d03a      	beq.n	8007880 <HAL_SPI_TransmitReceive+0xcc>
 800780a:	f894 3051 	ldrb.w	r3, [r4, #81]	; 0x51
 800780e:	f8c4 9038 	str.w	r9, [r4, #56]	; 0x38
 8007812:	2b04      	cmp	r3, #4
 8007814:	bf1c      	itt	ne
 8007816:	2305      	movne	r3, #5
 8007818:	f884 3051 	strbne.w	r3, [r4, #81]	; 0x51
 800781c:	2300      	movs	r3, #0
 800781e:	6563      	str	r3, [r4, #84]	; 0x54
 8007820:	e9c4 3310 	strd	r3, r3, [r4, #64]	; 0x40
 8007824:	6823      	ldr	r3, [r4, #0]
 8007826:	87e6      	strh	r6, [r4, #62]	; 0x3e
 8007828:	86e6      	strh	r6, [r4, #54]	; 0x36
 800782a:	6819      	ldr	r1, [r3, #0]
 800782c:	87a6      	strh	r6, [r4, #60]	; 0x3c
 800782e:	0649      	lsls	r1, r1, #25
 8007830:	bf58      	it	pl
 8007832:	6819      	ldrpl	r1, [r3, #0]
 8007834:	6325      	str	r5, [r4, #48]	; 0x30
 8007836:	bf58      	it	pl
 8007838:	f041 0140 	orrpl.w	r1, r1, #64	; 0x40
 800783c:	86a6      	strh	r6, [r4, #52]	; 0x34
 800783e:	bf58      	it	pl
 8007840:	6019      	strpl	r1, [r3, #0]
 8007842:	68e1      	ldr	r1, [r4, #12]
 8007844:	f5b1 6f00 	cmp.w	r1, #2048	; 0x800
 8007848:	d151      	bne.n	80078ee <HAL_SPI_TransmitReceive+0x13a>
 800784a:	b10a      	cbz	r2, 8007850 <HAL_SPI_TransmitReceive+0x9c>
 800784c:	2e01      	cmp	r6, #1
 800784e:	d107      	bne.n	8007860 <HAL_SPI_TransmitReceive+0xac>
 8007850:	f835 2b02 	ldrh.w	r2, [r5], #2
 8007854:	60da      	str	r2, [r3, #12]
 8007856:	8ee3      	ldrh	r3, [r4, #54]	; 0x36
 8007858:	6325      	str	r5, [r4, #48]	; 0x30
 800785a:	3b01      	subs	r3, #1
 800785c:	b29b      	uxth	r3, r3
 800785e:	86e3      	strh	r3, [r4, #54]	; 0x36
 8007860:	2501      	movs	r5, #1
 8007862:	8ee3      	ldrh	r3, [r4, #54]	; 0x36
 8007864:	b29b      	uxth	r3, r3
 8007866:	b96b      	cbnz	r3, 8007884 <HAL_SPI_TransmitReceive+0xd0>
 8007868:	8fe3      	ldrh	r3, [r4, #62]	; 0x3e
 800786a:	b29b      	uxth	r3, r3
 800786c:	b953      	cbnz	r3, 8007884 <HAL_SPI_TransmitReceive+0xd0>
 800786e:	463a      	mov	r2, r7
 8007870:	4641      	mov	r1, r8
 8007872:	4620      	mov	r0, r4
 8007874:	f7ff ff16 	bl	80076a4 <SPI_EndRxTxTransaction>
 8007878:	2800      	cmp	r0, #0
 800787a:	d07b      	beq.n	8007974 <HAL_SPI_TransmitReceive+0x1c0>
 800787c:	2320      	movs	r3, #32
 800787e:	6563      	str	r3, [r4, #84]	; 0x54
 8007880:	2001      	movs	r0, #1
 8007882:	e02b      	b.n	80078dc <HAL_SPI_TransmitReceive+0x128>
 8007884:	6821      	ldr	r1, [r4, #0]
 8007886:	688b      	ldr	r3, [r1, #8]
 8007888:	079a      	lsls	r2, r3, #30
 800788a:	d50d      	bpl.n	80078a8 <HAL_SPI_TransmitReceive+0xf4>
 800788c:	8ee3      	ldrh	r3, [r4, #54]	; 0x36
 800788e:	b29b      	uxth	r3, r3
 8007890:	b153      	cbz	r3, 80078a8 <HAL_SPI_TransmitReceive+0xf4>
 8007892:	b14d      	cbz	r5, 80078a8 <HAL_SPI_TransmitReceive+0xf4>
 8007894:	6b23      	ldr	r3, [r4, #48]	; 0x30
 8007896:	f833 2b02 	ldrh.w	r2, [r3], #2
 800789a:	60ca      	str	r2, [r1, #12]
 800789c:	6323      	str	r3, [r4, #48]	; 0x30
 800789e:	8ee3      	ldrh	r3, [r4, #54]	; 0x36
 80078a0:	3b01      	subs	r3, #1
 80078a2:	b29b      	uxth	r3, r3
 80078a4:	86e3      	strh	r3, [r4, #54]	; 0x36
 80078a6:	2500      	movs	r5, #0
 80078a8:	688a      	ldr	r2, [r1, #8]
 80078aa:	f012 0201 	ands.w	r2, r2, #1
 80078ae:	d00c      	beq.n	80078ca <HAL_SPI_TransmitReceive+0x116>
 80078b0:	8fe3      	ldrh	r3, [r4, #62]	; 0x3e
 80078b2:	b29b      	uxth	r3, r3
 80078b4:	b14b      	cbz	r3, 80078ca <HAL_SPI_TransmitReceive+0x116>
 80078b6:	6ba3      	ldr	r3, [r4, #56]	; 0x38
 80078b8:	68c9      	ldr	r1, [r1, #12]
 80078ba:	f823 1b02 	strh.w	r1, [r3], #2
 80078be:	63a3      	str	r3, [r4, #56]	; 0x38
 80078c0:	8fe3      	ldrh	r3, [r4, #62]	; 0x3e
 80078c2:	3b01      	subs	r3, #1
 80078c4:	b29b      	uxth	r3, r3
 80078c6:	87e3      	strh	r3, [r4, #62]	; 0x3e
 80078c8:	4615      	mov	r5, r2
 80078ca:	f7ff fa93 	bl	8006df4 <HAL_GetTick>
 80078ce:	1bc0      	subs	r0, r0, r7
 80078d0:	4540      	cmp	r0, r8
 80078d2:	d3c6      	bcc.n	8007862 <HAL_SPI_TransmitReceive+0xae>
 80078d4:	f1b8 3fff 	cmp.w	r8, #4294967295	; 0xffffffff
 80078d8:	d0c3      	beq.n	8007862 <HAL_SPI_TransmitReceive+0xae>
 80078da:	2003      	movs	r0, #3
 80078dc:	2301      	movs	r3, #1
 80078de:	f884 3051 	strb.w	r3, [r4, #81]	; 0x51
 80078e2:	2300      	movs	r3, #0
 80078e4:	f884 3050 	strb.w	r3, [r4, #80]	; 0x50
 80078e8:	b003      	add	sp, #12
 80078ea:	e8bd 83f0 	ldmia.w	sp!, {r4, r5, r6, r7, r8, r9, pc}
 80078ee:	b10a      	cbz	r2, 80078f4 <HAL_SPI_TransmitReceive+0x140>
 80078f0:	2e01      	cmp	r6, #1
 80078f2:	d108      	bne.n	8007906 <HAL_SPI_TransmitReceive+0x152>
 80078f4:	782a      	ldrb	r2, [r5, #0]
 80078f6:	731a      	strb	r2, [r3, #12]
 80078f8:	6b23      	ldr	r3, [r4, #48]	; 0x30
 80078fa:	3301      	adds	r3, #1
 80078fc:	6323      	str	r3, [r4, #48]	; 0x30
 80078fe:	8ee3      	ldrh	r3, [r4, #54]	; 0x36
 8007900:	3b01      	subs	r3, #1
 8007902:	b29b      	uxth	r3, r3
 8007904:	86e3      	strh	r3, [r4, #54]	; 0x36
 8007906:	2501      	movs	r5, #1
 8007908:	8ee3      	ldrh	r3, [r4, #54]	; 0x36
 800790a:	b29b      	uxth	r3, r3
 800790c:	b91b      	cbnz	r3, 8007916 <HAL_SPI_TransmitReceive+0x162>
 800790e:	8fe3      	ldrh	r3, [r4, #62]	; 0x3e
 8007910:	b29b      	uxth	r3, r3
 8007912:	2b00      	cmp	r3, #0
 8007914:	d0ab      	beq.n	800786e <HAL_SPI_TransmitReceive+0xba>
 8007916:	6822      	ldr	r2, [r4, #0]
 8007918:	6893      	ldr	r3, [r2, #8]
 800791a:	079b      	lsls	r3, r3, #30
 800791c:	d50e      	bpl.n	800793c <HAL_SPI_TransmitReceive+0x188>
 800791e:	8ee3      	ldrh	r3, [r4, #54]	; 0x36
 8007920:	b29b      	uxth	r3, r3
 8007922:	b15b      	cbz	r3, 800793c <HAL_SPI_TransmitReceive+0x188>
 8007924:	b155      	cbz	r5, 800793c <HAL_SPI_TransmitReceive+0x188>
 8007926:	6b23      	ldr	r3, [r4, #48]	; 0x30
 8007928:	781b      	ldrb	r3, [r3, #0]
 800792a:	7313      	strb	r3, [r2, #12]
 800792c:	6b23      	ldr	r3, [r4, #48]	; 0x30
 800792e:	3301      	adds	r3, #1
 8007930:	6323      	str	r3, [r4, #48]	; 0x30
 8007932:	8ee3      	ldrh	r3, [r4, #54]	; 0x36
 8007934:	3b01      	subs	r3, #1
 8007936:	b29b      	uxth	r3, r3
 8007938:	86e3      	strh	r3, [r4, #54]	; 0x36
 800793a:	2500      	movs	r5, #0
 800793c:	6822      	ldr	r2, [r4, #0]
 800793e:	6891      	ldr	r1, [r2, #8]
 8007940:	f011 0101 	ands.w	r1, r1, #1
 8007944:	d00d      	beq.n	8007962 <HAL_SPI_TransmitReceive+0x1ae>
 8007946:	8fe3      	ldrh	r3, [r4, #62]	; 0x3e
 8007948:	b29b      	uxth	r3, r3
 800794a:	b153      	cbz	r3, 8007962 <HAL_SPI_TransmitReceive+0x1ae>
 800794c:	6ba3      	ldr	r3, [r4, #56]	; 0x38
 800794e:	68d2      	ldr	r2, [r2, #12]
 8007950:	701a      	strb	r2, [r3, #0]
 8007952:	6ba3      	ldr	r3, [r4, #56]	; 0x38
 8007954:	3301      	adds	r3, #1
 8007956:	63a3      	str	r3, [r4, #56]	; 0x38
 8007958:	8fe3      	ldrh	r3, [r4, #62]	; 0x3e
 800795a:	3b01      	subs	r3, #1
 800795c:	b29b      	uxth	r3, r3
 800795e:	87e3      	strh	r3, [r4, #62]	; 0x3e
 8007960:	460d      	mov	r5, r1
 8007962:	f7ff fa47 	bl	8006df4 <HAL_GetTick>
 8007966:	1bc0      	subs	r0, r0, r7
 8007968:	4540      	cmp	r0, r8
 800796a:	d3cd      	bcc.n	8007908 <HAL_SPI_TransmitReceive+0x154>
 800796c:	f1b8 3fff 	cmp.w	r8, #4294967295	; 0xffffffff
 8007970:	d0ca      	beq.n	8007908 <HAL_SPI_TransmitReceive+0x154>
 8007972:	e7b2      	b.n	80078da <HAL_SPI_TransmitReceive+0x126>
 8007974:	68a3      	ldr	r3, [r4, #8]
 8007976:	2b00      	cmp	r3, #0
 8007978:	d1b0      	bne.n	80078dc <HAL_SPI_TransmitReceive+0x128>
 800797a:	6823      	ldr	r3, [r4, #0]
 800797c:	9001      	str	r0, [sp, #4]
 800797e:	68da      	ldr	r2, [r3, #12]
 8007980:	9201      	str	r2, [sp, #4]
 8007982:	689b      	ldr	r3, [r3, #8]
 8007984:	9301      	str	r3, [sp, #4]
 8007986:	9b01      	ldr	r3, [sp, #4]
 8007988:	e7a8      	b.n	80078dc <HAL_SPI_TransmitReceive+0x128>
 800798a:	2002      	movs	r0, #2
 800798c:	e7a6      	b.n	80078dc <HAL_SPI_TransmitReceive+0x128>
 800798e:	2002      	movs	r0, #2
 8007990:	e7aa      	b.n	80078e8 <HAL_SPI_TransmitReceive+0x134>

08007992 <HAL_TIM_Base_MspInit>:
 8007992:	4770      	bx	lr

08007994 <HAL_TIM_Base_Start_IT>:
 8007994:	f890 303d 	ldrb.w	r3, [r0, #61]	; 0x3d
 8007998:	2b01      	cmp	r3, #1
 800799a:	d130      	bne.n	80079fe <HAL_TIM_Base_Start_IT+0x6a>
 800799c:	2302      	movs	r3, #2
 800799e:	f880 303d 	strb.w	r3, [r0, #61]	; 0x3d
 80079a2:	6803      	ldr	r3, [r0, #0]
 80079a4:	68da      	ldr	r2, [r3, #12]
 80079a6:	f042 0201 	orr.w	r2, r2, #1
 80079aa:	60da      	str	r2, [r3, #12]
 80079ac:	4a15      	ldr	r2, [pc, #84]	; (8007a04 <HAL_TIM_Base_Start_IT+0x70>)
 80079ae:	4293      	cmp	r3, r2
 80079b0:	d01a      	beq.n	80079e8 <HAL_TIM_Base_Start_IT+0x54>
 80079b2:	f1b3 4f80 	cmp.w	r3, #1073741824	; 0x40000000
 80079b6:	d017      	beq.n	80079e8 <HAL_TIM_Base_Start_IT+0x54>
 80079b8:	f5a2 427c 	sub.w	r2, r2, #64512	; 0xfc00
 80079bc:	4293      	cmp	r3, r2
 80079be:	d013      	beq.n	80079e8 <HAL_TIM_Base_Start_IT+0x54>
 80079c0:	f502 6280 	add.w	r2, r2, #1024	; 0x400
 80079c4:	4293      	cmp	r3, r2
 80079c6:	d00f      	beq.n	80079e8 <HAL_TIM_Base_Start_IT+0x54>
 80079c8:	f502 6280 	add.w	r2, r2, #1024	; 0x400
 80079cc:	4293      	cmp	r3, r2
 80079ce:	d00b      	beq.n	80079e8 <HAL_TIM_Base_Start_IT+0x54>
 80079d0:	f502 4278 	add.w	r2, r2, #63488	; 0xf800
 80079d4:	4293      	cmp	r3, r2
 80079d6:	d007      	beq.n	80079e8 <HAL_TIM_Base_Start_IT+0x54>
 80079d8:	f502 5270 	add.w	r2, r2, #15360	; 0x3c00
 80079dc:	4293      	cmp	r3, r2
 80079de:	d003      	beq.n	80079e8 <HAL_TIM_Base_Start_IT+0x54>
 80079e0:	f5a2 3294 	sub.w	r2, r2, #75776	; 0x12800
 80079e4:	4293      	cmp	r3, r2
 80079e6:	d104      	bne.n	80079f2 <HAL_TIM_Base_Start_IT+0x5e>
 80079e8:	689a      	ldr	r2, [r3, #8]
 80079ea:	f002 0207 	and.w	r2, r2, #7
 80079ee:	2a06      	cmp	r2, #6
 80079f0:	d003      	beq.n	80079fa <HAL_TIM_Base_Start_IT+0x66>
 80079f2:	681a      	ldr	r2, [r3, #0]
 80079f4:	f042 0201 	orr.w	r2, r2, #1
 80079f8:	601a      	str	r2, [r3, #0]
 80079fa:	2000      	movs	r0, #0
 80079fc:	4770      	bx	lr
 80079fe:	2001      	movs	r0, #1
 8007a00:	4770      	bx	lr
 8007a02:	bf00      	nop
 8007a04:	40010000 	.word	0x40010000

08007a08 <HAL_TIM_OC_DelayElapsedCallback>:
 8007a08:	4770      	bx	lr

08007a0a <HAL_TIM_IC_CaptureCallback>:
 8007a0a:	4770      	bx	lr

08007a0c <HAL_TIM_PWM_PulseFinishedCallback>:
 8007a0c:	4770      	bx	lr

08007a0e <HAL_TIM_TriggerCallback>:
 8007a0e:	4770      	bx	lr

08007a10 <HAL_TIM_IRQHandler>:
 8007a10:	6803      	ldr	r3, [r0, #0]
 8007a12:	691a      	ldr	r2, [r3, #16]
 8007a14:	0791      	lsls	r1, r2, #30
 8007a16:	b510      	push	{r4, lr}
 8007a18:	4604      	mov	r4, r0
 8007a1a:	d50e      	bpl.n	8007a3a <HAL_TIM_IRQHandler+0x2a>
 8007a1c:	68da      	ldr	r2, [r3, #12]
 8007a1e:	0792      	lsls	r2, r2, #30
 8007a20:	d50b      	bpl.n	8007a3a <HAL_TIM_IRQHandler+0x2a>
 8007a22:	f06f 0202 	mvn.w	r2, #2
 8007a26:	611a      	str	r2, [r3, #16]
 8007a28:	2201      	movs	r2, #1
 8007a2a:	7702      	strb	r2, [r0, #28]
 8007a2c:	699b      	ldr	r3, [r3, #24]
 8007a2e:	079b      	lsls	r3, r3, #30
 8007a30:	d077      	beq.n	8007b22 <HAL_TIM_IRQHandler+0x112>
 8007a32:	f7ff ffea 	bl	8007a0a <HAL_TIM_IC_CaptureCallback>
 8007a36:	2300      	movs	r3, #0
 8007a38:	7723      	strb	r3, [r4, #28]
 8007a3a:	6823      	ldr	r3, [r4, #0]
 8007a3c:	691a      	ldr	r2, [r3, #16]
 8007a3e:	0750      	lsls	r0, r2, #29
 8007a40:	d510      	bpl.n	8007a64 <HAL_TIM_IRQHandler+0x54>
 8007a42:	68da      	ldr	r2, [r3, #12]
 8007a44:	0751      	lsls	r1, r2, #29
 8007a46:	d50d      	bpl.n	8007a64 <HAL_TIM_IRQHandler+0x54>
 8007a48:	f06f 0204 	mvn.w	r2, #4
 8007a4c:	611a      	str	r2, [r3, #16]
 8007a4e:	2202      	movs	r2, #2
 8007a50:	7722      	strb	r2, [r4, #28]
 8007a52:	699b      	ldr	r3, [r3, #24]
 8007a54:	f413 7f40 	tst.w	r3, #768	; 0x300
 8007a58:	4620      	mov	r0, r4
 8007a5a:	d068      	beq.n	8007b2e <HAL_TIM_IRQHandler+0x11e>
 8007a5c:	f7ff ffd5 	bl	8007a0a <HAL_TIM_IC_CaptureCallback>
 8007a60:	2300      	movs	r3, #0
 8007a62:	7723      	strb	r3, [r4, #28]
 8007a64:	6823      	ldr	r3, [r4, #0]
 8007a66:	691a      	ldr	r2, [r3, #16]
 8007a68:	0712      	lsls	r2, r2, #28
 8007a6a:	d50f      	bpl.n	8007a8c <HAL_TIM_IRQHandler+0x7c>
 8007a6c:	68da      	ldr	r2, [r3, #12]
 8007a6e:	0710      	lsls	r0, r2, #28
 8007a70:	d50c      	bpl.n	8007a8c <HAL_TIM_IRQHandler+0x7c>
 8007a72:	f06f 0208 	mvn.w	r2, #8
 8007a76:	611a      	str	r2, [r3, #16]
 8007a78:	2204      	movs	r2, #4
 8007a7a:	7722      	strb	r2, [r4, #28]
 8007a7c:	69db      	ldr	r3, [r3, #28]
 8007a7e:	0799      	lsls	r1, r3, #30
 8007a80:	4620      	mov	r0, r4
 8007a82:	d05a      	beq.n	8007b3a <HAL_TIM_IRQHandler+0x12a>
 8007a84:	f7ff ffc1 	bl	8007a0a <HAL_TIM_IC_CaptureCallback>
 8007a88:	2300      	movs	r3, #0
 8007a8a:	7723      	strb	r3, [r4, #28]
 8007a8c:	6823      	ldr	r3, [r4, #0]
 8007a8e:	691a      	ldr	r2, [r3, #16]
 8007a90:	06d2      	lsls	r2, r2, #27
 8007a92:	d510      	bpl.n	8007ab6 <HAL_TIM_IRQHandler+0xa6>
 8007a94:	68da      	ldr	r2, [r3, #12]
 8007a96:	06d0      	lsls	r0, r2, #27
 8007a98:	d50d      	bpl.n	8007ab6 <HAL_TIM_IRQHandler+0xa6>
 8007a9a:	f06f 0210 	mvn.w	r2, #16
 8007a9e:	611a      	str	r2, [r3, #16]
 8007aa0:	2208      	movs	r2, #8
 8007aa2:	7722      	strb	r2, [r4, #28]
 8007aa4:	69db      	ldr	r3, [r3, #28]
 8007aa6:	f413 7f40 	tst.w	r3, #768	; 0x300
 8007aaa:	4620      	mov	r0, r4
 8007aac:	d04b      	beq.n	8007b46 <HAL_TIM_IRQHandler+0x136>
 8007aae:	f7ff ffac 	bl	8007a0a <HAL_TIM_IC_CaptureCallback>
 8007ab2:	2300      	movs	r3, #0
 8007ab4:	7723      	strb	r3, [r4, #28]
 8007ab6:	6823      	ldr	r3, [r4, #0]
 8007ab8:	691a      	ldr	r2, [r3, #16]
 8007aba:	07d1      	lsls	r1, r2, #31
 8007abc:	d508      	bpl.n	8007ad0 <HAL_TIM_IRQHandler+0xc0>
 8007abe:	68da      	ldr	r2, [r3, #12]
 8007ac0:	07d2      	lsls	r2, r2, #31
 8007ac2:	d505      	bpl.n	8007ad0 <HAL_TIM_IRQHandler+0xc0>
 8007ac4:	f06f 0201 	mvn.w	r2, #1
 8007ac8:	611a      	str	r2, [r3, #16]
 8007aca:	4620      	mov	r0, r4
 8007acc:	f7f8 feae 	bl	800082c <HAL_TIM_PeriodElapsedCallback>
 8007ad0:	6823      	ldr	r3, [r4, #0]
 8007ad2:	691a      	ldr	r2, [r3, #16]
 8007ad4:	0610      	lsls	r0, r2, #24
 8007ad6:	d508      	bpl.n	8007aea <HAL_TIM_IRQHandler+0xda>
 8007ad8:	68da      	ldr	r2, [r3, #12]
 8007ada:	0611      	lsls	r1, r2, #24
 8007adc:	d505      	bpl.n	8007aea <HAL_TIM_IRQHandler+0xda>
 8007ade:	f06f 0280 	mvn.w	r2, #128	; 0x80
 8007ae2:	611a      	str	r2, [r3, #16]
 8007ae4:	4620      	mov	r0, r4
 8007ae6:	f000 f8c8 	bl	8007c7a <HAL_TIMEx_BreakCallback>
 8007aea:	6823      	ldr	r3, [r4, #0]
 8007aec:	691a      	ldr	r2, [r3, #16]
 8007aee:	0652      	lsls	r2, r2, #25
 8007af0:	d508      	bpl.n	8007b04 <HAL_TIM_IRQHandler+0xf4>
 8007af2:	68da      	ldr	r2, [r3, #12]
 8007af4:	0650      	lsls	r0, r2, #25
 8007af6:	d505      	bpl.n	8007b04 <HAL_TIM_IRQHandler+0xf4>
 8007af8:	f06f 0240 	mvn.w	r2, #64	; 0x40
 8007afc:	611a      	str	r2, [r3, #16]
 8007afe:	4620      	mov	r0, r4
 8007b00:	f7ff ff85 	bl	8007a0e <HAL_TIM_TriggerCallback>
 8007b04:	6823      	ldr	r3, [r4, #0]
 8007b06:	691a      	ldr	r2, [r3, #16]
 8007b08:	0691      	lsls	r1, r2, #26
 8007b0a:	d522      	bpl.n	8007b52 <HAL_TIM_IRQHandler+0x142>
 8007b0c:	68da      	ldr	r2, [r3, #12]
 8007b0e:	0692      	lsls	r2, r2, #26
 8007b10:	d51f      	bpl.n	8007b52 <HAL_TIM_IRQHandler+0x142>
 8007b12:	f06f 0220 	mvn.w	r2, #32
 8007b16:	4620      	mov	r0, r4
 8007b18:	611a      	str	r2, [r3, #16]
 8007b1a:	e8bd 4010 	ldmia.w	sp!, {r4, lr}
 8007b1e:	f000 b8ab 	b.w	8007c78 <HAL_TIMEx_CommutCallback>
 8007b22:	f7ff ff71 	bl	8007a08 <HAL_TIM_OC_DelayElapsedCallback>
 8007b26:	4620      	mov	r0, r4
 8007b28:	f7ff ff70 	bl	8007a0c <HAL_TIM_PWM_PulseFinishedCallback>
 8007b2c:	e783      	b.n	8007a36 <HAL_TIM_IRQHandler+0x26>
 8007b2e:	f7ff ff6b 	bl	8007a08 <HAL_TIM_OC_DelayElapsedCallback>
 8007b32:	4620      	mov	r0, r4
 8007b34:	f7ff ff6a 	bl	8007a0c <HAL_TIM_PWM_PulseFinishedCallback>
 8007b38:	e792      	b.n	8007a60 <HAL_TIM_IRQHandler+0x50>
 8007b3a:	f7ff ff65 	bl	8007a08 <HAL_TIM_OC_DelayElapsedCallback>
 8007b3e:	4620      	mov	r0, r4
 8007b40:	f7ff ff64 	bl	8007a0c <HAL_TIM_PWM_PulseFinishedCallback>
 8007b44:	e7a0      	b.n	8007a88 <HAL_TIM_IRQHandler+0x78>
 8007b46:	f7ff ff5f 	bl	8007a08 <HAL_TIM_OC_DelayElapsedCallback>
 8007b4a:	4620      	mov	r0, r4
 8007b4c:	f7ff ff5e 	bl	8007a0c <HAL_TIM_PWM_PulseFinishedCallback>
 8007b50:	e7af      	b.n	8007ab2 <HAL_TIM_IRQHandler+0xa2>
 8007b52:	bd10      	pop	{r4, pc}

08007b54 <TIM_Base_SetConfig>:
 8007b54:	4a30      	ldr	r2, [pc, #192]	; (8007c18 <TIM_Base_SetConfig+0xc4>)
 8007b56:	6803      	ldr	r3, [r0, #0]
 8007b58:	4290      	cmp	r0, r2
 8007b5a:	d012      	beq.n	8007b82 <TIM_Base_SetConfig+0x2e>
 8007b5c:	f1b0 4f80 	cmp.w	r0, #1073741824	; 0x40000000
 8007b60:	d00f      	beq.n	8007b82 <TIM_Base_SetConfig+0x2e>
 8007b62:	f5a2 427c 	sub.w	r2, r2, #64512	; 0xfc00
 8007b66:	4290      	cmp	r0, r2
 8007b68:	d00b      	beq.n	8007b82 <TIM_Base_SetConfig+0x2e>
 8007b6a:	f502 6280 	add.w	r2, r2, #1024	; 0x400
 8007b6e:	4290      	cmp	r0, r2
 8007b70:	d007      	beq.n	8007b82 <TIM_Base_SetConfig+0x2e>
 8007b72:	f502 6280 	add.w	r2, r2, #1024	; 0x400
 8007b76:	4290      	cmp	r0, r2
 8007b78:	d003      	beq.n	8007b82 <TIM_Base_SetConfig+0x2e>
 8007b7a:	f502 4278 	add.w	r2, r2, #63488	; 0xf800
 8007b7e:	4290      	cmp	r0, r2
 8007b80:	d119      	bne.n	8007bb6 <TIM_Base_SetConfig+0x62>
 8007b82:	684a      	ldr	r2, [r1, #4]
 8007b84:	f023 0370 	bic.w	r3, r3, #112	; 0x70
 8007b88:	4313      	orrs	r3, r2
 8007b8a:	4a23      	ldr	r2, [pc, #140]	; (8007c18 <TIM_Base_SetConfig+0xc4>)
 8007b8c:	4290      	cmp	r0, r2
 8007b8e:	d029      	beq.n	8007be4 <TIM_Base_SetConfig+0x90>
 8007b90:	f1b0 4f80 	cmp.w	r0, #1073741824	; 0x40000000
 8007b94:	d026      	beq.n	8007be4 <TIM_Base_SetConfig+0x90>
 8007b96:	f5a2 427c 	sub.w	r2, r2, #64512	; 0xfc00
 8007b9a:	4290      	cmp	r0, r2
 8007b9c:	d022      	beq.n	8007be4 <TIM_Base_SetConfig+0x90>
 8007b9e:	f502 6280 	add.w	r2, r2, #1024	; 0x400
 8007ba2:	4290      	cmp	r0, r2
 8007ba4:	d01e      	beq.n	8007be4 <TIM_Base_SetConfig+0x90>
 8007ba6:	f502 6280 	add.w	r2, r2, #1024	; 0x400
 8007baa:	4290      	cmp	r0, r2
 8007bac:	d01a      	beq.n	8007be4 <TIM_Base_SetConfig+0x90>
 8007bae:	f502 4278 	add.w	r2, r2, #63488	; 0xf800
 8007bb2:	4290      	cmp	r0, r2
 8007bb4:	d016      	beq.n	8007be4 <TIM_Base_SetConfig+0x90>
 8007bb6:	4a19      	ldr	r2, [pc, #100]	; (8007c1c <TIM_Base_SetConfig+0xc8>)
 8007bb8:	4290      	cmp	r0, r2
 8007bba:	d013      	beq.n	8007be4 <TIM_Base_SetConfig+0x90>
 8007bbc:	f502 6280 	add.w	r2, r2, #1024	; 0x400
 8007bc0:	4290      	cmp	r0, r2
 8007bc2:	d00f      	beq.n	8007be4 <TIM_Base_SetConfig+0x90>
 8007bc4:	f502 6280 	add.w	r2, r2, #1024	; 0x400
 8007bc8:	4290      	cmp	r0, r2
 8007bca:	d00b      	beq.n	8007be4 <TIM_Base_SetConfig+0x90>
 8007bcc:	f5a2 3298 	sub.w	r2, r2, #77824	; 0x13000
 8007bd0:	4290      	cmp	r0, r2
 8007bd2:	d007      	beq.n	8007be4 <TIM_Base_SetConfig+0x90>
 8007bd4:	f502 6280 	add.w	r2, r2, #1024	; 0x400
 8007bd8:	4290      	cmp	r0, r2
 8007bda:	d003      	beq.n	8007be4 <TIM_Base_SetConfig+0x90>
 8007bdc:	f502 6280 	add.w	r2, r2, #1024	; 0x400
 8007be0:	4290      	cmp	r0, r2
 8007be2:	d103      	bne.n	8007bec <TIM_Base_SetConfig+0x98>
 8007be4:	68ca      	ldr	r2, [r1, #12]
 8007be6:	f423 7340 	bic.w	r3, r3, #768	; 0x300
 8007bea:	4313      	orrs	r3, r2
 8007bec:	694a      	ldr	r2, [r1, #20]
 8007bee:	f023 0380 	bic.w	r3, r3, #128	; 0x80
 8007bf2:	4313      	orrs	r3, r2
 8007bf4:	6003      	str	r3, [r0, #0]
 8007bf6:	688b      	ldr	r3, [r1, #8]
 8007bf8:	62c3      	str	r3, [r0, #44]	; 0x2c
 8007bfa:	680b      	ldr	r3, [r1, #0]
 8007bfc:	6283      	str	r3, [r0, #40]	; 0x28
 8007bfe:	4b06      	ldr	r3, [pc, #24]	; (8007c18 <TIM_Base_SetConfig+0xc4>)
 8007c00:	4298      	cmp	r0, r3
 8007c02:	d003      	beq.n	8007c0c <TIM_Base_SetConfig+0xb8>
 8007c04:	f503 6380 	add.w	r3, r3, #1024	; 0x400
 8007c08:	4298      	cmp	r0, r3
 8007c0a:	d101      	bne.n	8007c10 <TIM_Base_SetConfig+0xbc>
 8007c0c:	690b      	ldr	r3, [r1, #16]
 8007c0e:	6303      	str	r3, [r0, #48]	; 0x30
 8007c10:	2301      	movs	r3, #1
 8007c12:	6143      	str	r3, [r0, #20]
 8007c14:	4770      	bx	lr
 8007c16:	bf00      	nop
 8007c18:	40010000 	.word	0x40010000
 8007c1c:	40014000 	.word	0x40014000

08007c20 <HAL_TIM_Base_Init>:
 8007c20:	b510      	push	{r4, lr}
 8007c22:	4604      	mov	r4, r0
 8007c24:	b330      	cbz	r0, 8007c74 <HAL_TIM_Base_Init+0x54>
 8007c26:	f890 303d 	ldrb.w	r3, [r0, #61]	; 0x3d
 8007c2a:	f003 02ff 	and.w	r2, r3, #255	; 0xff
 8007c2e:	b91b      	cbnz	r3, 8007c38 <HAL_TIM_Base_Init+0x18>
 8007c30:	f880 203c 	strb.w	r2, [r0, #60]	; 0x3c
 8007c34:	f7ff fead 	bl	8007992 <HAL_TIM_Base_MspInit>
 8007c38:	2302      	movs	r3, #2
 8007c3a:	6820      	ldr	r0, [r4, #0]
 8007c3c:	f884 303d 	strb.w	r3, [r4, #61]	; 0x3d
 8007c40:	1d21      	adds	r1, r4, #4
 8007c42:	f7ff ff87 	bl	8007b54 <TIM_Base_SetConfig>
 8007c46:	2301      	movs	r3, #1
 8007c48:	f884 3046 	strb.w	r3, [r4, #70]	; 0x46
 8007c4c:	2000      	movs	r0, #0
 8007c4e:	f884 303e 	strb.w	r3, [r4, #62]	; 0x3e
 8007c52:	f884 303f 	strb.w	r3, [r4, #63]	; 0x3f
 8007c56:	f884 3040 	strb.w	r3, [r4, #64]	; 0x40
 8007c5a:	f884 3041 	strb.w	r3, [r4, #65]	; 0x41
 8007c5e:	f884 3042 	strb.w	r3, [r4, #66]	; 0x42
 8007c62:	f884 3043 	strb.w	r3, [r4, #67]	; 0x43
 8007c66:	f884 3044 	strb.w	r3, [r4, #68]	; 0x44
 8007c6a:	f884 3045 	strb.w	r3, [r4, #69]	; 0x45
 8007c6e:	f884 303d 	strb.w	r3, [r4, #61]	; 0x3d
 8007c72:	bd10      	pop	{r4, pc}
 8007c74:	2001      	movs	r0, #1
 8007c76:	e7fc      	b.n	8007c72 <HAL_TIM_Base_Init+0x52>

08007c78 <HAL_TIMEx_CommutCallback>:
 8007c78:	4770      	bx	lr

08007c7a <HAL_TIMEx_BreakCallback>:
 8007c7a:	4770      	bx	lr

08007c7c <osKernelStart>:
 8007c7c:	b508      	push	{r3, lr}
 8007c7e:	f000 fd39 	bl	80086f4 <vTaskStartScheduler>
 8007c82:	2000      	movs	r0, #0
 8007c84:	bd08      	pop	{r3, pc}

08007c86 <vListInitialise>:
 8007c86:	f100 0308 	add.w	r3, r0, #8
 8007c8a:	f04f 32ff 	mov.w	r2, #4294967295	; 0xffffffff
 8007c8e:	e9c0 2302 	strd	r2, r3, [r0, #8]
 8007c92:	6043      	str	r3, [r0, #4]
 8007c94:	6103      	str	r3, [r0, #16]
 8007c96:	2300      	movs	r3, #0
 8007c98:	6003      	str	r3, [r0, #0]
 8007c9a:	4770      	bx	lr

08007c9c <vListInitialiseItem>:
 8007c9c:	2300      	movs	r3, #0
 8007c9e:	6103      	str	r3, [r0, #16]
 8007ca0:	4770      	bx	lr

08007ca2 <vListInsertEnd>:
 8007ca2:	6843      	ldr	r3, [r0, #4]
 8007ca4:	604b      	str	r3, [r1, #4]
 8007ca6:	689a      	ldr	r2, [r3, #8]
 8007ca8:	608a      	str	r2, [r1, #8]
 8007caa:	689a      	ldr	r2, [r3, #8]
 8007cac:	6051      	str	r1, [r2, #4]
 8007cae:	6099      	str	r1, [r3, #8]
 8007cb0:	6803      	ldr	r3, [r0, #0]
 8007cb2:	6108      	str	r0, [r1, #16]
 8007cb4:	3301      	adds	r3, #1
 8007cb6:	6003      	str	r3, [r0, #0]
 8007cb8:	4770      	bx	lr

08007cba <vListInsert>:
 8007cba:	b530      	push	{r4, r5, lr}
 8007cbc:	680c      	ldr	r4, [r1, #0]
 8007cbe:	1c63      	adds	r3, r4, #1
 8007cc0:	d10a      	bne.n	8007cd8 <vListInsert+0x1e>
 8007cc2:	6903      	ldr	r3, [r0, #16]
 8007cc4:	685a      	ldr	r2, [r3, #4]
 8007cc6:	604a      	str	r2, [r1, #4]
 8007cc8:	6091      	str	r1, [r2, #8]
 8007cca:	608b      	str	r3, [r1, #8]
 8007ccc:	6059      	str	r1, [r3, #4]
 8007cce:	6803      	ldr	r3, [r0, #0]
 8007cd0:	6108      	str	r0, [r1, #16]
 8007cd2:	3301      	adds	r3, #1
 8007cd4:	6003      	str	r3, [r0, #0]
 8007cd6:	bd30      	pop	{r4, r5, pc}
 8007cd8:	f100 0208 	add.w	r2, r0, #8
 8007cdc:	4613      	mov	r3, r2
 8007cde:	6852      	ldr	r2, [r2, #4]
 8007ce0:	6815      	ldr	r5, [r2, #0]
 8007ce2:	42a5      	cmp	r5, r4
 8007ce4:	d9fa      	bls.n	8007cdc <vListInsert+0x22>
 8007ce6:	e7ed      	b.n	8007cc4 <vListInsert+0xa>

08007ce8 <uxListRemove>:
 8007ce8:	e9d0 1201 	ldrd	r1, r2, [r0, #4]
 8007cec:	6903      	ldr	r3, [r0, #16]
 8007cee:	608a      	str	r2, [r1, #8]
 8007cf0:	6051      	str	r1, [r2, #4]
 8007cf2:	6859      	ldr	r1, [r3, #4]
 8007cf4:	4281      	cmp	r1, r0
 8007cf6:	bf08      	it	eq
 8007cf8:	605a      	streq	r2, [r3, #4]
 8007cfa:	2200      	movs	r2, #0
 8007cfc:	6102      	str	r2, [r0, #16]
 8007cfe:	681a      	ldr	r2, [r3, #0]
 8007d00:	3a01      	subs	r2, #1
 8007d02:	601a      	str	r2, [r3, #0]
 8007d04:	6818      	ldr	r0, [r3, #0]
 8007d06:	4770      	bx	lr

08007d08 <prvIsQueueEmpty>:
 8007d08:	b510      	push	{r4, lr}
 8007d0a:	4604      	mov	r4, r0
 8007d0c:	f001 f8aa 	bl	8008e64 <vPortEnterCritical>
 8007d10:	6ba4      	ldr	r4, [r4, #56]	; 0x38
 8007d12:	f001 f8c9 	bl	8008ea8 <vPortExitCritical>
 8007d16:	fab4 f084 	clz	r0, r4
 8007d1a:	0940      	lsrs	r0, r0, #5
 8007d1c:	bd10      	pop	{r4, pc}

08007d1e <prvCopyDataToQueue>:
 8007d1e:	b5f8      	push	{r3, r4, r5, r6, r7, lr}
 8007d20:	4615      	mov	r5, r2
 8007d22:	6c02      	ldr	r2, [r0, #64]	; 0x40
 8007d24:	6b86      	ldr	r6, [r0, #56]	; 0x38
 8007d26:	4604      	mov	r4, r0
 8007d28:	b952      	cbnz	r2, 8007d40 <prvCopyDataToQueue+0x22>
 8007d2a:	6807      	ldr	r7, [r0, #0]
 8007d2c:	bb47      	cbnz	r7, 8007d80 <prvCopyDataToQueue+0x62>
 8007d2e:	6880      	ldr	r0, [r0, #8]
 8007d30:	f000 ff78 	bl	8008c24 <xTaskPriorityDisinherit>
 8007d34:	60a7      	str	r7, [r4, #8]
 8007d36:	4605      	mov	r5, r0
 8007d38:	3601      	adds	r6, #1
 8007d3a:	63a6      	str	r6, [r4, #56]	; 0x38
 8007d3c:	4628      	mov	r0, r5
 8007d3e:	bdf8      	pop	{r3, r4, r5, r6, r7, pc}
 8007d40:	b965      	cbnz	r5, 8007d5c <prvCopyDataToQueue+0x3e>
 8007d42:	6840      	ldr	r0, [r0, #4]
 8007d44:	f001 fbeb 	bl	800951e <memcpy>
 8007d48:	6863      	ldr	r3, [r4, #4]
 8007d4a:	6c22      	ldr	r2, [r4, #64]	; 0x40
 8007d4c:	4413      	add	r3, r2
 8007d4e:	68a2      	ldr	r2, [r4, #8]
 8007d50:	6063      	str	r3, [r4, #4]
 8007d52:	4293      	cmp	r3, r2
 8007d54:	d3f0      	bcc.n	8007d38 <prvCopyDataToQueue+0x1a>
 8007d56:	6823      	ldr	r3, [r4, #0]
 8007d58:	6063      	str	r3, [r4, #4]
 8007d5a:	e7ed      	b.n	8007d38 <prvCopyDataToQueue+0x1a>
 8007d5c:	68c0      	ldr	r0, [r0, #12]
 8007d5e:	f001 fbde 	bl	800951e <memcpy>
 8007d62:	6c22      	ldr	r2, [r4, #64]	; 0x40
 8007d64:	68e3      	ldr	r3, [r4, #12]
 8007d66:	4251      	negs	r1, r2
 8007d68:	1a9b      	subs	r3, r3, r2
 8007d6a:	6822      	ldr	r2, [r4, #0]
 8007d6c:	60e3      	str	r3, [r4, #12]
 8007d6e:	4293      	cmp	r3, r2
 8007d70:	bf3e      	ittt	cc
 8007d72:	68a3      	ldrcc	r3, [r4, #8]
 8007d74:	185b      	addcc	r3, r3, r1
 8007d76:	60e3      	strcc	r3, [r4, #12]
 8007d78:	2d02      	cmp	r5, #2
 8007d7a:	d101      	bne.n	8007d80 <prvCopyDataToQueue+0x62>
 8007d7c:	b116      	cbz	r6, 8007d84 <prvCopyDataToQueue+0x66>
 8007d7e:	3e01      	subs	r6, #1
 8007d80:	2500      	movs	r5, #0
 8007d82:	e7d9      	b.n	8007d38 <prvCopyDataToQueue+0x1a>
 8007d84:	4635      	mov	r5, r6
 8007d86:	e7d7      	b.n	8007d38 <prvCopyDataToQueue+0x1a>

08007d88 <prvUnlockQueue>:
 8007d88:	b570      	push	{r4, r5, r6, lr}
 8007d8a:	4604      	mov	r4, r0
 8007d8c:	f001 f86a 	bl	8008e64 <vPortEnterCritical>
 8007d90:	f894 5045 	ldrb.w	r5, [r4, #69]	; 0x45
 8007d94:	f104 0624 	add.w	r6, r4, #36	; 0x24
 8007d98:	b26d      	sxtb	r5, r5
 8007d9a:	2d00      	cmp	r5, #0
 8007d9c:	dc14      	bgt.n	8007dc8 <prvUnlockQueue+0x40>
 8007d9e:	23ff      	movs	r3, #255	; 0xff
 8007da0:	f884 3045 	strb.w	r3, [r4, #69]	; 0x45
 8007da4:	f001 f880 	bl	8008ea8 <vPortExitCritical>
 8007da8:	f001 f85c 	bl	8008e64 <vPortEnterCritical>
 8007dac:	f894 5044 	ldrb.w	r5, [r4, #68]	; 0x44
 8007db0:	f104 0610 	add.w	r6, r4, #16
 8007db4:	b26d      	sxtb	r5, r5
 8007db6:	2d00      	cmp	r5, #0
 8007db8:	dc12      	bgt.n	8007de0 <prvUnlockQueue+0x58>
 8007dba:	23ff      	movs	r3, #255	; 0xff
 8007dbc:	f884 3044 	strb.w	r3, [r4, #68]	; 0x44
 8007dc0:	e8bd 4070 	ldmia.w	sp!, {r4, r5, r6, lr}
 8007dc4:	f001 b870 	b.w	8008ea8 <vPortExitCritical>
 8007dc8:	6a63      	ldr	r3, [r4, #36]	; 0x24
 8007dca:	2b00      	cmp	r3, #0
 8007dcc:	d0e7      	beq.n	8007d9e <prvUnlockQueue+0x16>
 8007dce:	4630      	mov	r0, r6
 8007dd0:	f000 fe38 	bl	8008a44 <xTaskRemoveFromEventList>
 8007dd4:	b108      	cbz	r0, 8007dda <prvUnlockQueue+0x52>
 8007dd6:	f000 fec1 	bl	8008b5c <vTaskMissedYield>
 8007dda:	3d01      	subs	r5, #1
 8007ddc:	b26d      	sxtb	r5, r5
 8007dde:	e7dc      	b.n	8007d9a <prvUnlockQueue+0x12>
 8007de0:	6923      	ldr	r3, [r4, #16]
 8007de2:	2b00      	cmp	r3, #0
 8007de4:	d0e9      	beq.n	8007dba <prvUnlockQueue+0x32>
 8007de6:	4630      	mov	r0, r6
 8007de8:	f000 fe2c 	bl	8008a44 <xTaskRemoveFromEventList>
 8007dec:	b108      	cbz	r0, 8007df2 <prvUnlockQueue+0x6a>
 8007dee:	f000 feb5 	bl	8008b5c <vTaskMissedYield>
 8007df2:	3d01      	subs	r5, #1
 8007df4:	b26d      	sxtb	r5, r5
 8007df6:	e7de      	b.n	8007db6 <prvUnlockQueue+0x2e>

08007df8 <xQueueGenericReset>:
 8007df8:	b538      	push	{r3, r4, r5, lr}
 8007dfa:	460d      	mov	r5, r1
 8007dfc:	4604      	mov	r4, r0
 8007dfe:	b940      	cbnz	r0, 8007e12 <xQueueGenericReset+0x1a>
 8007e00:	f04f 0350 	mov.w	r3, #80	; 0x50
 8007e04:	f383 8811 	msr	BASEPRI, r3
 8007e08:	f3bf 8f6f 	isb	sy
 8007e0c:	f3bf 8f4f 	dsb	sy
 8007e10:	e7fe      	b.n	8007e10 <xQueueGenericReset+0x18>
 8007e12:	f001 f827 	bl	8008e64 <vPortEnterCritical>
 8007e16:	e9d4 310f 	ldrd	r3, r1, [r4, #60]	; 0x3c
 8007e1a:	6822      	ldr	r2, [r4, #0]
 8007e1c:	6062      	str	r2, [r4, #4]
 8007e1e:	434b      	muls	r3, r1
 8007e20:	18d0      	adds	r0, r2, r3
 8007e22:	1a5b      	subs	r3, r3, r1
 8007e24:	4413      	add	r3, r2
 8007e26:	60a0      	str	r0, [r4, #8]
 8007e28:	60e3      	str	r3, [r4, #12]
 8007e2a:	2000      	movs	r0, #0
 8007e2c:	23ff      	movs	r3, #255	; 0xff
 8007e2e:	63a0      	str	r0, [r4, #56]	; 0x38
 8007e30:	f884 3044 	strb.w	r3, [r4, #68]	; 0x44
 8007e34:	f884 3045 	strb.w	r3, [r4, #69]	; 0x45
 8007e38:	b995      	cbnz	r5, 8007e60 <xQueueGenericReset+0x68>
 8007e3a:	6923      	ldr	r3, [r4, #16]
 8007e3c:	b163      	cbz	r3, 8007e58 <xQueueGenericReset+0x60>
 8007e3e:	f104 0010 	add.w	r0, r4, #16
 8007e42:	f000 fdff 	bl	8008a44 <xTaskRemoveFromEventList>
 8007e46:	b138      	cbz	r0, 8007e58 <xQueueGenericReset+0x60>
 8007e48:	4b0a      	ldr	r3, [pc, #40]	; (8007e74 <xQueueGenericReset+0x7c>)
 8007e4a:	f04f 5280 	mov.w	r2, #268435456	; 0x10000000
 8007e4e:	601a      	str	r2, [r3, #0]
 8007e50:	f3bf 8f4f 	dsb	sy
 8007e54:	f3bf 8f6f 	isb	sy
 8007e58:	f001 f826 	bl	8008ea8 <vPortExitCritical>
 8007e5c:	2001      	movs	r0, #1
 8007e5e:	bd38      	pop	{r3, r4, r5, pc}
 8007e60:	f104 0010 	add.w	r0, r4, #16
 8007e64:	f7ff ff0f 	bl	8007c86 <vListInitialise>
 8007e68:	f104 0024 	add.w	r0, r4, #36	; 0x24
 8007e6c:	f7ff ff0b 	bl	8007c86 <vListInitialise>
 8007e70:	e7f2      	b.n	8007e58 <xQueueGenericReset+0x60>
 8007e72:	bf00      	nop
 8007e74:	e000ed04 	.word	0xe000ed04

08007e78 <xQueueGenericCreateStatic>:
 8007e78:	b513      	push	{r0, r1, r4, lr}
 8007e7a:	461c      	mov	r4, r3
 8007e7c:	b940      	cbnz	r0, 8007e90 <xQueueGenericCreateStatic+0x18>
 8007e7e:	f04f 0350 	mov.w	r3, #80	; 0x50
 8007e82:	f383 8811 	msr	BASEPRI, r3
 8007e86:	f3bf 8f6f 	isb	sy
 8007e8a:	f3bf 8f4f 	dsb	sy
 8007e8e:	e7fe      	b.n	8007e8e <xQueueGenericCreateStatic+0x16>
 8007e90:	b943      	cbnz	r3, 8007ea4 <xQueueGenericCreateStatic+0x2c>
 8007e92:	f04f 0350 	mov.w	r3, #80	; 0x50
 8007e96:	f383 8811 	msr	BASEPRI, r3
 8007e9a:	f3bf 8f6f 	isb	sy
 8007e9e:	f3bf 8f4f 	dsb	sy
 8007ea2:	e7fe      	b.n	8007ea2 <xQueueGenericCreateStatic+0x2a>
 8007ea4:	b14a      	cbz	r2, 8007eba <xQueueGenericCreateStatic+0x42>
 8007ea6:	b991      	cbnz	r1, 8007ece <xQueueGenericCreateStatic+0x56>
 8007ea8:	f04f 0350 	mov.w	r3, #80	; 0x50
 8007eac:	f383 8811 	msr	BASEPRI, r3
 8007eb0:	f3bf 8f6f 	isb	sy
 8007eb4:	f3bf 8f4f 	dsb	sy
 8007eb8:	e7fe      	b.n	8007eb8 <xQueueGenericCreateStatic+0x40>
 8007eba:	b141      	cbz	r1, 8007ece <xQueueGenericCreateStatic+0x56>
 8007ebc:	f04f 0350 	mov.w	r3, #80	; 0x50
 8007ec0:	f383 8811 	msr	BASEPRI, r3
 8007ec4:	f3bf 8f6f 	isb	sy
 8007ec8:	f3bf 8f4f 	dsb	sy
 8007ecc:	e7fe      	b.n	8007ecc <xQueueGenericCreateStatic+0x54>
 8007ece:	2348      	movs	r3, #72	; 0x48
 8007ed0:	9301      	str	r3, [sp, #4]
 8007ed2:	9b01      	ldr	r3, [sp, #4]
 8007ed4:	2b48      	cmp	r3, #72	; 0x48
 8007ed6:	d008      	beq.n	8007eea <xQueueGenericCreateStatic+0x72>
 8007ed8:	f04f 0350 	mov.w	r3, #80	; 0x50
 8007edc:	f383 8811 	msr	BASEPRI, r3
 8007ee0:	f3bf 8f6f 	isb	sy
 8007ee4:	f3bf 8f4f 	dsb	sy
 8007ee8:	e7fe      	b.n	8007ee8 <xQueueGenericCreateStatic+0x70>
 8007eea:	2900      	cmp	r1, #0
 8007eec:	bf08      	it	eq
 8007eee:	4622      	moveq	r2, r4
 8007ef0:	9b01      	ldr	r3, [sp, #4]
 8007ef2:	6022      	str	r2, [r4, #0]
 8007ef4:	2301      	movs	r3, #1
 8007ef6:	e9c4 010f 	strd	r0, r1, [r4, #60]	; 0x3c
 8007efa:	f884 3046 	strb.w	r3, [r4, #70]	; 0x46
 8007efe:	4619      	mov	r1, r3
 8007f00:	4620      	mov	r0, r4
 8007f02:	f7ff ff79 	bl	8007df8 <xQueueGenericReset>
 8007f06:	4620      	mov	r0, r4
 8007f08:	b002      	add	sp, #8
 8007f0a:	bd10      	pop	{r4, pc}

08007f0c <xQueueGenericSend>:
 8007f0c:	e92d 47ff 	stmdb	sp!, {r0, r1, r2, r3, r4, r5, r6, r7, r8, r9, sl, lr}
 8007f10:	4688      	mov	r8, r1
 8007f12:	9201      	str	r2, [sp, #4]
 8007f14:	461f      	mov	r7, r3
 8007f16:	4604      	mov	r4, r0
 8007f18:	b940      	cbnz	r0, 8007f2c <xQueueGenericSend+0x20>
 8007f1a:	f04f 0350 	mov.w	r3, #80	; 0x50
 8007f1e:	f383 8811 	msr	BASEPRI, r3
 8007f22:	f3bf 8f6f 	isb	sy
 8007f26:	f3bf 8f4f 	dsb	sy
 8007f2a:	e7fe      	b.n	8007f2a <xQueueGenericSend+0x1e>
 8007f2c:	b951      	cbnz	r1, 8007f44 <xQueueGenericSend+0x38>
 8007f2e:	6c03      	ldr	r3, [r0, #64]	; 0x40
 8007f30:	b143      	cbz	r3, 8007f44 <xQueueGenericSend+0x38>
 8007f32:	f04f 0350 	mov.w	r3, #80	; 0x50
 8007f36:	f383 8811 	msr	BASEPRI, r3
 8007f3a:	f3bf 8f6f 	isb	sy
 8007f3e:	f3bf 8f4f 	dsb	sy
 8007f42:	e7fe      	b.n	8007f42 <xQueueGenericSend+0x36>
 8007f44:	2f02      	cmp	r7, #2
 8007f46:	d10b      	bne.n	8007f60 <xQueueGenericSend+0x54>
 8007f48:	6be3      	ldr	r3, [r4, #60]	; 0x3c
 8007f4a:	2b01      	cmp	r3, #1
 8007f4c:	d008      	beq.n	8007f60 <xQueueGenericSend+0x54>
 8007f4e:	f04f 0350 	mov.w	r3, #80	; 0x50
 8007f52:	f383 8811 	msr	BASEPRI, r3
 8007f56:	f3bf 8f6f 	isb	sy
 8007f5a:	f3bf 8f4f 	dsb	sy
 8007f5e:	e7fe      	b.n	8007f5e <xQueueGenericSend+0x52>
 8007f60:	f000 fe02 	bl	8008b68 <xTaskGetSchedulerState>
 8007f64:	4606      	mov	r6, r0
 8007f66:	b950      	cbnz	r0, 8007f7e <xQueueGenericSend+0x72>
 8007f68:	9b01      	ldr	r3, [sp, #4]
 8007f6a:	b14b      	cbz	r3, 8007f80 <xQueueGenericSend+0x74>
 8007f6c:	f04f 0350 	mov.w	r3, #80	; 0x50
 8007f70:	f383 8811 	msr	BASEPRI, r3
 8007f74:	f3bf 8f6f 	isb	sy
 8007f78:	f3bf 8f4f 	dsb	sy
 8007f7c:	e7fe      	b.n	8007f7c <xQueueGenericSend+0x70>
 8007f7e:	2600      	movs	r6, #0
 8007f80:	f8df a0e8 	ldr.w	sl, [pc, #232]	; 800806c <xQueueGenericSend+0x160>
 8007f84:	f04f 0900 	mov.w	r9, #0
 8007f88:	e037      	b.n	8007ffa <xQueueGenericSend+0xee>
 8007f8a:	9d01      	ldr	r5, [sp, #4]
 8007f8c:	b91d      	cbnz	r5, 8007f96 <xQueueGenericSend+0x8a>
 8007f8e:	f000 ff8b 	bl	8008ea8 <vPortExitCritical>
 8007f92:	2000      	movs	r0, #0
 8007f94:	e050      	b.n	8008038 <xQueueGenericSend+0x12c>
 8007f96:	b916      	cbnz	r6, 8007f9e <xQueueGenericSend+0x92>
 8007f98:	a802      	add	r0, sp, #8
 8007f9a:	f000 fd97 	bl	8008acc <vTaskInternalSetTimeOutState>
 8007f9e:	f000 ff83 	bl	8008ea8 <vPortExitCritical>
 8007fa2:	f000 fbdd 	bl	8008760 <vTaskSuspendAll>
 8007fa6:	f000 ff5d 	bl	8008e64 <vPortEnterCritical>
 8007faa:	f894 3044 	ldrb.w	r3, [r4, #68]	; 0x44
 8007fae:	2bff      	cmp	r3, #255	; 0xff
 8007fb0:	bf08      	it	eq
 8007fb2:	f884 9044 	strbeq.w	r9, [r4, #68]	; 0x44
 8007fb6:	f894 3045 	ldrb.w	r3, [r4, #69]	; 0x45
 8007fba:	2bff      	cmp	r3, #255	; 0xff
 8007fbc:	bf08      	it	eq
 8007fbe:	f884 9045 	strbeq.w	r9, [r4, #69]	; 0x45
 8007fc2:	f000 ff71 	bl	8008ea8 <vPortExitCritical>
 8007fc6:	a901      	add	r1, sp, #4
 8007fc8:	a802      	add	r0, sp, #8
 8007fca:	f000 fd8b 	bl	8008ae4 <xTaskCheckForTimeOut>
 8007fce:	2800      	cmp	r0, #0
 8007fd0:	d146      	bne.n	8008060 <xQueueGenericSend+0x154>
 8007fd2:	f000 ff47 	bl	8008e64 <vPortEnterCritical>
 8007fd6:	6ba2      	ldr	r2, [r4, #56]	; 0x38
 8007fd8:	6be3      	ldr	r3, [r4, #60]	; 0x3c
 8007fda:	429a      	cmp	r2, r3
 8007fdc:	d12f      	bne.n	800803e <xQueueGenericSend+0x132>
 8007fde:	f000 ff63 	bl	8008ea8 <vPortExitCritical>
 8007fe2:	9901      	ldr	r1, [sp, #4]
 8007fe4:	f104 0010 	add.w	r0, r4, #16
 8007fe8:	f000 fd12 	bl	8008a10 <vTaskPlaceOnEventList>
 8007fec:	4620      	mov	r0, r4
 8007fee:	f7ff fecb 	bl	8007d88 <prvUnlockQueue>
 8007ff2:	f000 fc5b 	bl	80088ac <xTaskResumeAll>
 8007ff6:	b350      	cbz	r0, 800804e <xQueueGenericSend+0x142>
 8007ff8:	2601      	movs	r6, #1
 8007ffa:	f000 ff33 	bl	8008e64 <vPortEnterCritical>
 8007ffe:	6ba2      	ldr	r2, [r4, #56]	; 0x38
 8008000:	6be3      	ldr	r3, [r4, #60]	; 0x3c
 8008002:	429a      	cmp	r2, r3
 8008004:	d301      	bcc.n	800800a <xQueueGenericSend+0xfe>
 8008006:	2f02      	cmp	r7, #2
 8008008:	d1bf      	bne.n	8007f8a <xQueueGenericSend+0x7e>
 800800a:	463a      	mov	r2, r7
 800800c:	4641      	mov	r1, r8
 800800e:	4620      	mov	r0, r4
 8008010:	f7ff fe85 	bl	8007d1e <prvCopyDataToQueue>
 8008014:	6a63      	ldr	r3, [r4, #36]	; 0x24
 8008016:	b11b      	cbz	r3, 8008020 <xQueueGenericSend+0x114>
 8008018:	f104 0024 	add.w	r0, r4, #36	; 0x24
 800801c:	f000 fd12 	bl	8008a44 <xTaskRemoveFromEventList>
 8008020:	b138      	cbz	r0, 8008032 <xQueueGenericSend+0x126>
 8008022:	4b12      	ldr	r3, [pc, #72]	; (800806c <xQueueGenericSend+0x160>)
 8008024:	f04f 5280 	mov.w	r2, #268435456	; 0x10000000
 8008028:	601a      	str	r2, [r3, #0]
 800802a:	f3bf 8f4f 	dsb	sy
 800802e:	f3bf 8f6f 	isb	sy
 8008032:	f000 ff39 	bl	8008ea8 <vPortExitCritical>
 8008036:	2001      	movs	r0, #1
 8008038:	b004      	add	sp, #16
 800803a:	e8bd 87f0 	ldmia.w	sp!, {r4, r5, r6, r7, r8, r9, sl, pc}
 800803e:	f000 ff33 	bl	8008ea8 <vPortExitCritical>
 8008042:	4620      	mov	r0, r4
 8008044:	f7ff fea0 	bl	8007d88 <prvUnlockQueue>
 8008048:	f000 fc30 	bl	80088ac <xTaskResumeAll>
 800804c:	e7d4      	b.n	8007ff8 <xQueueGenericSend+0xec>
 800804e:	f04f 5380 	mov.w	r3, #268435456	; 0x10000000
 8008052:	f8ca 3000 	str.w	r3, [sl]
 8008056:	f3bf 8f4f 	dsb	sy
 800805a:	f3bf 8f6f 	isb	sy
 800805e:	e7cb      	b.n	8007ff8 <xQueueGenericSend+0xec>
 8008060:	4620      	mov	r0, r4
 8008062:	f7ff fe91 	bl	8007d88 <prvUnlockQueue>
 8008066:	f000 fc21 	bl	80088ac <xTaskResumeAll>
 800806a:	e792      	b.n	8007f92 <xQueueGenericSend+0x86>
 800806c:	e000ed04 	.word	0xe000ed04

08008070 <xQueueCreateMutexStatic>:
 8008070:	b513      	push	{r0, r1, r4, lr}
 8008072:	2200      	movs	r2, #0
 8008074:	460b      	mov	r3, r1
 8008076:	9000      	str	r0, [sp, #0]
 8008078:	4611      	mov	r1, r2
 800807a:	2001      	movs	r0, #1
 800807c:	f7ff fefc 	bl	8007e78 <xQueueGenericCreateStatic>
 8008080:	4604      	mov	r4, r0
 8008082:	b138      	cbz	r0, 8008094 <xQueueCreateMutexStatic+0x24>
 8008084:	2300      	movs	r3, #0
 8008086:	6083      	str	r3, [r0, #8]
 8008088:	6003      	str	r3, [r0, #0]
 800808a:	60c3      	str	r3, [r0, #12]
 800808c:	461a      	mov	r2, r3
 800808e:	4619      	mov	r1, r3
 8008090:	f7ff ff3c 	bl	8007f0c <xQueueGenericSend>
 8008094:	4620      	mov	r0, r4
 8008096:	b002      	add	sp, #8
 8008098:	bd10      	pop	{r4, pc}

0800809a <xQueueGiveFromISR>:
 800809a:	b570      	push	{r4, r5, r6, lr}
 800809c:	460d      	mov	r5, r1
 800809e:	4604      	mov	r4, r0
 80080a0:	b940      	cbnz	r0, 80080b4 <xQueueGiveFromISR+0x1a>
 80080a2:	f04f 0350 	mov.w	r3, #80	; 0x50
 80080a6:	f383 8811 	msr	BASEPRI, r3
 80080aa:	f3bf 8f6f 	isb	sy
 80080ae:	f3bf 8f4f 	dsb	sy
 80080b2:	e7fe      	b.n	80080b2 <xQueueGiveFromISR+0x18>
 80080b4:	6c03      	ldr	r3, [r0, #64]	; 0x40
 80080b6:	b143      	cbz	r3, 80080ca <xQueueGiveFromISR+0x30>
 80080b8:	f04f 0350 	mov.w	r3, #80	; 0x50
 80080bc:	f383 8811 	msr	BASEPRI, r3
 80080c0:	f3bf 8f6f 	isb	sy
 80080c4:	f3bf 8f4f 	dsb	sy
 80080c8:	e7fe      	b.n	80080c8 <xQueueGiveFromISR+0x2e>
 80080ca:	6803      	ldr	r3, [r0, #0]
 80080cc:	b953      	cbnz	r3, 80080e4 <xQueueGiveFromISR+0x4a>
 80080ce:	6883      	ldr	r3, [r0, #8]
 80080d0:	b143      	cbz	r3, 80080e4 <xQueueGiveFromISR+0x4a>
 80080d2:	f04f 0350 	mov.w	r3, #80	; 0x50
 80080d6:	f383 8811 	msr	BASEPRI, r3
 80080da:	f3bf 8f6f 	isb	sy
 80080de:	f3bf 8f4f 	dsb	sy
 80080e2:	e7fe      	b.n	80080e2 <xQueueGiveFromISR+0x48>
 80080e4:	f000 ffda 	bl	800909c <vPortValidateInterruptPriority>
 80080e8:	f3ef 8611 	mrs	r6, BASEPRI
 80080ec:	f04f 0350 	mov.w	r3, #80	; 0x50
 80080f0:	f383 8811 	msr	BASEPRI, r3
 80080f4:	f3bf 8f6f 	isb	sy
 80080f8:	f3bf 8f4f 	dsb	sy
 80080fc:	6ba2      	ldr	r2, [r4, #56]	; 0x38
 80080fe:	6be3      	ldr	r3, [r4, #60]	; 0x3c
 8008100:	4293      	cmp	r3, r2
 8008102:	d91c      	bls.n	800813e <xQueueGiveFromISR+0xa4>
 8008104:	f894 1045 	ldrb.w	r1, [r4, #69]	; 0x45
 8008108:	3201      	adds	r2, #1
 800810a:	29ff      	cmp	r1, #255	; 0xff
 800810c:	b24b      	sxtb	r3, r1
 800810e:	63a2      	str	r2, [r4, #56]	; 0x38
 8008110:	d110      	bne.n	8008134 <xQueueGiveFromISR+0x9a>
 8008112:	6a63      	ldr	r3, [r4, #36]	; 0x24
 8008114:	b90b      	cbnz	r3, 800811a <xQueueGiveFromISR+0x80>
 8008116:	2001      	movs	r0, #1
 8008118:	e009      	b.n	800812e <xQueueGiveFromISR+0x94>
 800811a:	f104 0024 	add.w	r0, r4, #36	; 0x24
 800811e:	f000 fc91 	bl	8008a44 <xTaskRemoveFromEventList>
 8008122:	2800      	cmp	r0, #0
 8008124:	d0f7      	beq.n	8008116 <xQueueGiveFromISR+0x7c>
 8008126:	2d00      	cmp	r5, #0
 8008128:	d0f5      	beq.n	8008116 <xQueueGiveFromISR+0x7c>
 800812a:	2001      	movs	r0, #1
 800812c:	6028      	str	r0, [r5, #0]
 800812e:	f386 8811 	msr	BASEPRI, r6
 8008132:	bd70      	pop	{r4, r5, r6, pc}
 8008134:	3301      	adds	r3, #1
 8008136:	b25b      	sxtb	r3, r3
 8008138:	f884 3045 	strb.w	r3, [r4, #69]	; 0x45
 800813c:	e7eb      	b.n	8008116 <xQueueGiveFromISR+0x7c>
 800813e:	2000      	movs	r0, #0
 8008140:	e7f5      	b.n	800812e <xQueueGiveFromISR+0x94>
	...

08008144 <xQueueSemaphoreTake>:
 8008144:	e92d 41ff 	stmdb	sp!, {r0, r1, r2, r3, r4, r5, r6, r7, r8, lr}
 8008148:	4604      	mov	r4, r0
 800814a:	9101      	str	r1, [sp, #4]
 800814c:	b940      	cbnz	r0, 8008160 <xQueueSemaphoreTake+0x1c>
 800814e:	f04f 0350 	mov.w	r3, #80	; 0x50
 8008152:	f383 8811 	msr	BASEPRI, r3
 8008156:	f3bf 8f6f 	isb	sy
 800815a:	f3bf 8f4f 	dsb	sy
 800815e:	e7fe      	b.n	800815e <xQueueSemaphoreTake+0x1a>
 8008160:	6c05      	ldr	r5, [r0, #64]	; 0x40
 8008162:	b145      	cbz	r5, 8008176 <xQueueSemaphoreTake+0x32>
 8008164:	f04f 0350 	mov.w	r3, #80	; 0x50
 8008168:	f383 8811 	msr	BASEPRI, r3
 800816c:	f3bf 8f6f 	isb	sy
 8008170:	f3bf 8f4f 	dsb	sy
 8008174:	e7fe      	b.n	8008174 <xQueueSemaphoreTake+0x30>
 8008176:	f000 fcf7 	bl	8008b68 <xTaskGetSchedulerState>
 800817a:	4606      	mov	r6, r0
 800817c:	b950      	cbnz	r0, 8008194 <xQueueSemaphoreTake+0x50>
 800817e:	9b01      	ldr	r3, [sp, #4]
 8008180:	b16b      	cbz	r3, 800819e <xQueueSemaphoreTake+0x5a>
 8008182:	f04f 0350 	mov.w	r3, #80	; 0x50
 8008186:	f383 8811 	msr	BASEPRI, r3
 800818a:	f3bf 8f6f 	isb	sy
 800818e:	f3bf 8f4f 	dsb	sy
 8008192:	e7fe      	b.n	8008192 <xQueueSemaphoreTake+0x4e>
 8008194:	462e      	mov	r6, r5
 8008196:	f8df 8130 	ldr.w	r8, [pc, #304]	; 80082c8 <xQueueSemaphoreTake+0x184>
 800819a:	2700      	movs	r7, #0
 800819c:	e051      	b.n	8008242 <xQueueSemaphoreTake+0xfe>
 800819e:	4605      	mov	r5, r0
 80081a0:	e7f9      	b.n	8008196 <xQueueSemaphoreTake+0x52>
 80081a2:	9b01      	ldr	r3, [sp, #4]
 80081a4:	b963      	cbnz	r3, 80081c0 <xQueueSemaphoreTake+0x7c>
 80081a6:	b145      	cbz	r5, 80081ba <xQueueSemaphoreTake+0x76>
 80081a8:	f04f 0350 	mov.w	r3, #80	; 0x50
 80081ac:	f383 8811 	msr	BASEPRI, r3
 80081b0:	f3bf 8f6f 	isb	sy
 80081b4:	f3bf 8f4f 	dsb	sy
 80081b8:	e7fe      	b.n	80081b8 <xQueueSemaphoreTake+0x74>
 80081ba:	f000 fe75 	bl	8008ea8 <vPortExitCritical>
 80081be:	e05e      	b.n	800827e <xQueueSemaphoreTake+0x13a>
 80081c0:	b916      	cbnz	r6, 80081c8 <xQueueSemaphoreTake+0x84>
 80081c2:	a802      	add	r0, sp, #8
 80081c4:	f000 fc82 	bl	8008acc <vTaskInternalSetTimeOutState>
 80081c8:	f000 fe6e 	bl	8008ea8 <vPortExitCritical>
 80081cc:	f000 fac8 	bl	8008760 <vTaskSuspendAll>
 80081d0:	f000 fe48 	bl	8008e64 <vPortEnterCritical>
 80081d4:	f894 3044 	ldrb.w	r3, [r4, #68]	; 0x44
 80081d8:	2bff      	cmp	r3, #255	; 0xff
 80081da:	bf08      	it	eq
 80081dc:	f884 7044 	strbeq.w	r7, [r4, #68]	; 0x44
 80081e0:	f894 3045 	ldrb.w	r3, [r4, #69]	; 0x45
 80081e4:	2bff      	cmp	r3, #255	; 0xff
 80081e6:	bf08      	it	eq
 80081e8:	f884 7045 	strbeq.w	r7, [r4, #69]	; 0x45
 80081ec:	f000 fe5c 	bl	8008ea8 <vPortExitCritical>
 80081f0:	a901      	add	r1, sp, #4
 80081f2:	a802      	add	r0, sp, #8
 80081f4:	f000 fc76 	bl	8008ae4 <xTaskCheckForTimeOut>
 80081f8:	2800      	cmp	r0, #0
 80081fa:	d14a      	bne.n	8008292 <xQueueSemaphoreTake+0x14e>
 80081fc:	4620      	mov	r0, r4
 80081fe:	f7ff fd83 	bl	8007d08 <prvIsQueueEmpty>
 8008202:	2800      	cmp	r0, #0
 8008204:	d03f      	beq.n	8008286 <xQueueSemaphoreTake+0x142>
 8008206:	6823      	ldr	r3, [r4, #0]
 8008208:	b93b      	cbnz	r3, 800821a <xQueueSemaphoreTake+0xd6>
 800820a:	f000 fe2b 	bl	8008e64 <vPortEnterCritical>
 800820e:	68a0      	ldr	r0, [r4, #8]
 8008210:	f000 fcba 	bl	8008b88 <xTaskPriorityInherit>
 8008214:	4605      	mov	r5, r0
 8008216:	f000 fe47 	bl	8008ea8 <vPortExitCritical>
 800821a:	9901      	ldr	r1, [sp, #4]
 800821c:	f104 0024 	add.w	r0, r4, #36	; 0x24
 8008220:	f000 fbf6 	bl	8008a10 <vTaskPlaceOnEventList>
 8008224:	4620      	mov	r0, r4
 8008226:	f7ff fdaf 	bl	8007d88 <prvUnlockQueue>
 800822a:	f000 fb3f 	bl	80088ac <xTaskResumeAll>
 800822e:	b938      	cbnz	r0, 8008240 <xQueueSemaphoreTake+0xfc>
 8008230:	f04f 5380 	mov.w	r3, #268435456	; 0x10000000
 8008234:	f8c8 3000 	str.w	r3, [r8]
 8008238:	f3bf 8f4f 	dsb	sy
 800823c:	f3bf 8f6f 	isb	sy
 8008240:	2601      	movs	r6, #1
 8008242:	f000 fe0f 	bl	8008e64 <vPortEnterCritical>
 8008246:	6ba3      	ldr	r3, [r4, #56]	; 0x38
 8008248:	2b00      	cmp	r3, #0
 800824a:	d0aa      	beq.n	80081a2 <xQueueSemaphoreTake+0x5e>
 800824c:	3b01      	subs	r3, #1
 800824e:	63a3      	str	r3, [r4, #56]	; 0x38
 8008250:	6823      	ldr	r3, [r4, #0]
 8008252:	b913      	cbnz	r3, 800825a <xQueueSemaphoreTake+0x116>
 8008254:	f000 fd90 	bl	8008d78 <pvTaskIncrementMutexHeldCount>
 8008258:	60a0      	str	r0, [r4, #8]
 800825a:	6923      	ldr	r3, [r4, #16]
 800825c:	b163      	cbz	r3, 8008278 <xQueueSemaphoreTake+0x134>
 800825e:	f104 0010 	add.w	r0, r4, #16
 8008262:	f000 fbef 	bl	8008a44 <xTaskRemoveFromEventList>
 8008266:	b138      	cbz	r0, 8008278 <xQueueSemaphoreTake+0x134>
 8008268:	4b17      	ldr	r3, [pc, #92]	; (80082c8 <xQueueSemaphoreTake+0x184>)
 800826a:	f04f 5280 	mov.w	r2, #268435456	; 0x10000000
 800826e:	601a      	str	r2, [r3, #0]
 8008270:	f3bf 8f4f 	dsb	sy
 8008274:	f3bf 8f6f 	isb	sy
 8008278:	f000 fe16 	bl	8008ea8 <vPortExitCritical>
 800827c:	2501      	movs	r5, #1
 800827e:	4628      	mov	r0, r5
 8008280:	b004      	add	sp, #16
 8008282:	e8bd 81f0 	ldmia.w	sp!, {r4, r5, r6, r7, r8, pc}
 8008286:	4620      	mov	r0, r4
 8008288:	f7ff fd7e 	bl	8007d88 <prvUnlockQueue>
 800828c:	f000 fb0e 	bl	80088ac <xTaskResumeAll>
 8008290:	e7d6      	b.n	8008240 <xQueueSemaphoreTake+0xfc>
 8008292:	4620      	mov	r0, r4
 8008294:	f7ff fd78 	bl	8007d88 <prvUnlockQueue>
 8008298:	f000 fb08 	bl	80088ac <xTaskResumeAll>
 800829c:	4620      	mov	r0, r4
 800829e:	f7ff fd33 	bl	8007d08 <prvIsQueueEmpty>
 80082a2:	2800      	cmp	r0, #0
 80082a4:	d0cc      	beq.n	8008240 <xQueueSemaphoreTake+0xfc>
 80082a6:	2d00      	cmp	r5, #0
 80082a8:	d0e9      	beq.n	800827e <xQueueSemaphoreTake+0x13a>
 80082aa:	f000 fddb 	bl	8008e64 <vPortEnterCritical>
 80082ae:	6a61      	ldr	r1, [r4, #36]	; 0x24
 80082b0:	b119      	cbz	r1, 80082ba <xQueueSemaphoreTake+0x176>
 80082b2:	6b23      	ldr	r3, [r4, #48]	; 0x30
 80082b4:	6819      	ldr	r1, [r3, #0]
 80082b6:	f1c1 0107 	rsb	r1, r1, #7
 80082ba:	68a0      	ldr	r0, [r4, #8]
 80082bc:	f000 fd04 	bl	8008cc8 <vTaskPriorityDisinheritAfterTimeout>
 80082c0:	2500      	movs	r5, #0
 80082c2:	f000 fdf1 	bl	8008ea8 <vPortExitCritical>
 80082c6:	e7da      	b.n	800827e <xQueueSemaphoreTake+0x13a>
 80082c8:	e000ed04 	.word	0xe000ed04

080082cc <vQueueUnregisterQueue>:
 80082cc:	b510      	push	{r4, lr}
 80082ce:	4909      	ldr	r1, [pc, #36]	; (80082f4 <vQueueUnregisterQueue+0x28>)
 80082d0:	2300      	movs	r3, #0
 80082d2:	f851 2033 	ldr.w	r2, [r1, r3, lsl #3]
 80082d6:	4282      	cmp	r2, r0
 80082d8:	ea4f 04c3 	mov.w	r4, r3, lsl #3
 80082dc:	d106      	bne.n	80082ec <vQueueUnregisterQueue+0x20>
 80082de:	4a06      	ldr	r2, [pc, #24]	; (80082f8 <vQueueUnregisterQueue+0x2c>)
 80082e0:	2100      	movs	r1, #0
 80082e2:	f842 1033 	str.w	r1, [r2, r3, lsl #3]
 80082e6:	4422      	add	r2, r4
 80082e8:	6051      	str	r1, [r2, #4]
 80082ea:	bd10      	pop	{r4, pc}
 80082ec:	3301      	adds	r3, #1
 80082ee:	2b08      	cmp	r3, #8
 80082f0:	d1ef      	bne.n	80082d2 <vQueueUnregisterQueue+0x6>
 80082f2:	e7fa      	b.n	80082ea <vQueueUnregisterQueue+0x1e>
 80082f4:	2000ad50 	.word	0x2000ad50
 80082f8:	2000ad4c 	.word	0x2000ad4c

080082fc <vQueueDelete>:
 80082fc:	b510      	push	{r4, lr}
 80082fe:	b940      	cbnz	r0, 8008312 <vQueueDelete+0x16>
 8008300:	f04f 0350 	mov.w	r3, #80	; 0x50
 8008304:	f383 8811 	msr	BASEPRI, r3
 8008308:	f3bf 8f6f 	isb	sy
 800830c:	f3bf 8f4f 	dsb	sy
 8008310:	e7fe      	b.n	8008310 <vQueueDelete+0x14>
 8008312:	f7ff ffdb 	bl	80082cc <vQueueUnregisterQueue>
 8008316:	f890 3046 	ldrb.w	r3, [r0, #70]	; 0x46
 800831a:	b91b      	cbnz	r3, 8008324 <vQueueDelete+0x28>
 800831c:	e8bd 4010 	ldmia.w	sp!, {r4, lr}
 8008320:	f000 bfa0 	b.w	8009264 <vPortFree>
 8008324:	bd10      	pop	{r4, pc}
	...

08008328 <prvAddNewTaskToReadyList>:
 8008328:	e92d 41f0 	stmdb	sp!, {r4, r5, r6, r7, r8, lr}
 800832c:	4604      	mov	r4, r0
 800832e:	f000 fd99 	bl	8008e64 <vPortEnterCritical>
 8008332:	4b34      	ldr	r3, [pc, #208]	; (8008404 <prvAddNewTaskToReadyList+0xdc>)
 8008334:	4d34      	ldr	r5, [pc, #208]	; (8008408 <prvAddNewTaskToReadyList+0xe0>)
 8008336:	681a      	ldr	r2, [r3, #0]
 8008338:	4e34      	ldr	r6, [pc, #208]	; (800840c <prvAddNewTaskToReadyList+0xe4>)
 800833a:	3201      	adds	r2, #1
 800833c:	601a      	str	r2, [r3, #0]
 800833e:	682a      	ldr	r2, [r5, #0]
 8008340:	2a00      	cmp	r2, #0
 8008342:	d154      	bne.n	80083ee <prvAddNewTaskToReadyList+0xc6>
 8008344:	602c      	str	r4, [r5, #0]
 8008346:	681b      	ldr	r3, [r3, #0]
 8008348:	2b01      	cmp	r3, #1
 800834a:	d12b      	bne.n	80083a4 <prvAddNewTaskToReadyList+0x7c>
 800834c:	4830      	ldr	r0, [pc, #192]	; (8008410 <prvAddNewTaskToReadyList+0xe8>)
 800834e:	f8df 8100 	ldr.w	r8, [pc, #256]	; 8008450 <prvAddNewTaskToReadyList+0x128>
 8008352:	4f30      	ldr	r7, [pc, #192]	; (8008414 <prvAddNewTaskToReadyList+0xec>)
 8008354:	f7ff fc97 	bl	8007c86 <vListInitialise>
 8008358:	482f      	ldr	r0, [pc, #188]	; (8008418 <prvAddNewTaskToReadyList+0xf0>)
 800835a:	f7ff fc94 	bl	8007c86 <vListInitialise>
 800835e:	482f      	ldr	r0, [pc, #188]	; (800841c <prvAddNewTaskToReadyList+0xf4>)
 8008360:	f7ff fc91 	bl	8007c86 <vListInitialise>
 8008364:	482e      	ldr	r0, [pc, #184]	; (8008420 <prvAddNewTaskToReadyList+0xf8>)
 8008366:	f7ff fc8e 	bl	8007c86 <vListInitialise>
 800836a:	482e      	ldr	r0, [pc, #184]	; (8008424 <prvAddNewTaskToReadyList+0xfc>)
 800836c:	f7ff fc8b 	bl	8007c86 <vListInitialise>
 8008370:	482d      	ldr	r0, [pc, #180]	; (8008428 <prvAddNewTaskToReadyList+0x100>)
 8008372:	f7ff fc88 	bl	8007c86 <vListInitialise>
 8008376:	482d      	ldr	r0, [pc, #180]	; (800842c <prvAddNewTaskToReadyList+0x104>)
 8008378:	f7ff fc85 	bl	8007c86 <vListInitialise>
 800837c:	4640      	mov	r0, r8
 800837e:	f7ff fc82 	bl	8007c86 <vListInitialise>
 8008382:	4638      	mov	r0, r7
 8008384:	f7ff fc7f 	bl	8007c86 <vListInitialise>
 8008388:	4829      	ldr	r0, [pc, #164]	; (8008430 <prvAddNewTaskToReadyList+0x108>)
 800838a:	f7ff fc7c 	bl	8007c86 <vListInitialise>
 800838e:	4829      	ldr	r0, [pc, #164]	; (8008434 <prvAddNewTaskToReadyList+0x10c>)
 8008390:	f7ff fc79 	bl	8007c86 <vListInitialise>
 8008394:	4828      	ldr	r0, [pc, #160]	; (8008438 <prvAddNewTaskToReadyList+0x110>)
 8008396:	f7ff fc76 	bl	8007c86 <vListInitialise>
 800839a:	4b28      	ldr	r3, [pc, #160]	; (800843c <prvAddNewTaskToReadyList+0x114>)
 800839c:	f8c3 8000 	str.w	r8, [r3]
 80083a0:	4b27      	ldr	r3, [pc, #156]	; (8008440 <prvAddNewTaskToReadyList+0x118>)
 80083a2:	601f      	str	r7, [r3, #0]
 80083a4:	4a27      	ldr	r2, [pc, #156]	; (8008444 <prvAddNewTaskToReadyList+0x11c>)
 80083a6:	4928      	ldr	r1, [pc, #160]	; (8008448 <prvAddNewTaskToReadyList+0x120>)
 80083a8:	6813      	ldr	r3, [r2, #0]
 80083aa:	6808      	ldr	r0, [r1, #0]
 80083ac:	3301      	adds	r3, #1
 80083ae:	6013      	str	r3, [r2, #0]
 80083b0:	6ae2      	ldr	r2, [r4, #44]	; 0x2c
 80083b2:	2301      	movs	r3, #1
 80083b4:	4093      	lsls	r3, r2
 80083b6:	4303      	orrs	r3, r0
 80083b8:	600b      	str	r3, [r1, #0]
 80083ba:	4b15      	ldr	r3, [pc, #84]	; (8008410 <prvAddNewTaskToReadyList+0xe8>)
 80083bc:	2014      	movs	r0, #20
 80083be:	fb00 3002 	mla	r0, r0, r2, r3
 80083c2:	1d21      	adds	r1, r4, #4
 80083c4:	f7ff fc6d 	bl	8007ca2 <vListInsertEnd>
 80083c8:	f000 fd6e 	bl	8008ea8 <vPortExitCritical>
 80083cc:	6833      	ldr	r3, [r6, #0]
 80083ce:	b163      	cbz	r3, 80083ea <prvAddNewTaskToReadyList+0xc2>
 80083d0:	682b      	ldr	r3, [r5, #0]
 80083d2:	6ada      	ldr	r2, [r3, #44]	; 0x2c
 80083d4:	6ae3      	ldr	r3, [r4, #44]	; 0x2c
 80083d6:	429a      	cmp	r2, r3
 80083d8:	d207      	bcs.n	80083ea <prvAddNewTaskToReadyList+0xc2>
 80083da:	4b1c      	ldr	r3, [pc, #112]	; (800844c <prvAddNewTaskToReadyList+0x124>)
 80083dc:	f04f 5280 	mov.w	r2, #268435456	; 0x10000000
 80083e0:	601a      	str	r2, [r3, #0]
 80083e2:	f3bf 8f4f 	dsb	sy
 80083e6:	f3bf 8f6f 	isb	sy
 80083ea:	e8bd 81f0 	ldmia.w	sp!, {r4, r5, r6, r7, r8, pc}
 80083ee:	6833      	ldr	r3, [r6, #0]
 80083f0:	2b00      	cmp	r3, #0
 80083f2:	d1d7      	bne.n	80083a4 <prvAddNewTaskToReadyList+0x7c>
 80083f4:	682b      	ldr	r3, [r5, #0]
 80083f6:	6ada      	ldr	r2, [r3, #44]	; 0x2c
 80083f8:	6ae3      	ldr	r3, [r4, #44]	; 0x2c
 80083fa:	429a      	cmp	r2, r3
 80083fc:	bf98      	it	ls
 80083fe:	602c      	strls	r4, [r5, #0]
 8008400:	e7d0      	b.n	80083a4 <prvAddNewTaskToReadyList+0x7c>
 8008402:	bf00      	nop
 8008404:	200009ac 	.word	0x200009ac
 8008408:	20000914 	.word	0x20000914
 800840c:	20000a08 	.word	0x20000a08
 8008410:	20000920 	.word	0x20000920
 8008414:	200009d4 	.word	0x200009d4
 8008418:	20000934 	.word	0x20000934
 800841c:	20000948 	.word	0x20000948
 8008420:	2000095c 	.word	0x2000095c
 8008424:	20000970 	.word	0x20000970
 8008428:	20000984 	.word	0x20000984
 800842c:	20000998 	.word	0x20000998
 8008430:	200009f4 	.word	0x200009f4
 8008434:	20000a20 	.word	0x20000a20
 8008438:	20000a0c 	.word	0x20000a0c
 800843c:	20000918 	.word	0x20000918
 8008440:	2000091c 	.word	0x2000091c
 8008444:	200009b8 	.word	0x200009b8
 8008448:	200009bc 	.word	0x200009bc
 800844c:	e000ed04 	.word	0xe000ed04
 8008450:	200009c0 	.word	0x200009c0

08008454 <prvResetNextTaskUnblockTime>:
 8008454:	4a06      	ldr	r2, [pc, #24]	; (8008470 <prvResetNextTaskUnblockTime+0x1c>)
 8008456:	6813      	ldr	r3, [r2, #0]
 8008458:	6819      	ldr	r1, [r3, #0]
 800845a:	4b06      	ldr	r3, [pc, #24]	; (8008474 <prvResetNextTaskUnblockTime+0x20>)
 800845c:	b919      	cbnz	r1, 8008466 <prvResetNextTaskUnblockTime+0x12>
 800845e:	f04f 32ff 	mov.w	r2, #4294967295	; 0xffffffff
 8008462:	601a      	str	r2, [r3, #0]
 8008464:	4770      	bx	lr
 8008466:	6812      	ldr	r2, [r2, #0]
 8008468:	68d2      	ldr	r2, [r2, #12]
 800846a:	68d2      	ldr	r2, [r2, #12]
 800846c:	6852      	ldr	r2, [r2, #4]
 800846e:	e7f8      	b.n	8008462 <prvResetNextTaskUnblockTime+0xe>
 8008470:	20000918 	.word	0x20000918
 8008474:	200009e8 	.word	0x200009e8

08008478 <prvInitialiseNewTask.isra.0>:
 8008478:	e92d 47f0 	stmdb	sp!, {r4, r5, r6, r7, r8, r9, sl, lr}
 800847c:	e9dd 7409 	ldrd	r7, r4, [sp, #36]	; 0x24
 8008480:	4699      	mov	r9, r3
 8008482:	f102 4280 	add.w	r2, r2, #1073741824	; 0x40000000
 8008486:	6b23      	ldr	r3, [r4, #48]	; 0x30
 8008488:	3a01      	subs	r2, #1
 800848a:	eb03 0282 	add.w	r2, r3, r2, lsl #2
 800848e:	4606      	mov	r6, r0
 8008490:	f022 0807 	bic.w	r8, r2, #7
 8008494:	b391      	cbz	r1, 80084fc <prvInitialiseNewTask.isra.0+0x84>
 8008496:	1e4b      	subs	r3, r1, #1
 8008498:	f104 0234 	add.w	r2, r4, #52	; 0x34
 800849c:	310f      	adds	r1, #15
 800849e:	f813 0f01 	ldrb.w	r0, [r3, #1]!
 80084a2:	f802 0b01 	strb.w	r0, [r2], #1
 80084a6:	7818      	ldrb	r0, [r3, #0]
 80084a8:	b108      	cbz	r0, 80084ae <prvInitialiseNewTask.isra.0+0x36>
 80084aa:	428b      	cmp	r3, r1
 80084ac:	d1f7      	bne.n	800849e <prvInitialiseNewTask.isra.0+0x26>
 80084ae:	2300      	movs	r3, #0
 80084b0:	f884 3043 	strb.w	r3, [r4, #67]	; 0x43
 80084b4:	9d08      	ldr	r5, [sp, #32]
 80084b6:	2d06      	cmp	r5, #6
 80084b8:	bf28      	it	cs
 80084ba:	2506      	movcs	r5, #6
 80084bc:	f04f 0a00 	mov.w	sl, #0
 80084c0:	62e5      	str	r5, [r4, #44]	; 0x2c
 80084c2:	6465      	str	r5, [r4, #68]	; 0x44
 80084c4:	1d20      	adds	r0, r4, #4
 80084c6:	f8c4 a048 	str.w	sl, [r4, #72]	; 0x48
 80084ca:	f7ff fbe7 	bl	8007c9c <vListInitialiseItem>
 80084ce:	f1c5 0507 	rsb	r5, r5, #7
 80084d2:	f104 0018 	add.w	r0, r4, #24
 80084d6:	f7ff fbe1 	bl	8007c9c <vListInitialiseItem>
 80084da:	f8c4 a04c 	str.w	sl, [r4, #76]	; 0x4c
 80084de:	6124      	str	r4, [r4, #16]
 80084e0:	61a5      	str	r5, [r4, #24]
 80084e2:	6264      	str	r4, [r4, #36]	; 0x24
 80084e4:	f884 a050 	strb.w	sl, [r4, #80]	; 0x50
 80084e8:	464a      	mov	r2, r9
 80084ea:	4631      	mov	r1, r6
 80084ec:	4640      	mov	r0, r8
 80084ee:	f000 fc8d 	bl	8008e0c <pxPortInitialiseStack>
 80084f2:	6020      	str	r0, [r4, #0]
 80084f4:	b107      	cbz	r7, 80084f8 <prvInitialiseNewTask.isra.0+0x80>
 80084f6:	603c      	str	r4, [r7, #0]
 80084f8:	e8bd 87f0 	ldmia.w	sp!, {r4, r5, r6, r7, r8, r9, sl, pc}
 80084fc:	f884 1034 	strb.w	r1, [r4, #52]	; 0x34
 8008500:	e7d8      	b.n	80084b4 <prvInitialiseNewTask.isra.0+0x3c>

08008502 <prvDeleteTCB>:
 8008502:	b510      	push	{r4, lr}
 8008504:	f890 3051 	ldrb.w	r3, [r0, #81]	; 0x51
 8008508:	4604      	mov	r4, r0
 800850a:	b93b      	cbnz	r3, 800851c <prvDeleteTCB+0x1a>
 800850c:	6b00      	ldr	r0, [r0, #48]	; 0x30
 800850e:	f000 fea9 	bl	8009264 <vPortFree>
 8008512:	4620      	mov	r0, r4
 8008514:	e8bd 4010 	ldmia.w	sp!, {r4, lr}
 8008518:	f000 bea4 	b.w	8009264 <vPortFree>
 800851c:	2b01      	cmp	r3, #1
 800851e:	d0f9      	beq.n	8008514 <prvDeleteTCB+0x12>
 8008520:	2b02      	cmp	r3, #2
 8008522:	d008      	beq.n	8008536 <prvDeleteTCB+0x34>
 8008524:	f04f 0350 	mov.w	r3, #80	; 0x50
 8008528:	f383 8811 	msr	BASEPRI, r3
 800852c:	f3bf 8f6f 	isb	sy
 8008530:	f3bf 8f4f 	dsb	sy
 8008534:	e7fe      	b.n	8008534 <prvDeleteTCB+0x32>
 8008536:	bd10      	pop	{r4, pc}

08008538 <prvIdleTask>:
 8008538:	b580      	push	{r7, lr}
 800853a:	f8df 805c 	ldr.w	r8, [pc, #92]	; 8008598 <prvIdleTask+0x60>
 800853e:	4f12      	ldr	r7, [pc, #72]	; (8008588 <prvIdleTask+0x50>)
 8008540:	4c12      	ldr	r4, [pc, #72]	; (800858c <prvIdleTask+0x54>)
 8008542:	4d13      	ldr	r5, [pc, #76]	; (8008590 <prvIdleTask+0x58>)
 8008544:	6823      	ldr	r3, [r4, #0]
 8008546:	b963      	cbnz	r3, 8008562 <prvIdleTask+0x2a>
 8008548:	4b12      	ldr	r3, [pc, #72]	; (8008594 <prvIdleTask+0x5c>)
 800854a:	681b      	ldr	r3, [r3, #0]
 800854c:	2b01      	cmp	r3, #1
 800854e:	d9f8      	bls.n	8008542 <prvIdleTask+0xa>
 8008550:	f04f 5380 	mov.w	r3, #268435456	; 0x10000000
 8008554:	f8c8 3000 	str.w	r3, [r8]
 8008558:	f3bf 8f4f 	dsb	sy
 800855c:	f3bf 8f6f 	isb	sy
 8008560:	e7ee      	b.n	8008540 <prvIdleTask+0x8>
 8008562:	f000 fc7f 	bl	8008e64 <vPortEnterCritical>
 8008566:	68fb      	ldr	r3, [r7, #12]
 8008568:	68de      	ldr	r6, [r3, #12]
 800856a:	1d30      	adds	r0, r6, #4
 800856c:	f7ff fbbc 	bl	8007ce8 <uxListRemove>
 8008570:	682b      	ldr	r3, [r5, #0]
 8008572:	3b01      	subs	r3, #1
 8008574:	602b      	str	r3, [r5, #0]
 8008576:	6823      	ldr	r3, [r4, #0]
 8008578:	3b01      	subs	r3, #1
 800857a:	6023      	str	r3, [r4, #0]
 800857c:	f000 fc94 	bl	8008ea8 <vPortExitCritical>
 8008580:	4630      	mov	r0, r6
 8008582:	f7ff ffbe 	bl	8008502 <prvDeleteTCB>
 8008586:	e7dd      	b.n	8008544 <prvIdleTask+0xc>
 8008588:	20000a20 	.word	0x20000a20
 800858c:	200009b0 	.word	0x200009b0
 8008590:	200009ac 	.word	0x200009ac
 8008594:	20000920 	.word	0x20000920
 8008598:	e000ed04 	.word	0xe000ed04

0800859c <prvAddCurrentTaskToDelayedList>:
 800859c:	b5f8      	push	{r3, r4, r5, r6, r7, lr}
 800859e:	4b1b      	ldr	r3, [pc, #108]	; (800860c <prvAddCurrentTaskToDelayedList+0x70>)
 80085a0:	4f1b      	ldr	r7, [pc, #108]	; (8008610 <prvAddCurrentTaskToDelayedList+0x74>)
 80085a2:	681d      	ldr	r5, [r3, #0]
 80085a4:	4604      	mov	r4, r0
 80085a6:	6838      	ldr	r0, [r7, #0]
 80085a8:	3004      	adds	r0, #4
 80085aa:	460e      	mov	r6, r1
 80085ac:	f7ff fb9c 	bl	8007ce8 <uxListRemove>
 80085b0:	463b      	mov	r3, r7
 80085b2:	b940      	cbnz	r0, 80085c6 <prvAddCurrentTaskToDelayedList+0x2a>
 80085b4:	6839      	ldr	r1, [r7, #0]
 80085b6:	4817      	ldr	r0, [pc, #92]	; (8008614 <prvAddCurrentTaskToDelayedList+0x78>)
 80085b8:	6acf      	ldr	r7, [r1, #44]	; 0x2c
 80085ba:	6802      	ldr	r2, [r0, #0]
 80085bc:	2101      	movs	r1, #1
 80085be:	40b9      	lsls	r1, r7
 80085c0:	ea22 0201 	bic.w	r2, r2, r1
 80085c4:	6002      	str	r2, [r0, #0]
 80085c6:	1c62      	adds	r2, r4, #1
 80085c8:	d107      	bne.n	80085da <prvAddCurrentTaskToDelayedList+0x3e>
 80085ca:	b136      	cbz	r6, 80085da <prvAddCurrentTaskToDelayedList+0x3e>
 80085cc:	6819      	ldr	r1, [r3, #0]
 80085ce:	4812      	ldr	r0, [pc, #72]	; (8008618 <prvAddCurrentTaskToDelayedList+0x7c>)
 80085d0:	e8bd 40f8 	ldmia.w	sp!, {r3, r4, r5, r6, r7, lr}
 80085d4:	3104      	adds	r1, #4
 80085d6:	f7ff bb64 	b.w	8007ca2 <vListInsertEnd>
 80085da:	681a      	ldr	r2, [r3, #0]
 80085dc:	192c      	adds	r4, r5, r4
 80085de:	6054      	str	r4, [r2, #4]
 80085e0:	d307      	bcc.n	80085f2 <prvAddCurrentTaskToDelayedList+0x56>
 80085e2:	4a0e      	ldr	r2, [pc, #56]	; (800861c <prvAddCurrentTaskToDelayedList+0x80>)
 80085e4:	6810      	ldr	r0, [r2, #0]
 80085e6:	6819      	ldr	r1, [r3, #0]
 80085e8:	e8bd 40f8 	ldmia.w	sp!, {r3, r4, r5, r6, r7, lr}
 80085ec:	3104      	adds	r1, #4
 80085ee:	f7ff bb64 	b.w	8007cba <vListInsert>
 80085f2:	4a0b      	ldr	r2, [pc, #44]	; (8008620 <prvAddCurrentTaskToDelayedList+0x84>)
 80085f4:	6810      	ldr	r0, [r2, #0]
 80085f6:	6819      	ldr	r1, [r3, #0]
 80085f8:	3104      	adds	r1, #4
 80085fa:	f7ff fb5e 	bl	8007cba <vListInsert>
 80085fe:	4b09      	ldr	r3, [pc, #36]	; (8008624 <prvAddCurrentTaskToDelayedList+0x88>)
 8008600:	681a      	ldr	r2, [r3, #0]
 8008602:	42a2      	cmp	r2, r4
 8008604:	bf88      	it	hi
 8008606:	601c      	strhi	r4, [r3, #0]
 8008608:	bdf8      	pop	{r3, r4, r5, r6, r7, pc}
 800860a:	bf00      	nop
 800860c:	20000a34 	.word	0x20000a34
 8008610:	20000914 	.word	0x20000914
 8008614:	200009bc 	.word	0x200009bc
 8008618:	20000a0c 	.word	0x20000a0c
 800861c:	2000091c 	.word	0x2000091c
 8008620:	20000918 	.word	0x20000918
 8008624:	200009e8 	.word	0x200009e8

08008628 <xTaskCreateStatic>:
 8008628:	b570      	push	{r4, r5, r6, lr}
 800862a:	b086      	sub	sp, #24
 800862c:	e9dd 540b 	ldrd	r5, r4, [sp, #44]	; 0x2c
 8008630:	b945      	cbnz	r5, 8008644 <xTaskCreateStatic+0x1c>
 8008632:	f04f 0350 	mov.w	r3, #80	; 0x50
 8008636:	f383 8811 	msr	BASEPRI, r3
 800863a:	f3bf 8f6f 	isb	sy
 800863e:	f3bf 8f4f 	dsb	sy
 8008642:	e7fe      	b.n	8008642 <xTaskCreateStatic+0x1a>
 8008644:	b944      	cbnz	r4, 8008658 <xTaskCreateStatic+0x30>
 8008646:	f04f 0350 	mov.w	r3, #80	; 0x50
 800864a:	f383 8811 	msr	BASEPRI, r3
 800864e:	f3bf 8f6f 	isb	sy
 8008652:	f3bf 8f4f 	dsb	sy
 8008656:	e7fe      	b.n	8008656 <xTaskCreateStatic+0x2e>
 8008658:	2654      	movs	r6, #84	; 0x54
 800865a:	9605      	str	r6, [sp, #20]
 800865c:	9e05      	ldr	r6, [sp, #20]
 800865e:	2e54      	cmp	r6, #84	; 0x54
 8008660:	d008      	beq.n	8008674 <xTaskCreateStatic+0x4c>
 8008662:	f04f 0350 	mov.w	r3, #80	; 0x50
 8008666:	f383 8811 	msr	BASEPRI, r3
 800866a:	f3bf 8f6f 	isb	sy
 800866e:	f3bf 8f4f 	dsb	sy
 8008672:	e7fe      	b.n	8008672 <xTaskCreateStatic+0x4a>
 8008674:	6325      	str	r5, [r4, #48]	; 0x30
 8008676:	2502      	movs	r5, #2
 8008678:	f884 5051 	strb.w	r5, [r4, #81]	; 0x51
 800867c:	ad04      	add	r5, sp, #16
 800867e:	9501      	str	r5, [sp, #4]
 8008680:	9d0a      	ldr	r5, [sp, #40]	; 0x28
 8008682:	9402      	str	r4, [sp, #8]
 8008684:	9500      	str	r5, [sp, #0]
 8008686:	9e05      	ldr	r6, [sp, #20]
 8008688:	f7ff fef6 	bl	8008478 <prvInitialiseNewTask.isra.0>
 800868c:	4620      	mov	r0, r4
 800868e:	f7ff fe4b 	bl	8008328 <prvAddNewTaskToReadyList>
 8008692:	9804      	ldr	r0, [sp, #16]
 8008694:	b006      	add	sp, #24
 8008696:	bd70      	pop	{r4, r5, r6, pc}

08008698 <xTaskCreate>:
 8008698:	e92d 43f0 	stmdb	sp!, {r4, r5, r6, r7, r8, r9, lr}
 800869c:	4607      	mov	r7, r0
 800869e:	b085      	sub	sp, #20
 80086a0:	0090      	lsls	r0, r2, #2
 80086a2:	4688      	mov	r8, r1
 80086a4:	4616      	mov	r6, r2
 80086a6:	4699      	mov	r9, r3
 80086a8:	f000 fd4a 	bl	8009140 <pvPortMalloc>
 80086ac:	4605      	mov	r5, r0
 80086ae:	b1e8      	cbz	r0, 80086ec <xTaskCreate+0x54>
 80086b0:	2054      	movs	r0, #84	; 0x54
 80086b2:	f000 fd45 	bl	8009140 <pvPortMalloc>
 80086b6:	4604      	mov	r4, r0
 80086b8:	b1a8      	cbz	r0, 80086e6 <xTaskCreate+0x4e>
 80086ba:	2300      	movs	r3, #0
 80086bc:	f880 3051 	strb.w	r3, [r0, #81]	; 0x51
 80086c0:	9b0d      	ldr	r3, [sp, #52]	; 0x34
 80086c2:	6305      	str	r5, [r0, #48]	; 0x30
 80086c4:	9301      	str	r3, [sp, #4]
 80086c6:	9b0c      	ldr	r3, [sp, #48]	; 0x30
 80086c8:	9002      	str	r0, [sp, #8]
 80086ca:	9300      	str	r3, [sp, #0]
 80086cc:	4632      	mov	r2, r6
 80086ce:	464b      	mov	r3, r9
 80086d0:	4641      	mov	r1, r8
 80086d2:	4638      	mov	r0, r7
 80086d4:	f7ff fed0 	bl	8008478 <prvInitialiseNewTask.isra.0>
 80086d8:	4620      	mov	r0, r4
 80086da:	f7ff fe25 	bl	8008328 <prvAddNewTaskToReadyList>
 80086de:	2001      	movs	r0, #1
 80086e0:	b005      	add	sp, #20
 80086e2:	e8bd 83f0 	ldmia.w	sp!, {r4, r5, r6, r7, r8, r9, pc}
 80086e6:	4628      	mov	r0, r5
 80086e8:	f000 fdbc 	bl	8009264 <vPortFree>
 80086ec:	f04f 30ff 	mov.w	r0, #4294967295	; 0xffffffff
 80086f0:	e7f6      	b.n	80086e0 <xTaskCreate+0x48>
	...

080086f4 <vTaskStartScheduler>:
 80086f4:	b510      	push	{r4, lr}
 80086f6:	b088      	sub	sp, #32
 80086f8:	2400      	movs	r4, #0
 80086fa:	aa07      	add	r2, sp, #28
 80086fc:	a906      	add	r1, sp, #24
 80086fe:	a805      	add	r0, sp, #20
 8008700:	e9cd 4405 	strd	r4, r4, [sp, #20]
 8008704:	f7f7 ff38 	bl	8000578 <vApplicationGetIdleTaskMemory>
 8008708:	9b05      	ldr	r3, [sp, #20]
 800870a:	9302      	str	r3, [sp, #8]
 800870c:	9b06      	ldr	r3, [sp, #24]
 800870e:	9a07      	ldr	r2, [sp, #28]
 8008710:	490e      	ldr	r1, [pc, #56]	; (800874c <vTaskStartScheduler+0x58>)
 8008712:	480f      	ldr	r0, [pc, #60]	; (8008750 <vTaskStartScheduler+0x5c>)
 8008714:	e9cd 4300 	strd	r4, r3, [sp]
 8008718:	4623      	mov	r3, r4
 800871a:	f7ff ff85 	bl	8008628 <xTaskCreateStatic>
 800871e:	b190      	cbz	r0, 8008746 <vTaskStartScheduler+0x52>
 8008720:	f04f 0350 	mov.w	r3, #80	; 0x50
 8008724:	f383 8811 	msr	BASEPRI, r3
 8008728:	f3bf 8f6f 	isb	sy
 800872c:	f3bf 8f4f 	dsb	sy
 8008730:	4b08      	ldr	r3, [pc, #32]	; (8008754 <vTaskStartScheduler+0x60>)
 8008732:	f04f 32ff 	mov.w	r2, #4294967295	; 0xffffffff
 8008736:	601a      	str	r2, [r3, #0]
 8008738:	4b07      	ldr	r3, [pc, #28]	; (8008758 <vTaskStartScheduler+0x64>)
 800873a:	2201      	movs	r2, #1
 800873c:	601a      	str	r2, [r3, #0]
 800873e:	4b07      	ldr	r3, [pc, #28]	; (800875c <vTaskStartScheduler+0x68>)
 8008740:	601c      	str	r4, [r3, #0]
 8008742:	f000 fc27 	bl	8008f94 <xPortStartScheduler>
 8008746:	b008      	add	sp, #32
 8008748:	bd10      	pop	{r4, pc}
 800874a:	bf00      	nop
 800874c:	0800ac28 	.word	0x0800ac28
 8008750:	08008539 	.word	0x08008539
 8008754:	200009e8 	.word	0x200009e8
 8008758:	20000a08 	.word	0x20000a08
 800875c:	20000a34 	.word	0x20000a34

08008760 <vTaskSuspendAll>:
 8008760:	4a02      	ldr	r2, [pc, #8]	; (800876c <vTaskSuspendAll+0xc>)
 8008762:	6813      	ldr	r3, [r2, #0]
 8008764:	3301      	adds	r3, #1
 8008766:	6013      	str	r3, [r2, #0]
 8008768:	4770      	bx	lr
 800876a:	bf00      	nop
 800876c:	200009b4 	.word	0x200009b4

08008770 <xTaskGetTickCount>:
 8008770:	4b01      	ldr	r3, [pc, #4]	; (8008778 <xTaskGetTickCount+0x8>)
 8008772:	6818      	ldr	r0, [r3, #0]
 8008774:	4770      	bx	lr
 8008776:	bf00      	nop
 8008778:	20000a34 	.word	0x20000a34

0800877c <xTaskIncrementTick>:
 800877c:	4b40      	ldr	r3, [pc, #256]	; (8008880 <xTaskIncrementTick+0x104>)
 800877e:	681b      	ldr	r3, [r3, #0]
 8008780:	e92d 4ff7 	stmdb	sp!, {r0, r1, r2, r4, r5, r6, r7, r8, r9, sl, fp, lr}
 8008784:	2b00      	cmp	r3, #0
 8008786:	d174      	bne.n	8008872 <xTaskIncrementTick+0xf6>
 8008788:	4b3e      	ldr	r3, [pc, #248]	; (8008884 <xTaskIncrementTick+0x108>)
 800878a:	681d      	ldr	r5, [r3, #0]
 800878c:	3501      	adds	r5, #1
 800878e:	601d      	str	r5, [r3, #0]
 8008790:	b9bd      	cbnz	r5, 80087c2 <xTaskIncrementTick+0x46>
 8008792:	4b3d      	ldr	r3, [pc, #244]	; (8008888 <xTaskIncrementTick+0x10c>)
 8008794:	681a      	ldr	r2, [r3, #0]
 8008796:	6812      	ldr	r2, [r2, #0]
 8008798:	b142      	cbz	r2, 80087ac <xTaskIncrementTick+0x30>
 800879a:	f04f 0350 	mov.w	r3, #80	; 0x50
 800879e:	f383 8811 	msr	BASEPRI, r3
 80087a2:	f3bf 8f6f 	isb	sy
 80087a6:	f3bf 8f4f 	dsb	sy
 80087aa:	e7fe      	b.n	80087aa <xTaskIncrementTick+0x2e>
 80087ac:	4a37      	ldr	r2, [pc, #220]	; (800888c <xTaskIncrementTick+0x110>)
 80087ae:	6819      	ldr	r1, [r3, #0]
 80087b0:	6810      	ldr	r0, [r2, #0]
 80087b2:	6018      	str	r0, [r3, #0]
 80087b4:	6011      	str	r1, [r2, #0]
 80087b6:	4a36      	ldr	r2, [pc, #216]	; (8008890 <xTaskIncrementTick+0x114>)
 80087b8:	6813      	ldr	r3, [r2, #0]
 80087ba:	3301      	adds	r3, #1
 80087bc:	6013      	str	r3, [r2, #0]
 80087be:	f7ff fe49 	bl	8008454 <prvResetNextTaskUnblockTime>
 80087c2:	4e34      	ldr	r6, [pc, #208]	; (8008894 <xTaskIncrementTick+0x118>)
 80087c4:	4f34      	ldr	r7, [pc, #208]	; (8008898 <xTaskIncrementTick+0x11c>)
 80087c6:	6833      	ldr	r3, [r6, #0]
 80087c8:	f8df 80d8 	ldr.w	r8, [pc, #216]	; 80088a4 <xTaskIncrementTick+0x128>
 80087cc:	429d      	cmp	r5, r3
 80087ce:	f04f 0400 	mov.w	r4, #0
 80087d2:	d211      	bcs.n	80087f8 <xTaskIncrementTick+0x7c>
 80087d4:	f8d8 3000 	ldr.w	r3, [r8]
 80087d8:	6ada      	ldr	r2, [r3, #44]	; 0x2c
 80087da:	2314      	movs	r3, #20
 80087dc:	4353      	muls	r3, r2
 80087de:	58fb      	ldr	r3, [r7, r3]
 80087e0:	2b02      	cmp	r3, #2
 80087e2:	4b2e      	ldr	r3, [pc, #184]	; (800889c <xTaskIncrementTick+0x120>)
 80087e4:	681b      	ldr	r3, [r3, #0]
 80087e6:	bf28      	it	cs
 80087e8:	2401      	movcs	r4, #1
 80087ea:	2b00      	cmp	r3, #0
 80087ec:	bf18      	it	ne
 80087ee:	2401      	movne	r4, #1
 80087f0:	4620      	mov	r0, r4
 80087f2:	b003      	add	sp, #12
 80087f4:	e8bd 8ff0 	ldmia.w	sp!, {r4, r5, r6, r7, r8, r9, sl, fp, pc}
 80087f8:	f8df a08c 	ldr.w	sl, [pc, #140]	; 8008888 <xTaskIncrementTick+0x10c>
 80087fc:	f8df 90a8 	ldr.w	r9, [pc, #168]	; 80088a8 <xTaskIncrementTick+0x12c>
 8008800:	f8da 3000 	ldr.w	r3, [sl]
 8008804:	681b      	ldr	r3, [r3, #0]
 8008806:	b91b      	cbnz	r3, 8008810 <xTaskIncrementTick+0x94>
 8008808:	f04f 33ff 	mov.w	r3, #4294967295	; 0xffffffff
 800880c:	6033      	str	r3, [r6, #0]
 800880e:	e7e1      	b.n	80087d4 <xTaskIncrementTick+0x58>
 8008810:	f8da 3000 	ldr.w	r3, [sl]
 8008814:	68db      	ldr	r3, [r3, #12]
 8008816:	f8d3 b00c 	ldr.w	fp, [r3, #12]
 800881a:	f8db 2004 	ldr.w	r2, [fp, #4]
 800881e:	4295      	cmp	r5, r2
 8008820:	d201      	bcs.n	8008826 <xTaskIncrementTick+0xaa>
 8008822:	6032      	str	r2, [r6, #0]
 8008824:	e7d6      	b.n	80087d4 <xTaskIncrementTick+0x58>
 8008826:	f10b 0104 	add.w	r1, fp, #4
 800882a:	4608      	mov	r0, r1
 800882c:	9101      	str	r1, [sp, #4]
 800882e:	f7ff fa5b 	bl	8007ce8 <uxListRemove>
 8008832:	f8db 2028 	ldr.w	r2, [fp, #40]	; 0x28
 8008836:	9901      	ldr	r1, [sp, #4]
 8008838:	b122      	cbz	r2, 8008844 <xTaskIncrementTick+0xc8>
 800883a:	f10b 0018 	add.w	r0, fp, #24
 800883e:	f7ff fa53 	bl	8007ce8 <uxListRemove>
 8008842:	9901      	ldr	r1, [sp, #4]
 8008844:	f8db 002c 	ldr.w	r0, [fp, #44]	; 0x2c
 8008848:	f8d9 3000 	ldr.w	r3, [r9]
 800884c:	2201      	movs	r2, #1
 800884e:	4082      	lsls	r2, r0
 8008850:	431a      	orrs	r2, r3
 8008852:	f8c9 2000 	str.w	r2, [r9]
 8008856:	2214      	movs	r2, #20
 8008858:	fb02 7000 	mla	r0, r2, r0, r7
 800885c:	f7ff fa21 	bl	8007ca2 <vListInsertEnd>
 8008860:	f8d8 1000 	ldr.w	r1, [r8]
 8008864:	f8db 202c 	ldr.w	r2, [fp, #44]	; 0x2c
 8008868:	6acb      	ldr	r3, [r1, #44]	; 0x2c
 800886a:	429a      	cmp	r2, r3
 800886c:	bf28      	it	cs
 800886e:	2401      	movcs	r4, #1
 8008870:	e7c6      	b.n	8008800 <xTaskIncrementTick+0x84>
 8008872:	4a0b      	ldr	r2, [pc, #44]	; (80088a0 <xTaskIncrementTick+0x124>)
 8008874:	6813      	ldr	r3, [r2, #0]
 8008876:	3301      	adds	r3, #1
 8008878:	6013      	str	r3, [r2, #0]
 800887a:	2400      	movs	r4, #0
 800887c:	e7b8      	b.n	80087f0 <xTaskIncrementTick+0x74>
 800887e:	bf00      	nop
 8008880:	200009b4 	.word	0x200009b4
 8008884:	20000a34 	.word	0x20000a34
 8008888:	20000918 	.word	0x20000918
 800888c:	2000091c 	.word	0x2000091c
 8008890:	200009ec 	.word	0x200009ec
 8008894:	200009e8 	.word	0x200009e8
 8008898:	20000920 	.word	0x20000920
 800889c:	20000a38 	.word	0x20000a38
 80088a0:	200009f0 	.word	0x200009f0
 80088a4:	20000914 	.word	0x20000914
 80088a8:	200009bc 	.word	0x200009bc

080088ac <xTaskResumeAll>:
 80088ac:	e92d 41f3 	stmdb	sp!, {r0, r1, r4, r5, r6, r7, r8, lr}
 80088b0:	4c31      	ldr	r4, [pc, #196]	; (8008978 <xTaskResumeAll+0xcc>)
 80088b2:	6823      	ldr	r3, [r4, #0]
 80088b4:	b943      	cbnz	r3, 80088c8 <xTaskResumeAll+0x1c>
 80088b6:	f04f 0350 	mov.w	r3, #80	; 0x50
 80088ba:	f383 8811 	msr	BASEPRI, r3
 80088be:	f3bf 8f6f 	isb	sy
 80088c2:	f3bf 8f4f 	dsb	sy
 80088c6:	e7fe      	b.n	80088c6 <xTaskResumeAll+0x1a>
 80088c8:	f000 facc 	bl	8008e64 <vPortEnterCritical>
 80088cc:	6823      	ldr	r3, [r4, #0]
 80088ce:	3b01      	subs	r3, #1
 80088d0:	6023      	str	r3, [r4, #0]
 80088d2:	6824      	ldr	r4, [r4, #0]
 80088d4:	b134      	cbz	r4, 80088e4 <xTaskResumeAll+0x38>
 80088d6:	2400      	movs	r4, #0
 80088d8:	f000 fae6 	bl	8008ea8 <vPortExitCritical>
 80088dc:	4620      	mov	r0, r4
 80088de:	b002      	add	sp, #8
 80088e0:	e8bd 81f0 	ldmia.w	sp!, {r4, r5, r6, r7, r8, pc}
 80088e4:	4b25      	ldr	r3, [pc, #148]	; (800897c <xTaskResumeAll+0xd0>)
 80088e6:	681b      	ldr	r3, [r3, #0]
 80088e8:	2b00      	cmp	r3, #0
 80088ea:	d0f4      	beq.n	80088d6 <xTaskResumeAll+0x2a>
 80088ec:	4d24      	ldr	r5, [pc, #144]	; (8008980 <xTaskResumeAll+0xd4>)
 80088ee:	4e25      	ldr	r6, [pc, #148]	; (8008984 <xTaskResumeAll+0xd8>)
 80088f0:	f8df 80a4 	ldr.w	r8, [pc, #164]	; 8008998 <xTaskResumeAll+0xec>
 80088f4:	e01f      	b.n	8008936 <xTaskResumeAll+0x8a>
 80088f6:	68eb      	ldr	r3, [r5, #12]
 80088f8:	68dc      	ldr	r4, [r3, #12]
 80088fa:	f104 0018 	add.w	r0, r4, #24
 80088fe:	f7ff f9f3 	bl	8007ce8 <uxListRemove>
 8008902:	1d21      	adds	r1, r4, #4
 8008904:	4608      	mov	r0, r1
 8008906:	9101      	str	r1, [sp, #4]
 8008908:	f7ff f9ee 	bl	8007ce8 <uxListRemove>
 800890c:	6ae2      	ldr	r2, [r4, #44]	; 0x2c
 800890e:	6830      	ldr	r0, [r6, #0]
 8008910:	9901      	ldr	r1, [sp, #4]
 8008912:	2701      	movs	r7, #1
 8008914:	fa07 f302 	lsl.w	r3, r7, r2
 8008918:	4303      	orrs	r3, r0
 800891a:	2014      	movs	r0, #20
 800891c:	fb00 8002 	mla	r0, r0, r2, r8
 8008920:	6033      	str	r3, [r6, #0]
 8008922:	f7ff f9be 	bl	8007ca2 <vListInsertEnd>
 8008926:	4b18      	ldr	r3, [pc, #96]	; (8008988 <xTaskResumeAll+0xdc>)
 8008928:	6ae2      	ldr	r2, [r4, #44]	; 0x2c
 800892a:	681b      	ldr	r3, [r3, #0]
 800892c:	6adb      	ldr	r3, [r3, #44]	; 0x2c
 800892e:	429a      	cmp	r2, r3
 8008930:	d301      	bcc.n	8008936 <xTaskResumeAll+0x8a>
 8008932:	4b16      	ldr	r3, [pc, #88]	; (800898c <xTaskResumeAll+0xe0>)
 8008934:	601f      	str	r7, [r3, #0]
 8008936:	682b      	ldr	r3, [r5, #0]
 8008938:	2b00      	cmp	r3, #0
 800893a:	d1dc      	bne.n	80088f6 <xTaskResumeAll+0x4a>
 800893c:	b10c      	cbz	r4, 8008942 <xTaskResumeAll+0x96>
 800893e:	f7ff fd89 	bl	8008454 <prvResetNextTaskUnblockTime>
 8008942:	4d13      	ldr	r5, [pc, #76]	; (8008990 <xTaskResumeAll+0xe4>)
 8008944:	682c      	ldr	r4, [r5, #0]
 8008946:	b144      	cbz	r4, 800895a <xTaskResumeAll+0xae>
 8008948:	4e10      	ldr	r6, [pc, #64]	; (800898c <xTaskResumeAll+0xe0>)
 800894a:	2701      	movs	r7, #1
 800894c:	f7ff ff16 	bl	800877c <xTaskIncrementTick>
 8008950:	b100      	cbz	r0, 8008954 <xTaskResumeAll+0xa8>
 8008952:	6037      	str	r7, [r6, #0]
 8008954:	3c01      	subs	r4, #1
 8008956:	d1f9      	bne.n	800894c <xTaskResumeAll+0xa0>
 8008958:	602c      	str	r4, [r5, #0]
 800895a:	4b0c      	ldr	r3, [pc, #48]	; (800898c <xTaskResumeAll+0xe0>)
 800895c:	681b      	ldr	r3, [r3, #0]
 800895e:	2b00      	cmp	r3, #0
 8008960:	d0b9      	beq.n	80088d6 <xTaskResumeAll+0x2a>
 8008962:	4b0c      	ldr	r3, [pc, #48]	; (8008994 <xTaskResumeAll+0xe8>)
 8008964:	f04f 5280 	mov.w	r2, #268435456	; 0x10000000
 8008968:	601a      	str	r2, [r3, #0]
 800896a:	f3bf 8f4f 	dsb	sy
 800896e:	f3bf 8f6f 	isb	sy
 8008972:	2401      	movs	r4, #1
 8008974:	e7b0      	b.n	80088d8 <xTaskResumeAll+0x2c>
 8008976:	bf00      	nop
 8008978:	200009b4 	.word	0x200009b4
 800897c:	200009ac 	.word	0x200009ac
 8008980:	200009f4 	.word	0x200009f4
 8008984:	200009bc 	.word	0x200009bc
 8008988:	20000914 	.word	0x20000914
 800898c:	20000a38 	.word	0x20000a38
 8008990:	200009f0 	.word	0x200009f0
 8008994:	e000ed04 	.word	0xe000ed04
 8008998:	20000920 	.word	0x20000920

0800899c <vTaskSwitchContext>:
 800899c:	4b17      	ldr	r3, [pc, #92]	; (80089fc <vTaskSwitchContext+0x60>)
 800899e:	681a      	ldr	r2, [r3, #0]
 80089a0:	4b17      	ldr	r3, [pc, #92]	; (8008a00 <vTaskSwitchContext+0x64>)
 80089a2:	b510      	push	{r4, lr}
 80089a4:	b112      	cbz	r2, 80089ac <vTaskSwitchContext+0x10>
 80089a6:	2201      	movs	r2, #1
 80089a8:	601a      	str	r2, [r3, #0]
 80089aa:	bd10      	pop	{r4, pc}
 80089ac:	601a      	str	r2, [r3, #0]
 80089ae:	4b15      	ldr	r3, [pc, #84]	; (8008a04 <vTaskSwitchContext+0x68>)
 80089b0:	681b      	ldr	r3, [r3, #0]
 80089b2:	fab3 f383 	clz	r3, r3
 80089b6:	b2db      	uxtb	r3, r3
 80089b8:	f1c3 031f 	rsb	r3, r3, #31
 80089bc:	2214      	movs	r2, #20
 80089be:	4912      	ldr	r1, [pc, #72]	; (8008a08 <vTaskSwitchContext+0x6c>)
 80089c0:	435a      	muls	r2, r3
 80089c2:	1888      	adds	r0, r1, r2
 80089c4:	588c      	ldr	r4, [r1, r2]
 80089c6:	b944      	cbnz	r4, 80089da <vTaskSwitchContext+0x3e>
 80089c8:	f04f 0350 	mov.w	r3, #80	; 0x50
 80089cc:	f383 8811 	msr	BASEPRI, r3
 80089d0:	f3bf 8f6f 	isb	sy
 80089d4:	f3bf 8f4f 	dsb	sy
 80089d8:	e7fe      	b.n	80089d8 <vTaskSwitchContext+0x3c>
 80089da:	6844      	ldr	r4, [r0, #4]
 80089dc:	3208      	adds	r2, #8
 80089de:	6864      	ldr	r4, [r4, #4]
 80089e0:	6044      	str	r4, [r0, #4]
 80089e2:	440a      	add	r2, r1
 80089e4:	4294      	cmp	r4, r2
 80089e6:	bf04      	itt	eq
 80089e8:	6862      	ldreq	r2, [r4, #4]
 80089ea:	6042      	streq	r2, [r0, #4]
 80089ec:	2214      	movs	r2, #20
 80089ee:	fb02 1303 	mla	r3, r2, r3, r1
 80089f2:	685b      	ldr	r3, [r3, #4]
 80089f4:	68da      	ldr	r2, [r3, #12]
 80089f6:	4b05      	ldr	r3, [pc, #20]	; (8008a0c <vTaskSwitchContext+0x70>)
 80089f8:	e7d6      	b.n	80089a8 <vTaskSwitchContext+0xc>
 80089fa:	bf00      	nop
 80089fc:	200009b4 	.word	0x200009b4
 8008a00:	20000a38 	.word	0x20000a38
 8008a04:	200009bc 	.word	0x200009bc
 8008a08:	20000920 	.word	0x20000920
 8008a0c:	20000914 	.word	0x20000914

08008a10 <vTaskPlaceOnEventList>:
 8008a10:	b510      	push	{r4, lr}
 8008a12:	460c      	mov	r4, r1
 8008a14:	b940      	cbnz	r0, 8008a28 <vTaskPlaceOnEventList+0x18>
 8008a16:	f04f 0350 	mov.w	r3, #80	; 0x50
 8008a1a:	f383 8811 	msr	BASEPRI, r3
 8008a1e:	f3bf 8f6f 	isb	sy
 8008a22:	f3bf 8f4f 	dsb	sy
 8008a26:	e7fe      	b.n	8008a26 <vTaskPlaceOnEventList+0x16>
 8008a28:	4b05      	ldr	r3, [pc, #20]	; (8008a40 <vTaskPlaceOnEventList+0x30>)
 8008a2a:	6819      	ldr	r1, [r3, #0]
 8008a2c:	3118      	adds	r1, #24
 8008a2e:	f7ff f944 	bl	8007cba <vListInsert>
 8008a32:	4620      	mov	r0, r4
 8008a34:	2101      	movs	r1, #1
 8008a36:	e8bd 4010 	ldmia.w	sp!, {r4, lr}
 8008a3a:	f7ff bdaf 	b.w	800859c <prvAddCurrentTaskToDelayedList>
 8008a3e:	bf00      	nop
 8008a40:	20000914 	.word	0x20000914

08008a44 <xTaskRemoveFromEventList>:
 8008a44:	68c3      	ldr	r3, [r0, #12]
 8008a46:	b537      	push	{r0, r1, r2, r4, r5, lr}
 8008a48:	68dc      	ldr	r4, [r3, #12]
 8008a4a:	b944      	cbnz	r4, 8008a5e <xTaskRemoveFromEventList+0x1a>
 8008a4c:	f04f 0350 	mov.w	r3, #80	; 0x50
 8008a50:	f383 8811 	msr	BASEPRI, r3
 8008a54:	f3bf 8f6f 	isb	sy
 8008a58:	f3bf 8f4f 	dsb	sy
 8008a5c:	e7fe      	b.n	8008a5c <xTaskRemoveFromEventList+0x18>
 8008a5e:	f104 0118 	add.w	r1, r4, #24
 8008a62:	4608      	mov	r0, r1
 8008a64:	9101      	str	r1, [sp, #4]
 8008a66:	f7ff f93f 	bl	8007ce8 <uxListRemove>
 8008a6a:	4b12      	ldr	r3, [pc, #72]	; (8008ab4 <xTaskRemoveFromEventList+0x70>)
 8008a6c:	9901      	ldr	r1, [sp, #4]
 8008a6e:	681b      	ldr	r3, [r3, #0]
 8008a70:	b9f3      	cbnz	r3, 8008ab0 <xTaskRemoveFromEventList+0x6c>
 8008a72:	1d21      	adds	r1, r4, #4
 8008a74:	4608      	mov	r0, r1
 8008a76:	9101      	str	r1, [sp, #4]
 8008a78:	f7ff f936 	bl	8007ce8 <uxListRemove>
 8008a7c:	480e      	ldr	r0, [pc, #56]	; (8008ab8 <xTaskRemoveFromEventList+0x74>)
 8008a7e:	6ae2      	ldr	r2, [r4, #44]	; 0x2c
 8008a80:	6805      	ldr	r5, [r0, #0]
 8008a82:	9901      	ldr	r1, [sp, #4]
 8008a84:	2301      	movs	r3, #1
 8008a86:	4093      	lsls	r3, r2
 8008a88:	432b      	orrs	r3, r5
 8008a8a:	6003      	str	r3, [r0, #0]
 8008a8c:	4b0b      	ldr	r3, [pc, #44]	; (8008abc <xTaskRemoveFromEventList+0x78>)
 8008a8e:	2014      	movs	r0, #20
 8008a90:	fb00 3002 	mla	r0, r0, r2, r3
 8008a94:	f7ff f905 	bl	8007ca2 <vListInsertEnd>
 8008a98:	4b09      	ldr	r3, [pc, #36]	; (8008ac0 <xTaskRemoveFromEventList+0x7c>)
 8008a9a:	6ae2      	ldr	r2, [r4, #44]	; 0x2c
 8008a9c:	681b      	ldr	r3, [r3, #0]
 8008a9e:	6adb      	ldr	r3, [r3, #44]	; 0x2c
 8008aa0:	429a      	cmp	r2, r3
 8008aa2:	bf85      	ittet	hi
 8008aa4:	4b07      	ldrhi	r3, [pc, #28]	; (8008ac4 <xTaskRemoveFromEventList+0x80>)
 8008aa6:	2001      	movhi	r0, #1
 8008aa8:	2000      	movls	r0, #0
 8008aaa:	6018      	strhi	r0, [r3, #0]
 8008aac:	b003      	add	sp, #12
 8008aae:	bd30      	pop	{r4, r5, pc}
 8008ab0:	4805      	ldr	r0, [pc, #20]	; (8008ac8 <xTaskRemoveFromEventList+0x84>)
 8008ab2:	e7ef      	b.n	8008a94 <xTaskRemoveFromEventList+0x50>
 8008ab4:	200009b4 	.word	0x200009b4
 8008ab8:	200009bc 	.word	0x200009bc
 8008abc:	20000920 	.word	0x20000920
 8008ac0:	20000914 	.word	0x20000914
 8008ac4:	20000a38 	.word	0x20000a38
 8008ac8:	200009f4 	.word	0x200009f4

08008acc <vTaskInternalSetTimeOutState>:
 8008acc:	4b03      	ldr	r3, [pc, #12]	; (8008adc <vTaskInternalSetTimeOutState+0x10>)
 8008ace:	681b      	ldr	r3, [r3, #0]
 8008ad0:	6003      	str	r3, [r0, #0]
 8008ad2:	4b03      	ldr	r3, [pc, #12]	; (8008ae0 <vTaskInternalSetTimeOutState+0x14>)
 8008ad4:	681b      	ldr	r3, [r3, #0]
 8008ad6:	6043      	str	r3, [r0, #4]
 8008ad8:	4770      	bx	lr
 8008ada:	bf00      	nop
 8008adc:	200009ec 	.word	0x200009ec
 8008ae0:	20000a34 	.word	0x20000a34

08008ae4 <xTaskCheckForTimeOut>:
 8008ae4:	b570      	push	{r4, r5, r6, lr}
 8008ae6:	460c      	mov	r4, r1
 8008ae8:	4605      	mov	r5, r0
 8008aea:	b940      	cbnz	r0, 8008afe <xTaskCheckForTimeOut+0x1a>
 8008aec:	f04f 0350 	mov.w	r3, #80	; 0x50
 8008af0:	f383 8811 	msr	BASEPRI, r3
 8008af4:	f3bf 8f6f 	isb	sy
 8008af8:	f3bf 8f4f 	dsb	sy
 8008afc:	e7fe      	b.n	8008afc <xTaskCheckForTimeOut+0x18>
 8008afe:	b941      	cbnz	r1, 8008b12 <xTaskCheckForTimeOut+0x2e>
 8008b00:	f04f 0350 	mov.w	r3, #80	; 0x50
 8008b04:	f383 8811 	msr	BASEPRI, r3
 8008b08:	f3bf 8f6f 	isb	sy
 8008b0c:	f3bf 8f4f 	dsb	sy
 8008b10:	e7fe      	b.n	8008b10 <xTaskCheckForTimeOut+0x2c>
 8008b12:	f000 f9a7 	bl	8008e64 <vPortEnterCritical>
 8008b16:	4b0f      	ldr	r3, [pc, #60]	; (8008b54 <xTaskCheckForTimeOut+0x70>)
 8008b18:	6819      	ldr	r1, [r3, #0]
 8008b1a:	6823      	ldr	r3, [r4, #0]
 8008b1c:	1c5a      	adds	r2, r3, #1
 8008b1e:	d010      	beq.n	8008b42 <xTaskCheckForTimeOut+0x5e>
 8008b20:	480d      	ldr	r0, [pc, #52]	; (8008b58 <xTaskCheckForTimeOut+0x74>)
 8008b22:	682e      	ldr	r6, [r5, #0]
 8008b24:	6800      	ldr	r0, [r0, #0]
 8008b26:	686a      	ldr	r2, [r5, #4]
 8008b28:	4286      	cmp	r6, r0
 8008b2a:	d001      	beq.n	8008b30 <xTaskCheckForTimeOut+0x4c>
 8008b2c:	428a      	cmp	r2, r1
 8008b2e:	d90f      	bls.n	8008b50 <xTaskCheckForTimeOut+0x6c>
 8008b30:	1a88      	subs	r0, r1, r2
 8008b32:	4283      	cmp	r3, r0
 8008b34:	d90a      	bls.n	8008b4c <xTaskCheckForTimeOut+0x68>
 8008b36:	1a5b      	subs	r3, r3, r1
 8008b38:	4413      	add	r3, r2
 8008b3a:	6023      	str	r3, [r4, #0]
 8008b3c:	4628      	mov	r0, r5
 8008b3e:	f7ff ffc5 	bl	8008acc <vTaskInternalSetTimeOutState>
 8008b42:	2400      	movs	r4, #0
 8008b44:	f000 f9b0 	bl	8008ea8 <vPortExitCritical>
 8008b48:	4620      	mov	r0, r4
 8008b4a:	bd70      	pop	{r4, r5, r6, pc}
 8008b4c:	2300      	movs	r3, #0
 8008b4e:	6023      	str	r3, [r4, #0]
 8008b50:	2401      	movs	r4, #1
 8008b52:	e7f7      	b.n	8008b44 <xTaskCheckForTimeOut+0x60>
 8008b54:	20000a34 	.word	0x20000a34
 8008b58:	200009ec 	.word	0x200009ec

08008b5c <vTaskMissedYield>:
 8008b5c:	4b01      	ldr	r3, [pc, #4]	; (8008b64 <vTaskMissedYield+0x8>)
 8008b5e:	2201      	movs	r2, #1
 8008b60:	601a      	str	r2, [r3, #0]
 8008b62:	4770      	bx	lr
 8008b64:	20000a38 	.word	0x20000a38

08008b68 <xTaskGetSchedulerState>:
 8008b68:	4b05      	ldr	r3, [pc, #20]	; (8008b80 <xTaskGetSchedulerState+0x18>)
 8008b6a:	681b      	ldr	r3, [r3, #0]
 8008b6c:	b133      	cbz	r3, 8008b7c <xTaskGetSchedulerState+0x14>
 8008b6e:	4b05      	ldr	r3, [pc, #20]	; (8008b84 <xTaskGetSchedulerState+0x1c>)
 8008b70:	681b      	ldr	r3, [r3, #0]
 8008b72:	2b00      	cmp	r3, #0
 8008b74:	bf0c      	ite	eq
 8008b76:	2002      	moveq	r0, #2
 8008b78:	2000      	movne	r0, #0
 8008b7a:	4770      	bx	lr
 8008b7c:	2001      	movs	r0, #1
 8008b7e:	4770      	bx	lr
 8008b80:	20000a08 	.word	0x20000a08
 8008b84:	200009b4 	.word	0x200009b4

08008b88 <xTaskPriorityInherit>:
 8008b88:	b5f7      	push	{r0, r1, r2, r4, r5, r6, r7, lr}
 8008b8a:	4604      	mov	r4, r0
 8008b8c:	2800      	cmp	r0, #0
 8008b8e:	d032      	beq.n	8008bf6 <xTaskPriorityInherit+0x6e>
 8008b90:	4a21      	ldr	r2, [pc, #132]	; (8008c18 <xTaskPriorityInherit+0x90>)
 8008b92:	6ac3      	ldr	r3, [r0, #44]	; 0x2c
 8008b94:	6811      	ldr	r1, [r2, #0]
 8008b96:	6ac9      	ldr	r1, [r1, #44]	; 0x2c
 8008b98:	428b      	cmp	r3, r1
 8008b9a:	4616      	mov	r6, r2
 8008b9c:	d233      	bcs.n	8008c06 <xTaskPriorityInherit+0x7e>
 8008b9e:	6982      	ldr	r2, [r0, #24]
 8008ba0:	4d1e      	ldr	r5, [pc, #120]	; (8008c1c <xTaskPriorityInherit+0x94>)
 8008ba2:	2a00      	cmp	r2, #0
 8008ba4:	bfa1      	itttt	ge
 8008ba6:	6832      	ldrge	r2, [r6, #0]
 8008ba8:	6ad2      	ldrge	r2, [r2, #44]	; 0x2c
 8008baa:	f1c2 0207 	rsbge	r2, r2, #7
 8008bae:	6182      	strge	r2, [r0, #24]
 8008bb0:	2214      	movs	r2, #20
 8008bb2:	fb02 5303 	mla	r3, r2, r3, r5
 8008bb6:	6942      	ldr	r2, [r0, #20]
 8008bb8:	429a      	cmp	r2, r3
 8008bba:	d11e      	bne.n	8008bfa <xTaskPriorityInherit+0x72>
 8008bbc:	1d01      	adds	r1, r0, #4
 8008bbe:	4608      	mov	r0, r1
 8008bc0:	9101      	str	r1, [sp, #4]
 8008bc2:	f7ff f891 	bl	8007ce8 <uxListRemove>
 8008bc6:	4b16      	ldr	r3, [pc, #88]	; (8008c20 <xTaskPriorityInherit+0x98>)
 8008bc8:	9901      	ldr	r1, [sp, #4]
 8008bca:	b930      	cbnz	r0, 8008bda <xTaskPriorityInherit+0x52>
 8008bcc:	6ae7      	ldr	r7, [r4, #44]	; 0x2c
 8008bce:	681a      	ldr	r2, [r3, #0]
 8008bd0:	2001      	movs	r0, #1
 8008bd2:	40b8      	lsls	r0, r7
 8008bd4:	ea22 0200 	bic.w	r2, r2, r0
 8008bd8:	601a      	str	r2, [r3, #0]
 8008bda:	6832      	ldr	r2, [r6, #0]
 8008bdc:	681e      	ldr	r6, [r3, #0]
 8008bde:	6ad2      	ldr	r2, [r2, #44]	; 0x2c
 8008be0:	62e2      	str	r2, [r4, #44]	; 0x2c
 8008be2:	2401      	movs	r4, #1
 8008be4:	fa04 f002 	lsl.w	r0, r4, r2
 8008be8:	4330      	orrs	r0, r6
 8008bea:	6018      	str	r0, [r3, #0]
 8008bec:	2014      	movs	r0, #20
 8008bee:	fb00 5002 	mla	r0, r0, r2, r5
 8008bf2:	f7ff f856 	bl	8007ca2 <vListInsertEnd>
 8008bf6:	4620      	mov	r0, r4
 8008bf8:	e003      	b.n	8008c02 <xTaskPriorityInherit+0x7a>
 8008bfa:	6833      	ldr	r3, [r6, #0]
 8008bfc:	6adb      	ldr	r3, [r3, #44]	; 0x2c
 8008bfe:	62c3      	str	r3, [r0, #44]	; 0x2c
 8008c00:	2001      	movs	r0, #1
 8008c02:	b003      	add	sp, #12
 8008c04:	bdf0      	pop	{r4, r5, r6, r7, pc}
 8008c06:	6813      	ldr	r3, [r2, #0]
 8008c08:	6c40      	ldr	r0, [r0, #68]	; 0x44
 8008c0a:	6adc      	ldr	r4, [r3, #44]	; 0x2c
 8008c0c:	42a0      	cmp	r0, r4
 8008c0e:	bf2c      	ite	cs
 8008c10:	2000      	movcs	r0, #0
 8008c12:	2001      	movcc	r0, #1
 8008c14:	e7f5      	b.n	8008c02 <xTaskPriorityInherit+0x7a>
 8008c16:	bf00      	nop
 8008c18:	20000914 	.word	0x20000914
 8008c1c:	20000920 	.word	0x20000920
 8008c20:	200009bc 	.word	0x200009bc

08008c24 <xTaskPriorityDisinherit>:
 8008c24:	b5f7      	push	{r0, r1, r2, r4, r5, r6, r7, lr}
 8008c26:	4604      	mov	r4, r0
 8008c28:	b910      	cbnz	r0, 8008c30 <xTaskPriorityDisinherit+0xc>
 8008c2a:	2000      	movs	r0, #0
 8008c2c:	b003      	add	sp, #12
 8008c2e:	bdf0      	pop	{r4, r5, r6, r7, pc}
 8008c30:	4b22      	ldr	r3, [pc, #136]	; (8008cbc <xTaskPriorityDisinherit+0x98>)
 8008c32:	681b      	ldr	r3, [r3, #0]
 8008c34:	4283      	cmp	r3, r0
 8008c36:	d008      	beq.n	8008c4a <xTaskPriorityDisinherit+0x26>
 8008c38:	f04f 0350 	mov.w	r3, #80	; 0x50
 8008c3c:	f383 8811 	msr	BASEPRI, r3
 8008c40:	f3bf 8f6f 	isb	sy
 8008c44:	f3bf 8f4f 	dsb	sy
 8008c48:	e7fe      	b.n	8008c48 <xTaskPriorityDisinherit+0x24>
 8008c4a:	6c9b      	ldr	r3, [r3, #72]	; 0x48
 8008c4c:	b943      	cbnz	r3, 8008c60 <xTaskPriorityDisinherit+0x3c>
 8008c4e:	f04f 0350 	mov.w	r3, #80	; 0x50
 8008c52:	f383 8811 	msr	BASEPRI, r3
 8008c56:	f3bf 8f6f 	isb	sy
 8008c5a:	f3bf 8f4f 	dsb	sy
 8008c5e:	e7fe      	b.n	8008c5e <xTaskPriorityDisinherit+0x3a>
 8008c60:	6ac1      	ldr	r1, [r0, #44]	; 0x2c
 8008c62:	6c42      	ldr	r2, [r0, #68]	; 0x44
 8008c64:	3b01      	subs	r3, #1
 8008c66:	4291      	cmp	r1, r2
 8008c68:	6483      	str	r3, [r0, #72]	; 0x48
 8008c6a:	d0de      	beq.n	8008c2a <xTaskPriorityDisinherit+0x6>
 8008c6c:	2b00      	cmp	r3, #0
 8008c6e:	d1dc      	bne.n	8008c2a <xTaskPriorityDisinherit+0x6>
 8008c70:	1d01      	adds	r1, r0, #4
 8008c72:	4608      	mov	r0, r1
 8008c74:	9101      	str	r1, [sp, #4]
 8008c76:	f7ff f837 	bl	8007ce8 <uxListRemove>
 8008c7a:	4f11      	ldr	r7, [pc, #68]	; (8008cc0 <xTaskPriorityDisinherit+0x9c>)
 8008c7c:	4a11      	ldr	r2, [pc, #68]	; (8008cc4 <xTaskPriorityDisinherit+0xa0>)
 8008c7e:	9901      	ldr	r1, [sp, #4]
 8008c80:	b950      	cbnz	r0, 8008c98 <xTaskPriorityDisinherit+0x74>
 8008c82:	6ae0      	ldr	r0, [r4, #44]	; 0x2c
 8008c84:	2614      	movs	r6, #20
 8008c86:	4346      	muls	r6, r0
 8008c88:	59bb      	ldr	r3, [r7, r6]
 8008c8a:	b92b      	cbnz	r3, 8008c98 <xTaskPriorityDisinherit+0x74>
 8008c8c:	6813      	ldr	r3, [r2, #0]
 8008c8e:	2501      	movs	r5, #1
 8008c90:	4085      	lsls	r5, r0
 8008c92:	ea23 0305 	bic.w	r3, r3, r5
 8008c96:	6013      	str	r3, [r2, #0]
 8008c98:	6c63      	ldr	r3, [r4, #68]	; 0x44
 8008c9a:	62e3      	str	r3, [r4, #44]	; 0x2c
 8008c9c:	f1c3 0007 	rsb	r0, r3, #7
 8008ca0:	61a0      	str	r0, [r4, #24]
 8008ca2:	6810      	ldr	r0, [r2, #0]
 8008ca4:	2401      	movs	r4, #1
 8008ca6:	fa04 f503 	lsl.w	r5, r4, r3
 8008caa:	4305      	orrs	r5, r0
 8008cac:	2014      	movs	r0, #20
 8008cae:	fb00 7003 	mla	r0, r0, r3, r7
 8008cb2:	6015      	str	r5, [r2, #0]
 8008cb4:	f7fe fff5 	bl	8007ca2 <vListInsertEnd>
 8008cb8:	4620      	mov	r0, r4
 8008cba:	e7b7      	b.n	8008c2c <xTaskPriorityDisinherit+0x8>
 8008cbc:	20000914 	.word	0x20000914
 8008cc0:	20000920 	.word	0x20000920
 8008cc4:	200009bc 	.word	0x200009bc

08008cc8 <vTaskPriorityDisinheritAfterTimeout>:
 8008cc8:	b537      	push	{r0, r1, r2, r4, r5, lr}
 8008cca:	4604      	mov	r4, r0
 8008ccc:	2800      	cmp	r0, #0
 8008cce:	d04b      	beq.n	8008d68 <vTaskPriorityDisinheritAfterTimeout+0xa0>
 8008cd0:	6c82      	ldr	r2, [r0, #72]	; 0x48
 8008cd2:	b942      	cbnz	r2, 8008ce6 <vTaskPriorityDisinheritAfterTimeout+0x1e>
 8008cd4:	f04f 0350 	mov.w	r3, #80	; 0x50
 8008cd8:	f383 8811 	msr	BASEPRI, r3
 8008cdc:	f3bf 8f6f 	isb	sy
 8008ce0:	f3bf 8f4f 	dsb	sy
 8008ce4:	e7fe      	b.n	8008ce4 <vTaskPriorityDisinheritAfterTimeout+0x1c>
 8008ce6:	6c43      	ldr	r3, [r0, #68]	; 0x44
 8008ce8:	4299      	cmp	r1, r3
 8008cea:	bf38      	it	cc
 8008cec:	4619      	movcc	r1, r3
 8008cee:	6ac3      	ldr	r3, [r0, #44]	; 0x2c
 8008cf0:	428b      	cmp	r3, r1
 8008cf2:	d039      	beq.n	8008d68 <vTaskPriorityDisinheritAfterTimeout+0xa0>
 8008cf4:	2a01      	cmp	r2, #1
 8008cf6:	d137      	bne.n	8008d68 <vTaskPriorityDisinheritAfterTimeout+0xa0>
 8008cf8:	4a1c      	ldr	r2, [pc, #112]	; (8008d6c <vTaskPriorityDisinheritAfterTimeout+0xa4>)
 8008cfa:	6812      	ldr	r2, [r2, #0]
 8008cfc:	4282      	cmp	r2, r0
 8008cfe:	d108      	bne.n	8008d12 <vTaskPriorityDisinheritAfterTimeout+0x4a>
 8008d00:	f04f 0350 	mov.w	r3, #80	; 0x50
 8008d04:	f383 8811 	msr	BASEPRI, r3
 8008d08:	f3bf 8f6f 	isb	sy
 8008d0c:	f3bf 8f4f 	dsb	sy
 8008d10:	e7fe      	b.n	8008d10 <vTaskPriorityDisinheritAfterTimeout+0x48>
 8008d12:	6982      	ldr	r2, [r0, #24]
 8008d14:	4d16      	ldr	r5, [pc, #88]	; (8008d70 <vTaskPriorityDisinheritAfterTimeout+0xa8>)
 8008d16:	62c1      	str	r1, [r0, #44]	; 0x2c
 8008d18:	2a00      	cmp	r2, #0
 8008d1a:	f04f 0214 	mov.w	r2, #20
 8008d1e:	fb02 5303 	mla	r3, r2, r3, r5
 8008d22:	6942      	ldr	r2, [r0, #20]
 8008d24:	bfa4      	itt	ge
 8008d26:	f1c1 0107 	rsbge	r1, r1, #7
 8008d2a:	6181      	strge	r1, [r0, #24]
 8008d2c:	429a      	cmp	r2, r3
 8008d2e:	d11b      	bne.n	8008d68 <vTaskPriorityDisinheritAfterTimeout+0xa0>
 8008d30:	1d01      	adds	r1, r0, #4
 8008d32:	4608      	mov	r0, r1
 8008d34:	9101      	str	r1, [sp, #4]
 8008d36:	f7fe ffd7 	bl	8007ce8 <uxListRemove>
 8008d3a:	6ae4      	ldr	r4, [r4, #44]	; 0x2c
 8008d3c:	4a0d      	ldr	r2, [pc, #52]	; (8008d74 <vTaskPriorityDisinheritAfterTimeout+0xac>)
 8008d3e:	9901      	ldr	r1, [sp, #4]
 8008d40:	b928      	cbnz	r0, 8008d4e <vTaskPriorityDisinheritAfterTimeout+0x86>
 8008d42:	6813      	ldr	r3, [r2, #0]
 8008d44:	2001      	movs	r0, #1
 8008d46:	40a0      	lsls	r0, r4
 8008d48:	ea23 0300 	bic.w	r3, r3, r0
 8008d4c:	6013      	str	r3, [r2, #0]
 8008d4e:	6810      	ldr	r0, [r2, #0]
 8008d50:	2301      	movs	r3, #1
 8008d52:	40a3      	lsls	r3, r4
 8008d54:	4303      	orrs	r3, r0
 8008d56:	2014      	movs	r0, #20
 8008d58:	fb00 5004 	mla	r0, r0, r4, r5
 8008d5c:	6013      	str	r3, [r2, #0]
 8008d5e:	b003      	add	sp, #12
 8008d60:	e8bd 4030 	ldmia.w	sp!, {r4, r5, lr}
 8008d64:	f7fe bf9d 	b.w	8007ca2 <vListInsertEnd>
 8008d68:	b003      	add	sp, #12
 8008d6a:	bd30      	pop	{r4, r5, pc}
 8008d6c:	20000914 	.word	0x20000914
 8008d70:	20000920 	.word	0x20000920
 8008d74:	200009bc 	.word	0x200009bc

08008d78 <pvTaskIncrementMutexHeldCount>:
 8008d78:	4b04      	ldr	r3, [pc, #16]	; (8008d8c <pvTaskIncrementMutexHeldCount+0x14>)
 8008d7a:	681a      	ldr	r2, [r3, #0]
 8008d7c:	b11a      	cbz	r2, 8008d86 <pvTaskIncrementMutexHeldCount+0xe>
 8008d7e:	6819      	ldr	r1, [r3, #0]
 8008d80:	6c8a      	ldr	r2, [r1, #72]	; 0x48
 8008d82:	3201      	adds	r2, #1
 8008d84:	648a      	str	r2, [r1, #72]	; 0x48
 8008d86:	6818      	ldr	r0, [r3, #0]
 8008d88:	4770      	bx	lr
 8008d8a:	bf00      	nop
 8008d8c:	20000914 	.word	0x20000914

08008d90 <prvPortStartFirstTask>:
 8008d90:	4808      	ldr	r0, [pc, #32]	; (8008db4 <prvPortStartFirstTask+0x24>)
 8008d92:	6800      	ldr	r0, [r0, #0]
 8008d94:	6800      	ldr	r0, [r0, #0]
 8008d96:	f380 8808 	msr	MSP, r0
 8008d9a:	f04f 0000 	mov.w	r0, #0
 8008d9e:	f380 8814 	msr	CONTROL, r0
 8008da2:	b662      	cpsie	i
 8008da4:	b661      	cpsie	f
 8008da6:	f3bf 8f4f 	dsb	sy
 8008daa:	f3bf 8f6f 	isb	sy
 8008dae:	df00      	svc	0
 8008db0:	bf00      	nop
 8008db2:	0000      	.short	0x0000
 8008db4:	e000ed08 	.word	0xe000ed08

08008db8 <vPortEnableVFP>:
 8008db8:	f8df 000c 	ldr.w	r0, [pc, #12]	; 8008dc8 <vPortEnableVFP+0x10>
 8008dbc:	6801      	ldr	r1, [r0, #0]
 8008dbe:	f441 0170 	orr.w	r1, r1, #15728640	; 0xf00000
 8008dc2:	6001      	str	r1, [r0, #0]
 8008dc4:	4770      	bx	lr
 8008dc6:	0000      	.short	0x0000
 8008dc8:	e000ed88 	.word	0xe000ed88

08008dcc <prvTaskExitError>:
 8008dcc:	b082      	sub	sp, #8
 8008dce:	2300      	movs	r3, #0
 8008dd0:	9301      	str	r3, [sp, #4]
 8008dd2:	4b0d      	ldr	r3, [pc, #52]	; (8008e08 <prvTaskExitError+0x3c>)
 8008dd4:	681b      	ldr	r3, [r3, #0]
 8008dd6:	3301      	adds	r3, #1
 8008dd8:	d008      	beq.n	8008dec <prvTaskExitError+0x20>
 8008dda:	f04f 0350 	mov.w	r3, #80	; 0x50
 8008dde:	f383 8811 	msr	BASEPRI, r3
 8008de2:	f3bf 8f6f 	isb	sy
 8008de6:	f3bf 8f4f 	dsb	sy
 8008dea:	e7fe      	b.n	8008dea <prvTaskExitError+0x1e>
 8008dec:	f04f 0350 	mov.w	r3, #80	; 0x50
 8008df0:	f383 8811 	msr	BASEPRI, r3
 8008df4:	f3bf 8f6f 	isb	sy
 8008df8:	f3bf 8f4f 	dsb	sy
 8008dfc:	9b01      	ldr	r3, [sp, #4]
 8008dfe:	2b00      	cmp	r3, #0
 8008e00:	d0fc      	beq.n	8008dfc <prvTaskExitError+0x30>
 8008e02:	b002      	add	sp, #8
 8008e04:	4770      	bx	lr
 8008e06:	bf00      	nop
 8008e08:	2000000c 	.word	0x2000000c

08008e0c <pxPortInitialiseStack>:
 8008e0c:	f04f 7380 	mov.w	r3, #16777216	; 0x1000000
 8008e10:	f840 3c04 	str.w	r3, [r0, #-4]
 8008e14:	4b07      	ldr	r3, [pc, #28]	; (8008e34 <pxPortInitialiseStack+0x28>)
 8008e16:	f840 3c0c 	str.w	r3, [r0, #-12]
 8008e1a:	f021 0101 	bic.w	r1, r1, #1
 8008e1e:	f06f 0302 	mvn.w	r3, #2
 8008e22:	f840 1c08 	str.w	r1, [r0, #-8]
 8008e26:	f840 2c20 	str.w	r2, [r0, #-32]
 8008e2a:	f840 3c24 	str.w	r3, [r0, #-36]
 8008e2e:	3844      	subs	r0, #68	; 0x44
 8008e30:	4770      	bx	lr
 8008e32:	bf00      	nop
 8008e34:	08008dcd 	.word	0x08008dcd
	...

08008e40 <SVC_Handler>:
 8008e40:	4b07      	ldr	r3, [pc, #28]	; (8008e60 <pxCurrentTCBConst2>)
 8008e42:	6819      	ldr	r1, [r3, #0]
 8008e44:	6808      	ldr	r0, [r1, #0]
 8008e46:	e8b0 4ff0 	ldmia.w	r0!, {r4, r5, r6, r7, r8, r9, sl, fp, lr}
 8008e4a:	f380 8809 	msr	PSP, r0
 8008e4e:	f3bf 8f6f 	isb	sy
 8008e52:	f04f 0000 	mov.w	r0, #0
 8008e56:	f380 8811 	msr	BASEPRI, r0
 8008e5a:	4770      	bx	lr
 8008e5c:	f3af 8000 	nop.w

08008e60 <pxCurrentTCBConst2>:
 8008e60:	20000914 	.word	0x20000914

08008e64 <vPortEnterCritical>:
 8008e64:	f04f 0350 	mov.w	r3, #80	; 0x50
 8008e68:	f383 8811 	msr	BASEPRI, r3
 8008e6c:	f3bf 8f6f 	isb	sy
 8008e70:	f3bf 8f4f 	dsb	sy
 8008e74:	4a0a      	ldr	r2, [pc, #40]	; (8008ea0 <vPortEnterCritical+0x3c>)
 8008e76:	6813      	ldr	r3, [r2, #0]
 8008e78:	3301      	adds	r3, #1
 8008e7a:	2b01      	cmp	r3, #1
 8008e7c:	6013      	str	r3, [r2, #0]
 8008e7e:	d10d      	bne.n	8008e9c <vPortEnterCritical+0x38>
 8008e80:	4b08      	ldr	r3, [pc, #32]	; (8008ea4 <vPortEnterCritical+0x40>)
 8008e82:	681b      	ldr	r3, [r3, #0]
 8008e84:	f013 0fff 	tst.w	r3, #255	; 0xff
 8008e88:	d008      	beq.n	8008e9c <vPortEnterCritical+0x38>
 8008e8a:	f04f 0350 	mov.w	r3, #80	; 0x50
 8008e8e:	f383 8811 	msr	BASEPRI, r3
 8008e92:	f3bf 8f6f 	isb	sy
 8008e96:	f3bf 8f4f 	dsb	sy
 8008e9a:	e7fe      	b.n	8008e9a <vPortEnterCritical+0x36>
 8008e9c:	4770      	bx	lr
 8008e9e:	bf00      	nop
 8008ea0:	2000000c 	.word	0x2000000c
 8008ea4:	e000ed04 	.word	0xe000ed04

08008ea8 <vPortExitCritical>:
 8008ea8:	4a08      	ldr	r2, [pc, #32]	; (8008ecc <vPortExitCritical+0x24>)
 8008eaa:	6813      	ldr	r3, [r2, #0]
 8008eac:	b943      	cbnz	r3, 8008ec0 <vPortExitCritical+0x18>
 8008eae:	f04f 0350 	mov.w	r3, #80	; 0x50
 8008eb2:	f383 8811 	msr	BASEPRI, r3
 8008eb6:	f3bf 8f6f 	isb	sy
 8008eba:	f3bf 8f4f 	dsb	sy
 8008ebe:	e7fe      	b.n	8008ebe <vPortExitCritical+0x16>
 8008ec0:	3b01      	subs	r3, #1
 8008ec2:	6013      	str	r3, [r2, #0]
 8008ec4:	b90b      	cbnz	r3, 8008eca <vPortExitCritical+0x22>
 8008ec6:	f383 8811 	msr	BASEPRI, r3
 8008eca:	4770      	bx	lr
 8008ecc:	2000000c 	.word	0x2000000c

08008ed0 <PendSV_Handler>:
 8008ed0:	f3ef 8009 	mrs	r0, PSP
 8008ed4:	f3bf 8f6f 	isb	sy
 8008ed8:	4b15      	ldr	r3, [pc, #84]	; (8008f30 <pxCurrentTCBConst>)
 8008eda:	681a      	ldr	r2, [r3, #0]
 8008edc:	f01e 0f10 	tst.w	lr, #16
 8008ee0:	bf08      	it	eq
 8008ee2:	ed20 8a10 	vstmdbeq	r0!, {s16-s31}
 8008ee6:	e920 4ff0 	stmdb	r0!, {r4, r5, r6, r7, r8, r9, sl, fp, lr}
 8008eea:	6010      	str	r0, [r2, #0]
 8008eec:	e92d 0009 	stmdb	sp!, {r0, r3}
 8008ef0:	f04f 0050 	mov.w	r0, #80	; 0x50
 8008ef4:	f380 8811 	msr	BASEPRI, r0
 8008ef8:	f3bf 8f4f 	dsb	sy
 8008efc:	f3bf 8f6f 	isb	sy
 8008f00:	f7ff fd4c 	bl	800899c <vTaskSwitchContext>
 8008f04:	f04f 0000 	mov.w	r0, #0
 8008f08:	f380 8811 	msr	BASEPRI, r0
 8008f0c:	bc09      	pop	{r0, r3}
 8008f0e:	6819      	ldr	r1, [r3, #0]
 8008f10:	6808      	ldr	r0, [r1, #0]
 8008f12:	e8b0 4ff0 	ldmia.w	r0!, {r4, r5, r6, r7, r8, r9, sl, fp, lr}
 8008f16:	f01e 0f10 	tst.w	lr, #16
 8008f1a:	bf08      	it	eq
 8008f1c:	ecb0 8a10 	vldmiaeq	r0!, {s16-s31}
 8008f20:	f380 8809 	msr	PSP, r0
 8008f24:	f3bf 8f6f 	isb	sy
 8008f28:	4770      	bx	lr
 8008f2a:	bf00      	nop
 8008f2c:	f3af 8000 	nop.w

08008f30 <pxCurrentTCBConst>:
 8008f30:	20000914 	.word	0x20000914

08008f34 <SysTick_Handler>:
 8008f34:	b508      	push	{r3, lr}
 8008f36:	f04f 0350 	mov.w	r3, #80	; 0x50
 8008f3a:	f383 8811 	msr	BASEPRI, r3
 8008f3e:	f3bf 8f6f 	isb	sy
 8008f42:	f3bf 8f4f 	dsb	sy
 8008f46:	f7ff fc19 	bl	800877c <xTaskIncrementTick>
 8008f4a:	b118      	cbz	r0, 8008f54 <SysTick_Handler+0x20>
 8008f4c:	4b03      	ldr	r3, [pc, #12]	; (8008f5c <SysTick_Handler+0x28>)
 8008f4e:	f04f 5280 	mov.w	r2, #268435456	; 0x10000000
 8008f52:	601a      	str	r2, [r3, #0]
 8008f54:	2300      	movs	r3, #0
 8008f56:	f383 8811 	msr	BASEPRI, r3
 8008f5a:	bd08      	pop	{r3, pc}
 8008f5c:	e000ed04 	.word	0xe000ed04

08008f60 <vPortSetupTimerInterrupt>:
 8008f60:	4a08      	ldr	r2, [pc, #32]	; (8008f84 <vPortSetupTimerInterrupt+0x24>)
 8008f62:	4909      	ldr	r1, [pc, #36]	; (8008f88 <vPortSetupTimerInterrupt+0x28>)
 8008f64:	2300      	movs	r3, #0
 8008f66:	6013      	str	r3, [r2, #0]
 8008f68:	600b      	str	r3, [r1, #0]
 8008f6a:	4b08      	ldr	r3, [pc, #32]	; (8008f8c <vPortSetupTimerInterrupt+0x2c>)
 8008f6c:	f44f 717a 	mov.w	r1, #1000	; 0x3e8
 8008f70:	681b      	ldr	r3, [r3, #0]
 8008f72:	fbb3 f3f1 	udiv	r3, r3, r1
 8008f76:	4906      	ldr	r1, [pc, #24]	; (8008f90 <vPortSetupTimerInterrupt+0x30>)
 8008f78:	3b01      	subs	r3, #1
 8008f7a:	600b      	str	r3, [r1, #0]
 8008f7c:	2307      	movs	r3, #7
 8008f7e:	6013      	str	r3, [r2, #0]
 8008f80:	4770      	bx	lr
 8008f82:	bf00      	nop
 8008f84:	e000e010 	.word	0xe000e010
 8008f88:	e000e018 	.word	0xe000e018
 8008f8c:	20000000 	.word	0x20000000
 8008f90:	e000e014 	.word	0xe000e014

08008f94 <xPortStartScheduler>:
 8008f94:	4b38      	ldr	r3, [pc, #224]	; (8009078 <xPortStartScheduler+0xe4>)
 8008f96:	4a39      	ldr	r2, [pc, #228]	; (800907c <xPortStartScheduler+0xe8>)
 8008f98:	b513      	push	{r0, r1, r4, lr}
 8008f9a:	6819      	ldr	r1, [r3, #0]
 8008f9c:	4291      	cmp	r1, r2
 8008f9e:	d108      	bne.n	8008fb2 <xPortStartScheduler+0x1e>
 8008fa0:	f04f 0350 	mov.w	r3, #80	; 0x50
 8008fa4:	f383 8811 	msr	BASEPRI, r3
 8008fa8:	f3bf 8f6f 	isb	sy
 8008fac:	f3bf 8f4f 	dsb	sy
 8008fb0:	e7fe      	b.n	8008fb0 <xPortStartScheduler+0x1c>
 8008fb2:	681a      	ldr	r2, [r3, #0]
 8008fb4:	4b32      	ldr	r3, [pc, #200]	; (8009080 <xPortStartScheduler+0xec>)
 8008fb6:	429a      	cmp	r2, r3
 8008fb8:	d108      	bne.n	8008fcc <xPortStartScheduler+0x38>
 8008fba:	f04f 0350 	mov.w	r3, #80	; 0x50
 8008fbe:	f383 8811 	msr	BASEPRI, r3
 8008fc2:	f3bf 8f6f 	isb	sy
 8008fc6:	f3bf 8f4f 	dsb	sy
 8008fca:	e7fe      	b.n	8008fca <xPortStartScheduler+0x36>
 8008fcc:	4b2d      	ldr	r3, [pc, #180]	; (8009084 <xPortStartScheduler+0xf0>)
 8008fce:	781a      	ldrb	r2, [r3, #0]
 8008fd0:	b2d2      	uxtb	r2, r2
 8008fd2:	9201      	str	r2, [sp, #4]
 8008fd4:	22ff      	movs	r2, #255	; 0xff
 8008fd6:	701a      	strb	r2, [r3, #0]
 8008fd8:	781b      	ldrb	r3, [r3, #0]
 8008fda:	4a2b      	ldr	r2, [pc, #172]	; (8009088 <xPortStartScheduler+0xf4>)
 8008fdc:	b2db      	uxtb	r3, r3
 8008fde:	f88d 3003 	strb.w	r3, [sp, #3]
 8008fe2:	f89d 3003 	ldrb.w	r3, [sp, #3]
 8008fe6:	f003 0350 	and.w	r3, r3, #80	; 0x50
 8008fea:	7013      	strb	r3, [r2, #0]
 8008fec:	4a27      	ldr	r2, [pc, #156]	; (800908c <xPortStartScheduler+0xf8>)
 8008fee:	2307      	movs	r3, #7
 8008ff0:	6013      	str	r3, [r2, #0]
 8008ff2:	2100      	movs	r1, #0
 8008ff4:	f89d 0003 	ldrb.w	r0, [sp, #3]
 8008ff8:	0600      	lsls	r0, r0, #24
 8008ffa:	f103 34ff 	add.w	r4, r3, #4294967295	; 0xffffffff
 8008ffe:	d40c      	bmi.n	800901a <xPortStartScheduler+0x86>
 8009000:	b111      	cbz	r1, 8009008 <xPortStartScheduler+0x74>
 8009002:	2b03      	cmp	r3, #3
 8009004:	6013      	str	r3, [r2, #0]
 8009006:	d011      	beq.n	800902c <xPortStartScheduler+0x98>
 8009008:	f04f 0350 	mov.w	r3, #80	; 0x50
 800900c:	f383 8811 	msr	BASEPRI, r3
 8009010:	f3bf 8f6f 	isb	sy
 8009014:	f3bf 8f4f 	dsb	sy
 8009018:	e7fe      	b.n	8009018 <xPortStartScheduler+0x84>
 800901a:	f89d 3003 	ldrb.w	r3, [sp, #3]
 800901e:	005b      	lsls	r3, r3, #1
 8009020:	b2db      	uxtb	r3, r3
 8009022:	f88d 3003 	strb.w	r3, [sp, #3]
 8009026:	2101      	movs	r1, #1
 8009028:	4623      	mov	r3, r4
 800902a:	e7e3      	b.n	8008ff4 <xPortStartScheduler+0x60>
 800902c:	f44f 7340 	mov.w	r3, #768	; 0x300
 8009030:	6013      	str	r3, [r2, #0]
 8009032:	9b01      	ldr	r3, [sp, #4]
 8009034:	4a13      	ldr	r2, [pc, #76]	; (8009084 <xPortStartScheduler+0xf0>)
 8009036:	b2db      	uxtb	r3, r3
 8009038:	7013      	strb	r3, [r2, #0]
 800903a:	4b15      	ldr	r3, [pc, #84]	; (8009090 <xPortStartScheduler+0xfc>)
 800903c:	681a      	ldr	r2, [r3, #0]
 800903e:	f442 0270 	orr.w	r2, r2, #15728640	; 0xf00000
 8009042:	601a      	str	r2, [r3, #0]
 8009044:	681a      	ldr	r2, [r3, #0]
 8009046:	f042 4270 	orr.w	r2, r2, #4026531840	; 0xf0000000
 800904a:	601a      	str	r2, [r3, #0]
 800904c:	f7ff ff88 	bl	8008f60 <vPortSetupTimerInterrupt>
 8009050:	4b10      	ldr	r3, [pc, #64]	; (8009094 <xPortStartScheduler+0x100>)
 8009052:	2400      	movs	r4, #0
 8009054:	601c      	str	r4, [r3, #0]
 8009056:	f7ff feaf 	bl	8008db8 <vPortEnableVFP>
 800905a:	4a0f      	ldr	r2, [pc, #60]	; (8009098 <xPortStartScheduler+0x104>)
 800905c:	6813      	ldr	r3, [r2, #0]
 800905e:	f043 4340 	orr.w	r3, r3, #3221225472	; 0xc0000000
 8009062:	6013      	str	r3, [r2, #0]
 8009064:	f7ff fe94 	bl	8008d90 <prvPortStartFirstTask>
 8009068:	f7ff fc98 	bl	800899c <vTaskSwitchContext>
 800906c:	f7ff feae 	bl	8008dcc <prvTaskExitError>
 8009070:	4620      	mov	r0, r4
 8009072:	b002      	add	sp, #8
 8009074:	bd10      	pop	{r4, pc}
 8009076:	bf00      	nop
 8009078:	e000ed00 	.word	0xe000ed00
 800907c:	410fc271 	.word	0x410fc271
 8009080:	410fc270 	.word	0x410fc270
 8009084:	e000e400 	.word	0xe000e400
 8009088:	20000a3c 	.word	0x20000a3c
 800908c:	20000a40 	.word	0x20000a40
 8009090:	e000ed20 	.word	0xe000ed20
 8009094:	2000000c 	.word	0x2000000c
 8009098:	e000ef34 	.word	0xe000ef34

0800909c <vPortValidateInterruptPriority>:
 800909c:	f3ef 8305 	mrs	r3, IPSR
 80090a0:	2b0f      	cmp	r3, #15
 80090a2:	d90e      	bls.n	80090c2 <vPortValidateInterruptPriority+0x26>
 80090a4:	4a10      	ldr	r2, [pc, #64]	; (80090e8 <vPortValidateInterruptPriority+0x4c>)
 80090a6:	5c9b      	ldrb	r3, [r3, r2]
 80090a8:	4a10      	ldr	r2, [pc, #64]	; (80090ec <vPortValidateInterruptPriority+0x50>)
 80090aa:	7812      	ldrb	r2, [r2, #0]
 80090ac:	429a      	cmp	r2, r3
 80090ae:	d908      	bls.n	80090c2 <vPortValidateInterruptPriority+0x26>
 80090b0:	f04f 0350 	mov.w	r3, #80	; 0x50
 80090b4:	f383 8811 	msr	BASEPRI, r3
 80090b8:	f3bf 8f6f 	isb	sy
 80090bc:	f3bf 8f4f 	dsb	sy
 80090c0:	e7fe      	b.n	80090c0 <vPortValidateInterruptPriority+0x24>
 80090c2:	4b0b      	ldr	r3, [pc, #44]	; (80090f0 <vPortValidateInterruptPriority+0x54>)
 80090c4:	4a0b      	ldr	r2, [pc, #44]	; (80090f4 <vPortValidateInterruptPriority+0x58>)
 80090c6:	681b      	ldr	r3, [r3, #0]
 80090c8:	6812      	ldr	r2, [r2, #0]
 80090ca:	f403 63e0 	and.w	r3, r3, #1792	; 0x700
 80090ce:	4293      	cmp	r3, r2
 80090d0:	d908      	bls.n	80090e4 <vPortValidateInterruptPriority+0x48>
 80090d2:	f04f 0350 	mov.w	r3, #80	; 0x50
 80090d6:	f383 8811 	msr	BASEPRI, r3
 80090da:	f3bf 8f6f 	isb	sy
 80090de:	f3bf 8f4f 	dsb	sy
 80090e2:	e7fe      	b.n	80090e2 <vPortValidateInterruptPriority+0x46>
 80090e4:	4770      	bx	lr
 80090e6:	bf00      	nop
 80090e8:	e000e3f0 	.word	0xe000e3f0
 80090ec:	20000a3c 	.word	0x20000a3c
 80090f0:	e000ed0c 	.word	0xe000ed0c
 80090f4:	20000a40 	.word	0x20000a40

080090f8 <prvInsertBlockIntoFreeList>:
 80090f8:	b510      	push	{r4, lr}
 80090fa:	4b0f      	ldr	r3, [pc, #60]	; (8009138 <prvInsertBlockIntoFreeList+0x40>)
 80090fc:	461a      	mov	r2, r3
 80090fe:	681b      	ldr	r3, [r3, #0]
 8009100:	4283      	cmp	r3, r0
 8009102:	d3fb      	bcc.n	80090fc <prvInsertBlockIntoFreeList+0x4>
 8009104:	6854      	ldr	r4, [r2, #4]
 8009106:	1911      	adds	r1, r2, r4
 8009108:	4288      	cmp	r0, r1
 800910a:	bf01      	itttt	eq
 800910c:	6841      	ldreq	r1, [r0, #4]
 800910e:	4610      	moveq	r0, r2
 8009110:	1909      	addeq	r1, r1, r4
 8009112:	6051      	streq	r1, [r2, #4]
 8009114:	6844      	ldr	r4, [r0, #4]
 8009116:	1901      	adds	r1, r0, r4
 8009118:	428b      	cmp	r3, r1
 800911a:	d107      	bne.n	800912c <prvInsertBlockIntoFreeList+0x34>
 800911c:	4907      	ldr	r1, [pc, #28]	; (800913c <prvInsertBlockIntoFreeList+0x44>)
 800911e:	6809      	ldr	r1, [r1, #0]
 8009120:	428b      	cmp	r3, r1
 8009122:	bf1f      	itttt	ne
 8009124:	6859      	ldrne	r1, [r3, #4]
 8009126:	681b      	ldrne	r3, [r3, #0]
 8009128:	1909      	addne	r1, r1, r4
 800912a:	6041      	strne	r1, [r0, #4]
 800912c:	4290      	cmp	r0, r2
 800912e:	6003      	str	r3, [r0, #0]
 8009130:	bf18      	it	ne
 8009132:	6010      	strne	r0, [r2, #0]
 8009134:	bd10      	pop	{r4, pc}
 8009136:	bf00      	nop
 8009138:	2000875c 	.word	0x2000875c
 800913c:	20000a44 	.word	0x20000a44

08009140 <pvPortMalloc>:
 8009140:	e92d 41f0 	stmdb	sp!, {r4, r5, r6, r7, r8, lr}
 8009144:	4604      	mov	r4, r0
 8009146:	f7ff fb0b 	bl	8008760 <vTaskSuspendAll>
 800914a:	4b3e      	ldr	r3, [pc, #248]	; (8009244 <pvPortMalloc+0x104>)
 800914c:	483e      	ldr	r0, [pc, #248]	; (8009248 <pvPortMalloc+0x108>)
 800914e:	681a      	ldr	r2, [r3, #0]
 8009150:	469c      	mov	ip, r3
 8009152:	b9d2      	cbnz	r2, 800918a <pvPortMalloc+0x4a>
 8009154:	4a3d      	ldr	r2, [pc, #244]	; (800924c <pvPortMalloc+0x10c>)
 8009156:	4b3e      	ldr	r3, [pc, #248]	; (8009250 <pvPortMalloc+0x110>)
 8009158:	0755      	lsls	r5, r2, #29
 800915a:	bf1c      	itt	ne
 800915c:	3207      	addne	r2, #7
 800915e:	f022 0207 	bicne.w	r2, r2, #7
 8009162:	2100      	movs	r1, #0
 8009164:	601a      	str	r2, [r3, #0]
 8009166:	6059      	str	r1, [r3, #4]
 8009168:	4b3a      	ldr	r3, [pc, #232]	; (8009254 <pvPortMalloc+0x114>)
 800916a:	f023 0307 	bic.w	r3, r3, #7
 800916e:	e9c3 1100 	strd	r1, r1, [r3]
 8009172:	1a99      	subs	r1, r3, r2
 8009174:	e9c2 3100 	strd	r3, r1, [r2]
 8009178:	f8cc 3000 	str.w	r3, [ip]
 800917c:	4b36      	ldr	r3, [pc, #216]	; (8009258 <pvPortMalloc+0x118>)
 800917e:	6019      	str	r1, [r3, #0]
 8009180:	4b36      	ldr	r3, [pc, #216]	; (800925c <pvPortMalloc+0x11c>)
 8009182:	6019      	str	r1, [r3, #0]
 8009184:	f04f 4300 	mov.w	r3, #2147483648	; 0x80000000
 8009188:	6003      	str	r3, [r0, #0]
 800918a:	6807      	ldr	r7, [r0, #0]
 800918c:	4227      	tst	r7, r4
 800918e:	d153      	bne.n	8009238 <pvPortMalloc+0xf8>
 8009190:	2c00      	cmp	r4, #0
 8009192:	d044      	beq.n	800921e <pvPortMalloc+0xde>
 8009194:	f104 0308 	add.w	r3, r4, #8
 8009198:	0761      	lsls	r1, r4, #29
 800919a:	bf1c      	itt	ne
 800919c:	f023 0307 	bicne.w	r3, r3, #7
 80091a0:	3308      	addne	r3, #8
 80091a2:	2b00      	cmp	r3, #0
 80091a4:	d048      	beq.n	8009238 <pvPortMalloc+0xf8>
 80091a6:	4a2d      	ldr	r2, [pc, #180]	; (800925c <pvPortMalloc+0x11c>)
 80091a8:	6816      	ldr	r6, [r2, #0]
 80091aa:	429e      	cmp	r6, r3
 80091ac:	4690      	mov	r8, r2
 80091ae:	d343      	bcc.n	8009238 <pvPortMalloc+0xf8>
 80091b0:	4a27      	ldr	r2, [pc, #156]	; (8009250 <pvPortMalloc+0x110>)
 80091b2:	6815      	ldr	r5, [r2, #0]
 80091b4:	6869      	ldr	r1, [r5, #4]
 80091b6:	4299      	cmp	r1, r3
 80091b8:	d201      	bcs.n	80091be <pvPortMalloc+0x7e>
 80091ba:	6828      	ldr	r0, [r5, #0]
 80091bc:	b9a8      	cbnz	r0, 80091ea <pvPortMalloc+0xaa>
 80091be:	f8dc 0000 	ldr.w	r0, [ip]
 80091c2:	42a8      	cmp	r0, r5
 80091c4:	d038      	beq.n	8009238 <pvPortMalloc+0xf8>
 80091c6:	1ac9      	subs	r1, r1, r3
 80091c8:	6828      	ldr	r0, [r5, #0]
 80091ca:	6814      	ldr	r4, [r2, #0]
 80091cc:	6010      	str	r0, [r2, #0]
 80091ce:	2910      	cmp	r1, #16
 80091d0:	d912      	bls.n	80091f8 <pvPortMalloc+0xb8>
 80091d2:	18e8      	adds	r0, r5, r3
 80091d4:	0742      	lsls	r2, r0, #29
 80091d6:	d00b      	beq.n	80091f0 <pvPortMalloc+0xb0>
 80091d8:	f04f 0350 	mov.w	r3, #80	; 0x50
 80091dc:	f383 8811 	msr	BASEPRI, r3
 80091e0:	f3bf 8f6f 	isb	sy
 80091e4:	f3bf 8f4f 	dsb	sy
 80091e8:	e7fe      	b.n	80091e8 <pvPortMalloc+0xa8>
 80091ea:	462a      	mov	r2, r5
 80091ec:	4605      	mov	r5, r0
 80091ee:	e7e1      	b.n	80091b4 <pvPortMalloc+0x74>
 80091f0:	6041      	str	r1, [r0, #4]
 80091f2:	606b      	str	r3, [r5, #4]
 80091f4:	f7ff ff80 	bl	80090f8 <prvInsertBlockIntoFreeList>
 80091f8:	686b      	ldr	r3, [r5, #4]
 80091fa:	4917      	ldr	r1, [pc, #92]	; (8009258 <pvPortMalloc+0x118>)
 80091fc:	4a18      	ldr	r2, [pc, #96]	; (8009260 <pvPortMalloc+0x120>)
 80091fe:	6808      	ldr	r0, [r1, #0]
 8009200:	1af6      	subs	r6, r6, r3
 8009202:	431f      	orrs	r7, r3
 8009204:	2300      	movs	r3, #0
 8009206:	602b      	str	r3, [r5, #0]
 8009208:	6813      	ldr	r3, [r2, #0]
 800920a:	f8c8 6000 	str.w	r6, [r8]
 800920e:	4286      	cmp	r6, r0
 8009210:	f103 0301 	add.w	r3, r3, #1
 8009214:	bf38      	it	cc
 8009216:	600e      	strcc	r6, [r1, #0]
 8009218:	3408      	adds	r4, #8
 800921a:	606f      	str	r7, [r5, #4]
 800921c:	6013      	str	r3, [r2, #0]
 800921e:	f7ff fb45 	bl	80088ac <xTaskResumeAll>
 8009222:	0763      	lsls	r3, r4, #29
 8009224:	d00a      	beq.n	800923c <pvPortMalloc+0xfc>
 8009226:	f04f 0350 	mov.w	r3, #80	; 0x50
 800922a:	f383 8811 	msr	BASEPRI, r3
 800922e:	f3bf 8f6f 	isb	sy
 8009232:	f3bf 8f4f 	dsb	sy
 8009236:	e7fe      	b.n	8009236 <pvPortMalloc+0xf6>
 8009238:	2400      	movs	r4, #0
 800923a:	e7f0      	b.n	800921e <pvPortMalloc+0xde>
 800923c:	4620      	mov	r0, r4
 800923e:	e8bd 81f0 	ldmia.w	sp!, {r4, r5, r6, r7, r8, pc}
 8009242:	bf00      	nop
 8009244:	20000a44 	.word	0x20000a44
 8009248:	20008748 	.word	0x20008748
 800924c:	20000a48 	.word	0x20000a48
 8009250:	2000875c 	.word	0x2000875c
 8009254:	20008740 	.word	0x20008740
 8009258:	20008750 	.word	0x20008750
 800925c:	2000874c 	.word	0x2000874c
 8009260:	20008754 	.word	0x20008754

08009264 <vPortFree>:
 8009264:	b510      	push	{r4, lr}
 8009266:	4604      	mov	r4, r0
 8009268:	b390      	cbz	r0, 80092d0 <vPortFree+0x6c>
 800926a:	4a1a      	ldr	r2, [pc, #104]	; (80092d4 <vPortFree+0x70>)
 800926c:	f850 3c04 	ldr.w	r3, [r0, #-4]
 8009270:	6812      	ldr	r2, [r2, #0]
 8009272:	4213      	tst	r3, r2
 8009274:	d108      	bne.n	8009288 <vPortFree+0x24>
 8009276:	f04f 0350 	mov.w	r3, #80	; 0x50
 800927a:	f383 8811 	msr	BASEPRI, r3
 800927e:	f3bf 8f6f 	isb	sy
 8009282:	f3bf 8f4f 	dsb	sy
 8009286:	e7fe      	b.n	8009286 <vPortFree+0x22>
 8009288:	f850 1c08 	ldr.w	r1, [r0, #-8]
 800928c:	b141      	cbz	r1, 80092a0 <vPortFree+0x3c>
 800928e:	f04f 0350 	mov.w	r3, #80	; 0x50
 8009292:	f383 8811 	msr	BASEPRI, r3
 8009296:	f3bf 8f6f 	isb	sy
 800929a:	f3bf 8f4f 	dsb	sy
 800929e:	e7fe      	b.n	800929e <vPortFree+0x3a>
 80092a0:	ea23 0302 	bic.w	r3, r3, r2
 80092a4:	f840 3c04 	str.w	r3, [r0, #-4]
 80092a8:	f7ff fa5a 	bl	8008760 <vTaskSuspendAll>
 80092ac:	4a0a      	ldr	r2, [pc, #40]	; (80092d8 <vPortFree+0x74>)
 80092ae:	f854 3c04 	ldr.w	r3, [r4, #-4]
 80092b2:	6811      	ldr	r1, [r2, #0]
 80092b4:	f1a4 0008 	sub.w	r0, r4, #8
 80092b8:	440b      	add	r3, r1
 80092ba:	6013      	str	r3, [r2, #0]
 80092bc:	f7ff ff1c 	bl	80090f8 <prvInsertBlockIntoFreeList>
 80092c0:	4a06      	ldr	r2, [pc, #24]	; (80092dc <vPortFree+0x78>)
 80092c2:	6813      	ldr	r3, [r2, #0]
 80092c4:	e8bd 4010 	ldmia.w	sp!, {r4, lr}
 80092c8:	3301      	adds	r3, #1
 80092ca:	6013      	str	r3, [r2, #0]
 80092cc:	f7ff baee 	b.w	80088ac <xTaskResumeAll>
 80092d0:	bd10      	pop	{r4, pc}
 80092d2:	bf00      	nop
 80092d4:	20008748 	.word	0x20008748
 80092d8:	2000874c 	.word	0x2000874c
 80092dc:	20008758 	.word	0x20008758

080092e0 <extIntInit>:
 80092e0:	2000      	movs	r0, #0
 80092e2:	4770      	bx	lr

080092e4 <extIntEnableIrq>:
 80092e4:	4b02      	ldr	r3, [pc, #8]	; (80092f0 <extIntEnableIrq+0xc>)
 80092e6:	f44f 6280 	mov.w	r2, #1024	; 0x400
 80092ea:	601a      	str	r2, [r3, #0]
 80092ec:	4770      	bx	lr
 80092ee:	bf00      	nop
 80092f0:	e000e100 	.word	0xe000e100

080092f4 <extIntDisableIrq>:
 80092f4:	4b04      	ldr	r3, [pc, #16]	; (8009308 <extIntDisableIrq+0x14>)
 80092f6:	f44f 6280 	mov.w	r2, #1024	; 0x400
 80092fa:	f8c3 2080 	str.w	r2, [r3, #128]	; 0x80
 80092fe:	f3bf 8f4f 	dsb	sy
 8009302:	f3bf 8f6f 	isb	sy
 8009306:	4770      	bx	lr
 8009308:	e000e100 	.word	0xe000e100

0800930c <HAL_GPIO_EXTI_Callback>:
 800930c:	2820      	cmp	r0, #32
 800930e:	d102      	bne.n	8009316 <HAL_GPIO_EXTI_Callback+0xa>
 8009310:	4801      	ldr	r0, [pc, #4]	; (8009318 <HAL_GPIO_EXTI_Callback+0xc>)
 8009312:	f7fb bff3 	b.w	80052fc <enc28j60IrqHandler>
 8009316:	4770      	bx	lr
 8009318:	20008944 	.word	0x20008944

0800931c <spiInit>:
 800931c:	2000      	movs	r0, #0
 800931e:	4770      	bx	lr

08009320 <spiSetMode>:
 8009320:	2067      	movs	r0, #103	; 0x67
 8009322:	4770      	bx	lr

08009324 <spiAssertCs>:
 8009324:	b507      	push	{r0, r1, r2, lr}
 8009326:	4807      	ldr	r0, [pc, #28]	; (8009344 <spiAssertCs+0x20>)
 8009328:	2200      	movs	r2, #0
 800932a:	2110      	movs	r1, #16
 800932c:	f7fd fea8 	bl	8007080 <HAL_GPIO_WritePin>
 8009330:	2364      	movs	r3, #100	; 0x64
 8009332:	9301      	str	r3, [sp, #4]
 8009334:	9b01      	ldr	r3, [sp, #4]
 8009336:	b913      	cbnz	r3, 800933e <spiAssertCs+0x1a>
 8009338:	b003      	add	sp, #12
 800933a:	f85d fb04 	ldr.w	pc, [sp], #4
 800933e:	9b01      	ldr	r3, [sp, #4]
 8009340:	3b01      	subs	r3, #1
 8009342:	e7f6      	b.n	8009332 <spiAssertCs+0xe>
 8009344:	40020800 	.word	0x40020800

08009348 <spiDeassertCs>:
 8009348:	b507      	push	{r0, r1, r2, lr}
 800934a:	2364      	movs	r3, #100	; 0x64
 800934c:	9300      	str	r3, [sp, #0]
 800934e:	9b00      	ldr	r3, [sp, #0]
 8009350:	b95b      	cbnz	r3, 800936a <spiDeassertCs+0x22>
 8009352:	4809      	ldr	r0, [pc, #36]	; (8009378 <spiDeassertCs+0x30>)
 8009354:	2201      	movs	r2, #1
 8009356:	2110      	movs	r1, #16
 8009358:	f7fd fe92 	bl	8007080 <HAL_GPIO_WritePin>
 800935c:	2364      	movs	r3, #100	; 0x64
 800935e:	9301      	str	r3, [sp, #4]
 8009360:	9b01      	ldr	r3, [sp, #4]
 8009362:	b92b      	cbnz	r3, 8009370 <spiDeassertCs+0x28>
 8009364:	b003      	add	sp, #12
 8009366:	f85d fb04 	ldr.w	pc, [sp], #4
 800936a:	9b00      	ldr	r3, [sp, #0]
 800936c:	3b01      	subs	r3, #1
 800936e:	e7ed      	b.n	800934c <spiDeassertCs+0x4>
 8009370:	9b01      	ldr	r3, [sp, #4]
 8009372:	3b01      	subs	r3, #1
 8009374:	e7f3      	b.n	800935e <spiDeassertCs+0x16>
 8009376:	bf00      	nop
 8009378:	40020800 	.word	0x40020800

0800937c <spiTransfer>:
 800937c:	b57f      	push	{r0, r1, r2, r3, r4, r5, r6, lr}
 800937e:	2332      	movs	r3, #50	; 0x32
 8009380:	f88d 000f 	strb.w	r0, [sp, #15]
 8009384:	9300      	str	r3, [sp, #0]
 8009386:	f10d 0217 	add.w	r2, sp, #23
 800938a:	2301      	movs	r3, #1
 800938c:	f10d 010f 	add.w	r1, sp, #15
 8009390:	4803      	ldr	r0, [pc, #12]	; (80093a0 <spiTransfer+0x24>)
 8009392:	f7fe fa0f 	bl	80077b4 <HAL_SPI_TransmitReceive>
 8009396:	f89d 0017 	ldrb.w	r0, [sp, #23]
 800939a:	b007      	add	sp, #28
 800939c:	f85d fb04 	ldr.w	pc, [sp], #4
 80093a0:	2000876c 	.word	0x2000876c

080093a4 <spiSetBitrate>:
 80093a4:	2067      	movs	r0, #103	; 0x67
 80093a6:	4770      	bx	lr

080093a8 <__errno>:
 80093a8:	4b01      	ldr	r3, [pc, #4]	; (80093b0 <__errno+0x8>)
 80093aa:	6818      	ldr	r0, [r3, #0]
 80093ac:	4770      	bx	lr
 80093ae:	bf00      	nop
 80093b0:	20000010 	.word	0x20000010

080093b4 <fiprintf>:
 80093b4:	b40e      	push	{r1, r2, r3}
 80093b6:	b503      	push	{r0, r1, lr}
 80093b8:	4601      	mov	r1, r0
 80093ba:	ab03      	add	r3, sp, #12
 80093bc:	4805      	ldr	r0, [pc, #20]	; (80093d4 <fiprintf+0x20>)
 80093be:	f853 2b04 	ldr.w	r2, [r3], #4
 80093c2:	6800      	ldr	r0, [r0, #0]
 80093c4:	9301      	str	r3, [sp, #4]
 80093c6:	f000 f903 	bl	80095d0 <_vfiprintf_r>
 80093ca:	b002      	add	sp, #8
 80093cc:	f85d eb04 	ldr.w	lr, [sp], #4
 80093d0:	b003      	add	sp, #12
 80093d2:	4770      	bx	lr
 80093d4:	20000010 	.word	0x20000010

080093d8 <_fputs_r>:
 80093d8:	b570      	push	{r4, r5, r6, lr}
 80093da:	460e      	mov	r6, r1
 80093dc:	4614      	mov	r4, r2
 80093de:	4605      	mov	r5, r0
 80093e0:	b118      	cbz	r0, 80093ea <_fputs_r+0x12>
 80093e2:	6983      	ldr	r3, [r0, #24]
 80093e4:	b90b      	cbnz	r3, 80093ea <_fputs_r+0x12>
 80093e6:	f000 fde7 	bl	8009fb8 <__sinit>
 80093ea:	4b2b      	ldr	r3, [pc, #172]	; (8009498 <_fputs_r+0xc0>)
 80093ec:	429c      	cmp	r4, r3
 80093ee:	d11e      	bne.n	800942e <_fputs_r+0x56>
 80093f0:	686c      	ldr	r4, [r5, #4]
 80093f2:	6e63      	ldr	r3, [r4, #100]	; 0x64
 80093f4:	07da      	lsls	r2, r3, #31
 80093f6:	d405      	bmi.n	8009404 <_fputs_r+0x2c>
 80093f8:	89a3      	ldrh	r3, [r4, #12]
 80093fa:	059b      	lsls	r3, r3, #22
 80093fc:	d402      	bmi.n	8009404 <_fputs_r+0x2c>
 80093fe:	6da0      	ldr	r0, [r4, #88]	; 0x58
 8009400:	f000 f87d 	bl	80094fe <__retarget_lock_acquire_recursive>
 8009404:	89a3      	ldrh	r3, [r4, #12]
 8009406:	0718      	lsls	r0, r3, #28
 8009408:	d51b      	bpl.n	8009442 <_fputs_r+0x6a>
 800940a:	6923      	ldr	r3, [r4, #16]
 800940c:	b1cb      	cbz	r3, 8009442 <_fputs_r+0x6a>
 800940e:	3e01      	subs	r6, #1
 8009410:	f816 1f01 	ldrb.w	r1, [r6, #1]!
 8009414:	bb39      	cbnz	r1, 8009466 <_fputs_r+0x8e>
 8009416:	6e65      	ldr	r5, [r4, #100]	; 0x64
 8009418:	f015 0501 	ands.w	r5, r5, #1
 800941c:	d139      	bne.n	8009492 <_fputs_r+0xba>
 800941e:	89a3      	ldrh	r3, [r4, #12]
 8009420:	0599      	lsls	r1, r3, #22
 8009422:	d402      	bmi.n	800942a <_fputs_r+0x52>
 8009424:	6da0      	ldr	r0, [r4, #88]	; 0x58
 8009426:	f000 f86b 	bl	8009500 <__retarget_lock_release_recursive>
 800942a:	4628      	mov	r0, r5
 800942c:	bd70      	pop	{r4, r5, r6, pc}
 800942e:	4b1b      	ldr	r3, [pc, #108]	; (800949c <_fputs_r+0xc4>)
 8009430:	429c      	cmp	r4, r3
 8009432:	d101      	bne.n	8009438 <_fputs_r+0x60>
 8009434:	68ac      	ldr	r4, [r5, #8]
 8009436:	e7dc      	b.n	80093f2 <_fputs_r+0x1a>
 8009438:	4b19      	ldr	r3, [pc, #100]	; (80094a0 <_fputs_r+0xc8>)
 800943a:	429c      	cmp	r4, r3
 800943c:	bf08      	it	eq
 800943e:	68ec      	ldreq	r4, [r5, #12]
 8009440:	e7d7      	b.n	80093f2 <_fputs_r+0x1a>
 8009442:	4621      	mov	r1, r4
 8009444:	4628      	mov	r0, r5
 8009446:	f000 fc2f 	bl	8009ca8 <__swsetup_r>
 800944a:	2800      	cmp	r0, #0
 800944c:	d0df      	beq.n	800940e <_fputs_r+0x36>
 800944e:	6e63      	ldr	r3, [r4, #100]	; 0x64
 8009450:	07da      	lsls	r2, r3, #31
 8009452:	d405      	bmi.n	8009460 <_fputs_r+0x88>
 8009454:	89a3      	ldrh	r3, [r4, #12]
 8009456:	059b      	lsls	r3, r3, #22
 8009458:	d402      	bmi.n	8009460 <_fputs_r+0x88>
 800945a:	6da0      	ldr	r0, [r4, #88]	; 0x58
 800945c:	f000 f850 	bl	8009500 <__retarget_lock_release_recursive>
 8009460:	f04f 35ff 	mov.w	r5, #4294967295	; 0xffffffff
 8009464:	e7e1      	b.n	800942a <_fputs_r+0x52>
 8009466:	68a3      	ldr	r3, [r4, #8]
 8009468:	3b01      	subs	r3, #1
 800946a:	2b00      	cmp	r3, #0
 800946c:	60a3      	str	r3, [r4, #8]
 800946e:	da04      	bge.n	800947a <_fputs_r+0xa2>
 8009470:	69a2      	ldr	r2, [r4, #24]
 8009472:	4293      	cmp	r3, r2
 8009474:	db06      	blt.n	8009484 <_fputs_r+0xac>
 8009476:	290a      	cmp	r1, #10
 8009478:	d004      	beq.n	8009484 <_fputs_r+0xac>
 800947a:	6823      	ldr	r3, [r4, #0]
 800947c:	1c5a      	adds	r2, r3, #1
 800947e:	6022      	str	r2, [r4, #0]
 8009480:	7019      	strb	r1, [r3, #0]
 8009482:	e7c5      	b.n	8009410 <_fputs_r+0x38>
 8009484:	4622      	mov	r2, r4
 8009486:	4628      	mov	r0, r5
 8009488:	f000 fbbc 	bl	8009c04 <__swbuf_r>
 800948c:	3001      	adds	r0, #1
 800948e:	d1bf      	bne.n	8009410 <_fputs_r+0x38>
 8009490:	e7dd      	b.n	800944e <_fputs_r+0x76>
 8009492:	460d      	mov	r5, r1
 8009494:	e7c9      	b.n	800942a <_fputs_r+0x52>
 8009496:	bf00      	nop
 8009498:	0800adb0 	.word	0x0800adb0
 800949c:	0800add0 	.word	0x0800add0
 80094a0:	0800ad90 	.word	0x0800ad90

080094a4 <fputs>:
 80094a4:	4b02      	ldr	r3, [pc, #8]	; (80094b0 <fputs+0xc>)
 80094a6:	460a      	mov	r2, r1
 80094a8:	4601      	mov	r1, r0
 80094aa:	6818      	ldr	r0, [r3, #0]
 80094ac:	f7ff bf94 	b.w	80093d8 <_fputs_r>
 80094b0:	20000010 	.word	0x20000010

080094b4 <__libc_init_array>:
 80094b4:	b570      	push	{r4, r5, r6, lr}
 80094b6:	4d0d      	ldr	r5, [pc, #52]	; (80094ec <__libc_init_array+0x38>)
 80094b8:	4c0d      	ldr	r4, [pc, #52]	; (80094f0 <__libc_init_array+0x3c>)
 80094ba:	1b64      	subs	r4, r4, r5
 80094bc:	10a4      	asrs	r4, r4, #2
 80094be:	2600      	movs	r6, #0
 80094c0:	42a6      	cmp	r6, r4
 80094c2:	d109      	bne.n	80094d8 <__libc_init_array+0x24>
 80094c4:	4d0b      	ldr	r5, [pc, #44]	; (80094f4 <__libc_init_array+0x40>)
 80094c6:	4c0c      	ldr	r4, [pc, #48]	; (80094f8 <__libc_init_array+0x44>)
 80094c8:	f001 f974 	bl	800a7b4 <_init>
 80094cc:	1b64      	subs	r4, r4, r5
 80094ce:	10a4      	asrs	r4, r4, #2
 80094d0:	2600      	movs	r6, #0
 80094d2:	42a6      	cmp	r6, r4
 80094d4:	d105      	bne.n	80094e2 <__libc_init_array+0x2e>
 80094d6:	bd70      	pop	{r4, r5, r6, pc}
 80094d8:	f855 3b04 	ldr.w	r3, [r5], #4
 80094dc:	4798      	blx	r3
 80094de:	3601      	adds	r6, #1
 80094e0:	e7ee      	b.n	80094c0 <__libc_init_array+0xc>
 80094e2:	f855 3b04 	ldr.w	r3, [r5], #4
 80094e6:	4798      	blx	r3
 80094e8:	3601      	adds	r6, #1
 80094ea:	e7f2      	b.n	80094d2 <__libc_init_array+0x1e>
 80094ec:	0800adf8 	.word	0x0800adf8
 80094f0:	0800adf8 	.word	0x0800adf8
 80094f4:	0800adf8 	.word	0x0800adf8
 80094f8:	0800adfc 	.word	0x0800adfc

080094fc <__retarget_lock_init_recursive>:
 80094fc:	4770      	bx	lr

080094fe <__retarget_lock_acquire_recursive>:
 80094fe:	4770      	bx	lr

08009500 <__retarget_lock_release_recursive>:
 8009500:	4770      	bx	lr

08009502 <memcmp>:
 8009502:	b530      	push	{r4, r5, lr}
 8009504:	3901      	subs	r1, #1
 8009506:	2400      	movs	r4, #0
 8009508:	42a2      	cmp	r2, r4
 800950a:	d101      	bne.n	8009510 <memcmp+0xe>
 800950c:	2000      	movs	r0, #0
 800950e:	e005      	b.n	800951c <memcmp+0x1a>
 8009510:	5d03      	ldrb	r3, [r0, r4]
 8009512:	3401      	adds	r4, #1
 8009514:	5d0d      	ldrb	r5, [r1, r4]
 8009516:	42ab      	cmp	r3, r5
 8009518:	d0f6      	beq.n	8009508 <memcmp+0x6>
 800951a:	1b58      	subs	r0, r3, r5
 800951c:	bd30      	pop	{r4, r5, pc}

0800951e <memcpy>:
 800951e:	440a      	add	r2, r1
 8009520:	4291      	cmp	r1, r2
 8009522:	f100 33ff 	add.w	r3, r0, #4294967295	; 0xffffffff
 8009526:	d100      	bne.n	800952a <memcpy+0xc>
 8009528:	4770      	bx	lr
 800952a:	b510      	push	{r4, lr}
 800952c:	f811 4b01 	ldrb.w	r4, [r1], #1
 8009530:	f803 4f01 	strb.w	r4, [r3, #1]!
 8009534:	4291      	cmp	r1, r2
 8009536:	d1f9      	bne.n	800952c <memcpy+0xe>
 8009538:	bd10      	pop	{r4, pc}

0800953a <memmove>:
 800953a:	4288      	cmp	r0, r1
 800953c:	b510      	push	{r4, lr}
 800953e:	eb01 0402 	add.w	r4, r1, r2
 8009542:	d902      	bls.n	800954a <memmove+0x10>
 8009544:	4284      	cmp	r4, r0
 8009546:	4623      	mov	r3, r4
 8009548:	d807      	bhi.n	800955a <memmove+0x20>
 800954a:	1e43      	subs	r3, r0, #1
 800954c:	42a1      	cmp	r1, r4
 800954e:	d008      	beq.n	8009562 <memmove+0x28>
 8009550:	f811 2b01 	ldrb.w	r2, [r1], #1
 8009554:	f803 2f01 	strb.w	r2, [r3, #1]!
 8009558:	e7f8      	b.n	800954c <memmove+0x12>
 800955a:	4402      	add	r2, r0
 800955c:	4601      	mov	r1, r0
 800955e:	428a      	cmp	r2, r1
 8009560:	d100      	bne.n	8009564 <memmove+0x2a>
 8009562:	bd10      	pop	{r4, pc}
 8009564:	f813 4d01 	ldrb.w	r4, [r3, #-1]!
 8009568:	f802 4d01 	strb.w	r4, [r2, #-1]!
 800956c:	e7f7      	b.n	800955e <memmove+0x24>

0800956e <memset>:
 800956e:	4402      	add	r2, r0
 8009570:	4603      	mov	r3, r0
 8009572:	4293      	cmp	r3, r2
 8009574:	d100      	bne.n	8009578 <memset+0xa>
 8009576:	4770      	bx	lr
 8009578:	f803 1b01 	strb.w	r1, [r3], #1
 800957c:	e7f9      	b.n	8009572 <memset+0x4>

0800957e <__sfputc_r>:
 800957e:	6893      	ldr	r3, [r2, #8]
 8009580:	3b01      	subs	r3, #1
 8009582:	2b00      	cmp	r3, #0
 8009584:	b410      	push	{r4}
 8009586:	6093      	str	r3, [r2, #8]
 8009588:	da08      	bge.n	800959c <__sfputc_r+0x1e>
 800958a:	6994      	ldr	r4, [r2, #24]
 800958c:	42a3      	cmp	r3, r4
 800958e:	db01      	blt.n	8009594 <__sfputc_r+0x16>
 8009590:	290a      	cmp	r1, #10
 8009592:	d103      	bne.n	800959c <__sfputc_r+0x1e>
 8009594:	f85d 4b04 	ldr.w	r4, [sp], #4
 8009598:	f000 bb34 	b.w	8009c04 <__swbuf_r>
 800959c:	6813      	ldr	r3, [r2, #0]
 800959e:	1c58      	adds	r0, r3, #1
 80095a0:	6010      	str	r0, [r2, #0]
 80095a2:	7019      	strb	r1, [r3, #0]
 80095a4:	4608      	mov	r0, r1
 80095a6:	f85d 4b04 	ldr.w	r4, [sp], #4
 80095aa:	4770      	bx	lr

080095ac <__sfputs_r>:
 80095ac:	b5f8      	push	{r3, r4, r5, r6, r7, lr}
 80095ae:	4606      	mov	r6, r0
 80095b0:	460f      	mov	r7, r1
 80095b2:	4614      	mov	r4, r2
 80095b4:	18d5      	adds	r5, r2, r3
 80095b6:	42ac      	cmp	r4, r5
 80095b8:	d101      	bne.n	80095be <__sfputs_r+0x12>
 80095ba:	2000      	movs	r0, #0
 80095bc:	e007      	b.n	80095ce <__sfputs_r+0x22>
 80095be:	f814 1b01 	ldrb.w	r1, [r4], #1
 80095c2:	463a      	mov	r2, r7
 80095c4:	4630      	mov	r0, r6
 80095c6:	f7ff ffda 	bl	800957e <__sfputc_r>
 80095ca:	1c43      	adds	r3, r0, #1
 80095cc:	d1f3      	bne.n	80095b6 <__sfputs_r+0xa>
 80095ce:	bdf8      	pop	{r3, r4, r5, r6, r7, pc}

080095d0 <_vfiprintf_r>:
 80095d0:	e92d 4ff0 	stmdb	sp!, {r4, r5, r6, r7, r8, r9, sl, fp, lr}
 80095d4:	460d      	mov	r5, r1
 80095d6:	b09d      	sub	sp, #116	; 0x74
 80095d8:	4614      	mov	r4, r2
 80095da:	4698      	mov	r8, r3
 80095dc:	4606      	mov	r6, r0
 80095de:	b118      	cbz	r0, 80095e8 <_vfiprintf_r+0x18>
 80095e0:	6983      	ldr	r3, [r0, #24]
 80095e2:	b90b      	cbnz	r3, 80095e8 <_vfiprintf_r+0x18>
 80095e4:	f000 fce8 	bl	8009fb8 <__sinit>
 80095e8:	4b89      	ldr	r3, [pc, #548]	; (8009810 <_vfiprintf_r+0x240>)
 80095ea:	429d      	cmp	r5, r3
 80095ec:	d11b      	bne.n	8009626 <_vfiprintf_r+0x56>
 80095ee:	6875      	ldr	r5, [r6, #4]
 80095f0:	6e6b      	ldr	r3, [r5, #100]	; 0x64
 80095f2:	07d9      	lsls	r1, r3, #31
 80095f4:	d405      	bmi.n	8009602 <_vfiprintf_r+0x32>
 80095f6:	89ab      	ldrh	r3, [r5, #12]
 80095f8:	059a      	lsls	r2, r3, #22
 80095fa:	d402      	bmi.n	8009602 <_vfiprintf_r+0x32>
 80095fc:	6da8      	ldr	r0, [r5, #88]	; 0x58
 80095fe:	f7ff ff7e 	bl	80094fe <__retarget_lock_acquire_recursive>
 8009602:	89ab      	ldrh	r3, [r5, #12]
 8009604:	071b      	lsls	r3, r3, #28
 8009606:	d501      	bpl.n	800960c <_vfiprintf_r+0x3c>
 8009608:	692b      	ldr	r3, [r5, #16]
 800960a:	b9eb      	cbnz	r3, 8009648 <_vfiprintf_r+0x78>
 800960c:	4629      	mov	r1, r5
 800960e:	4630      	mov	r0, r6
 8009610:	f000 fb4a 	bl	8009ca8 <__swsetup_r>
 8009614:	b1c0      	cbz	r0, 8009648 <_vfiprintf_r+0x78>
 8009616:	6e6b      	ldr	r3, [r5, #100]	; 0x64
 8009618:	07dc      	lsls	r4, r3, #31
 800961a:	d50e      	bpl.n	800963a <_vfiprintf_r+0x6a>
 800961c:	f04f 30ff 	mov.w	r0, #4294967295	; 0xffffffff
 8009620:	b01d      	add	sp, #116	; 0x74
 8009622:	e8bd 8ff0 	ldmia.w	sp!, {r4, r5, r6, r7, r8, r9, sl, fp, pc}
 8009626:	4b7b      	ldr	r3, [pc, #492]	; (8009814 <_vfiprintf_r+0x244>)
 8009628:	429d      	cmp	r5, r3
 800962a:	d101      	bne.n	8009630 <_vfiprintf_r+0x60>
 800962c:	68b5      	ldr	r5, [r6, #8]
 800962e:	e7df      	b.n	80095f0 <_vfiprintf_r+0x20>
 8009630:	4b79      	ldr	r3, [pc, #484]	; (8009818 <_vfiprintf_r+0x248>)
 8009632:	429d      	cmp	r5, r3
 8009634:	bf08      	it	eq
 8009636:	68f5      	ldreq	r5, [r6, #12]
 8009638:	e7da      	b.n	80095f0 <_vfiprintf_r+0x20>
 800963a:	89ab      	ldrh	r3, [r5, #12]
 800963c:	0598      	lsls	r0, r3, #22
 800963e:	d4ed      	bmi.n	800961c <_vfiprintf_r+0x4c>
 8009640:	6da8      	ldr	r0, [r5, #88]	; 0x58
 8009642:	f7ff ff5d 	bl	8009500 <__retarget_lock_release_recursive>
 8009646:	e7e9      	b.n	800961c <_vfiprintf_r+0x4c>
 8009648:	2300      	movs	r3, #0
 800964a:	9309      	str	r3, [sp, #36]	; 0x24
 800964c:	2320      	movs	r3, #32
 800964e:	f88d 3029 	strb.w	r3, [sp, #41]	; 0x29
 8009652:	f8cd 800c 	str.w	r8, [sp, #12]
 8009656:	2330      	movs	r3, #48	; 0x30
 8009658:	f8df 81c0 	ldr.w	r8, [pc, #448]	; 800981c <_vfiprintf_r+0x24c>
 800965c:	f88d 302a 	strb.w	r3, [sp, #42]	; 0x2a
 8009660:	f04f 0901 	mov.w	r9, #1
 8009664:	4623      	mov	r3, r4
 8009666:	469a      	mov	sl, r3
 8009668:	f813 2b01 	ldrb.w	r2, [r3], #1
 800966c:	b10a      	cbz	r2, 8009672 <_vfiprintf_r+0xa2>
 800966e:	2a25      	cmp	r2, #37	; 0x25
 8009670:	d1f9      	bne.n	8009666 <_vfiprintf_r+0x96>
 8009672:	ebba 0b04 	subs.w	fp, sl, r4
 8009676:	d00b      	beq.n	8009690 <_vfiprintf_r+0xc0>
 8009678:	465b      	mov	r3, fp
 800967a:	4622      	mov	r2, r4
 800967c:	4629      	mov	r1, r5
 800967e:	4630      	mov	r0, r6
 8009680:	f7ff ff94 	bl	80095ac <__sfputs_r>
 8009684:	3001      	adds	r0, #1
 8009686:	f000 80aa 	beq.w	80097de <_vfiprintf_r+0x20e>
 800968a:	9a09      	ldr	r2, [sp, #36]	; 0x24
 800968c:	445a      	add	r2, fp
 800968e:	9209      	str	r2, [sp, #36]	; 0x24
 8009690:	f89a 3000 	ldrb.w	r3, [sl]
 8009694:	2b00      	cmp	r3, #0
 8009696:	f000 80a2 	beq.w	80097de <_vfiprintf_r+0x20e>
 800969a:	2300      	movs	r3, #0
 800969c:	f04f 32ff 	mov.w	r2, #4294967295	; 0xffffffff
 80096a0:	e9cd 2305 	strd	r2, r3, [sp, #20]
 80096a4:	f10a 0a01 	add.w	sl, sl, #1
 80096a8:	9304      	str	r3, [sp, #16]
 80096aa:	9307      	str	r3, [sp, #28]
 80096ac:	f88d 3053 	strb.w	r3, [sp, #83]	; 0x53
 80096b0:	931a      	str	r3, [sp, #104]	; 0x68
 80096b2:	4654      	mov	r4, sl
 80096b4:	2205      	movs	r2, #5
 80096b6:	f814 1b01 	ldrb.w	r1, [r4], #1
 80096ba:	4858      	ldr	r0, [pc, #352]	; (800981c <_vfiprintf_r+0x24c>)
 80096bc:	f7f6 fd90 	bl	80001e0 <memchr>
 80096c0:	9a04      	ldr	r2, [sp, #16]
 80096c2:	b9d8      	cbnz	r0, 80096fc <_vfiprintf_r+0x12c>
 80096c4:	06d1      	lsls	r1, r2, #27
 80096c6:	bf44      	itt	mi
 80096c8:	2320      	movmi	r3, #32
 80096ca:	f88d 3053 	strbmi.w	r3, [sp, #83]	; 0x53
 80096ce:	0713      	lsls	r3, r2, #28
 80096d0:	bf44      	itt	mi
 80096d2:	232b      	movmi	r3, #43	; 0x2b
 80096d4:	f88d 3053 	strbmi.w	r3, [sp, #83]	; 0x53
 80096d8:	f89a 3000 	ldrb.w	r3, [sl]
 80096dc:	2b2a      	cmp	r3, #42	; 0x2a
 80096de:	d015      	beq.n	800970c <_vfiprintf_r+0x13c>
 80096e0:	9a07      	ldr	r2, [sp, #28]
 80096e2:	4654      	mov	r4, sl
 80096e4:	2000      	movs	r0, #0
 80096e6:	f04f 0c0a 	mov.w	ip, #10
 80096ea:	4621      	mov	r1, r4
 80096ec:	f811 3b01 	ldrb.w	r3, [r1], #1
 80096f0:	3b30      	subs	r3, #48	; 0x30
 80096f2:	2b09      	cmp	r3, #9
 80096f4:	d94e      	bls.n	8009794 <_vfiprintf_r+0x1c4>
 80096f6:	b1b0      	cbz	r0, 8009726 <_vfiprintf_r+0x156>
 80096f8:	9207      	str	r2, [sp, #28]
 80096fa:	e014      	b.n	8009726 <_vfiprintf_r+0x156>
 80096fc:	eba0 0308 	sub.w	r3, r0, r8
 8009700:	fa09 f303 	lsl.w	r3, r9, r3
 8009704:	4313      	orrs	r3, r2
 8009706:	9304      	str	r3, [sp, #16]
 8009708:	46a2      	mov	sl, r4
 800970a:	e7d2      	b.n	80096b2 <_vfiprintf_r+0xe2>
 800970c:	9b03      	ldr	r3, [sp, #12]
 800970e:	1d19      	adds	r1, r3, #4
 8009710:	681b      	ldr	r3, [r3, #0]
 8009712:	9103      	str	r1, [sp, #12]
 8009714:	2b00      	cmp	r3, #0
 8009716:	bfbb      	ittet	lt
 8009718:	425b      	neglt	r3, r3
 800971a:	f042 0202 	orrlt.w	r2, r2, #2
 800971e:	9307      	strge	r3, [sp, #28]
 8009720:	9307      	strlt	r3, [sp, #28]
 8009722:	bfb8      	it	lt
 8009724:	9204      	strlt	r2, [sp, #16]
 8009726:	7823      	ldrb	r3, [r4, #0]
 8009728:	2b2e      	cmp	r3, #46	; 0x2e
 800972a:	d10c      	bne.n	8009746 <_vfiprintf_r+0x176>
 800972c:	7863      	ldrb	r3, [r4, #1]
 800972e:	2b2a      	cmp	r3, #42	; 0x2a
 8009730:	d135      	bne.n	800979e <_vfiprintf_r+0x1ce>
 8009732:	9b03      	ldr	r3, [sp, #12]
 8009734:	1d1a      	adds	r2, r3, #4
 8009736:	681b      	ldr	r3, [r3, #0]
 8009738:	9203      	str	r2, [sp, #12]
 800973a:	2b00      	cmp	r3, #0
 800973c:	bfb8      	it	lt
 800973e:	f04f 33ff 	movlt.w	r3, #4294967295	; 0xffffffff
 8009742:	3402      	adds	r4, #2
 8009744:	9305      	str	r3, [sp, #20]
 8009746:	f8df a0e4 	ldr.w	sl, [pc, #228]	; 800982c <_vfiprintf_r+0x25c>
 800974a:	7821      	ldrb	r1, [r4, #0]
 800974c:	2203      	movs	r2, #3
 800974e:	4650      	mov	r0, sl
 8009750:	f7f6 fd46 	bl	80001e0 <memchr>
 8009754:	b140      	cbz	r0, 8009768 <_vfiprintf_r+0x198>
 8009756:	2340      	movs	r3, #64	; 0x40
 8009758:	eba0 000a 	sub.w	r0, r0, sl
 800975c:	fa03 f000 	lsl.w	r0, r3, r0
 8009760:	9b04      	ldr	r3, [sp, #16]
 8009762:	4303      	orrs	r3, r0
 8009764:	3401      	adds	r4, #1
 8009766:	9304      	str	r3, [sp, #16]
 8009768:	f814 1b01 	ldrb.w	r1, [r4], #1
 800976c:	482c      	ldr	r0, [pc, #176]	; (8009820 <_vfiprintf_r+0x250>)
 800976e:	f88d 1028 	strb.w	r1, [sp, #40]	; 0x28
 8009772:	2206      	movs	r2, #6
 8009774:	f7f6 fd34 	bl	80001e0 <memchr>
 8009778:	2800      	cmp	r0, #0
 800977a:	d03f      	beq.n	80097fc <_vfiprintf_r+0x22c>
 800977c:	4b29      	ldr	r3, [pc, #164]	; (8009824 <_vfiprintf_r+0x254>)
 800977e:	bb1b      	cbnz	r3, 80097c8 <_vfiprintf_r+0x1f8>
 8009780:	9b03      	ldr	r3, [sp, #12]
 8009782:	3307      	adds	r3, #7
 8009784:	f023 0307 	bic.w	r3, r3, #7
 8009788:	3308      	adds	r3, #8
 800978a:	9303      	str	r3, [sp, #12]
 800978c:	9b09      	ldr	r3, [sp, #36]	; 0x24
 800978e:	443b      	add	r3, r7
 8009790:	9309      	str	r3, [sp, #36]	; 0x24
 8009792:	e767      	b.n	8009664 <_vfiprintf_r+0x94>
 8009794:	fb0c 3202 	mla	r2, ip, r2, r3
 8009798:	460c      	mov	r4, r1
 800979a:	2001      	movs	r0, #1
 800979c:	e7a5      	b.n	80096ea <_vfiprintf_r+0x11a>
 800979e:	2300      	movs	r3, #0
 80097a0:	3401      	adds	r4, #1
 80097a2:	9305      	str	r3, [sp, #20]
 80097a4:	4619      	mov	r1, r3
 80097a6:	f04f 0c0a 	mov.w	ip, #10
 80097aa:	4620      	mov	r0, r4
 80097ac:	f810 2b01 	ldrb.w	r2, [r0], #1
 80097b0:	3a30      	subs	r2, #48	; 0x30
 80097b2:	2a09      	cmp	r2, #9
 80097b4:	d903      	bls.n	80097be <_vfiprintf_r+0x1ee>
 80097b6:	2b00      	cmp	r3, #0
 80097b8:	d0c5      	beq.n	8009746 <_vfiprintf_r+0x176>
 80097ba:	9105      	str	r1, [sp, #20]
 80097bc:	e7c3      	b.n	8009746 <_vfiprintf_r+0x176>
 80097be:	fb0c 2101 	mla	r1, ip, r1, r2
 80097c2:	4604      	mov	r4, r0
 80097c4:	2301      	movs	r3, #1
 80097c6:	e7f0      	b.n	80097aa <_vfiprintf_r+0x1da>
 80097c8:	ab03      	add	r3, sp, #12
 80097ca:	9300      	str	r3, [sp, #0]
 80097cc:	462a      	mov	r2, r5
 80097ce:	4b16      	ldr	r3, [pc, #88]	; (8009828 <_vfiprintf_r+0x258>)
 80097d0:	a904      	add	r1, sp, #16
 80097d2:	4630      	mov	r0, r6
 80097d4:	f3af 8000 	nop.w
 80097d8:	4607      	mov	r7, r0
 80097da:	1c78      	adds	r0, r7, #1
 80097dc:	d1d6      	bne.n	800978c <_vfiprintf_r+0x1bc>
 80097de:	6e6b      	ldr	r3, [r5, #100]	; 0x64
 80097e0:	07d9      	lsls	r1, r3, #31
 80097e2:	d405      	bmi.n	80097f0 <_vfiprintf_r+0x220>
 80097e4:	89ab      	ldrh	r3, [r5, #12]
 80097e6:	059a      	lsls	r2, r3, #22
 80097e8:	d402      	bmi.n	80097f0 <_vfiprintf_r+0x220>
 80097ea:	6da8      	ldr	r0, [r5, #88]	; 0x58
 80097ec:	f7ff fe88 	bl	8009500 <__retarget_lock_release_recursive>
 80097f0:	89ab      	ldrh	r3, [r5, #12]
 80097f2:	065b      	lsls	r3, r3, #25
 80097f4:	f53f af12 	bmi.w	800961c <_vfiprintf_r+0x4c>
 80097f8:	9809      	ldr	r0, [sp, #36]	; 0x24
 80097fa:	e711      	b.n	8009620 <_vfiprintf_r+0x50>
 80097fc:	ab03      	add	r3, sp, #12
 80097fe:	9300      	str	r3, [sp, #0]
 8009800:	462a      	mov	r2, r5
 8009802:	4b09      	ldr	r3, [pc, #36]	; (8009828 <_vfiprintf_r+0x258>)
 8009804:	a904      	add	r1, sp, #16
 8009806:	4630      	mov	r0, r6
 8009808:	f000 f880 	bl	800990c <_printf_i>
 800980c:	e7e4      	b.n	80097d8 <_vfiprintf_r+0x208>
 800980e:	bf00      	nop
 8009810:	0800adb0 	.word	0x0800adb0
 8009814:	0800add0 	.word	0x0800add0
 8009818:	0800ad90 	.word	0x0800ad90
 800981c:	0800ad5c 	.word	0x0800ad5c
 8009820:	0800ad66 	.word	0x0800ad66
 8009824:	00000000 	.word	0x00000000
 8009828:	080095ad 	.word	0x080095ad
 800982c:	0800ad62 	.word	0x0800ad62

08009830 <_printf_common>:
 8009830:	e92d 47f0 	stmdb	sp!, {r4, r5, r6, r7, r8, r9, sl, lr}
 8009834:	4616      	mov	r6, r2
 8009836:	4699      	mov	r9, r3
 8009838:	688a      	ldr	r2, [r1, #8]
 800983a:	690b      	ldr	r3, [r1, #16]
 800983c:	f8dd 8020 	ldr.w	r8, [sp, #32]
 8009840:	4293      	cmp	r3, r2
 8009842:	bfb8      	it	lt
 8009844:	4613      	movlt	r3, r2
 8009846:	6033      	str	r3, [r6, #0]
 8009848:	f891 2043 	ldrb.w	r2, [r1, #67]	; 0x43
 800984c:	4607      	mov	r7, r0
 800984e:	460c      	mov	r4, r1
 8009850:	b10a      	cbz	r2, 8009856 <_printf_common+0x26>
 8009852:	3301      	adds	r3, #1
 8009854:	6033      	str	r3, [r6, #0]
 8009856:	6823      	ldr	r3, [r4, #0]
 8009858:	0699      	lsls	r1, r3, #26
 800985a:	bf42      	ittt	mi
 800985c:	6833      	ldrmi	r3, [r6, #0]
 800985e:	3302      	addmi	r3, #2
 8009860:	6033      	strmi	r3, [r6, #0]
 8009862:	6825      	ldr	r5, [r4, #0]
 8009864:	f015 0506 	ands.w	r5, r5, #6
 8009868:	d106      	bne.n	8009878 <_printf_common+0x48>
 800986a:	f104 0a19 	add.w	sl, r4, #25
 800986e:	68e3      	ldr	r3, [r4, #12]
 8009870:	6832      	ldr	r2, [r6, #0]
 8009872:	1a9b      	subs	r3, r3, r2
 8009874:	42ab      	cmp	r3, r5
 8009876:	dc26      	bgt.n	80098c6 <_printf_common+0x96>
 8009878:	f894 2043 	ldrb.w	r2, [r4, #67]	; 0x43
 800987c:	1e13      	subs	r3, r2, #0
 800987e:	6822      	ldr	r2, [r4, #0]
 8009880:	bf18      	it	ne
 8009882:	2301      	movne	r3, #1
 8009884:	0692      	lsls	r2, r2, #26
 8009886:	d42b      	bmi.n	80098e0 <_printf_common+0xb0>
 8009888:	f104 0243 	add.w	r2, r4, #67	; 0x43
 800988c:	4649      	mov	r1, r9
 800988e:	4638      	mov	r0, r7
 8009890:	47c0      	blx	r8
 8009892:	3001      	adds	r0, #1
 8009894:	d01e      	beq.n	80098d4 <_printf_common+0xa4>
 8009896:	6823      	ldr	r3, [r4, #0]
 8009898:	68e5      	ldr	r5, [r4, #12]
 800989a:	6832      	ldr	r2, [r6, #0]
 800989c:	f003 0306 	and.w	r3, r3, #6
 80098a0:	2b04      	cmp	r3, #4
 80098a2:	bf08      	it	eq
 80098a4:	1aad      	subeq	r5, r5, r2
 80098a6:	68a3      	ldr	r3, [r4, #8]
 80098a8:	6922      	ldr	r2, [r4, #16]
 80098aa:	bf0c      	ite	eq
 80098ac:	ea25 75e5 	biceq.w	r5, r5, r5, asr #31
 80098b0:	2500      	movne	r5, #0
 80098b2:	4293      	cmp	r3, r2
 80098b4:	bfc4      	itt	gt
 80098b6:	1a9b      	subgt	r3, r3, r2
 80098b8:	18ed      	addgt	r5, r5, r3
 80098ba:	2600      	movs	r6, #0
 80098bc:	341a      	adds	r4, #26
 80098be:	42b5      	cmp	r5, r6
 80098c0:	d11a      	bne.n	80098f8 <_printf_common+0xc8>
 80098c2:	2000      	movs	r0, #0
 80098c4:	e008      	b.n	80098d8 <_printf_common+0xa8>
 80098c6:	2301      	movs	r3, #1
 80098c8:	4652      	mov	r2, sl
 80098ca:	4649      	mov	r1, r9
 80098cc:	4638      	mov	r0, r7
 80098ce:	47c0      	blx	r8
 80098d0:	3001      	adds	r0, #1
 80098d2:	d103      	bne.n	80098dc <_printf_common+0xac>
 80098d4:	f04f 30ff 	mov.w	r0, #4294967295	; 0xffffffff
 80098d8:	e8bd 87f0 	ldmia.w	sp!, {r4, r5, r6, r7, r8, r9, sl, pc}
 80098dc:	3501      	adds	r5, #1
 80098de:	e7c6      	b.n	800986e <_printf_common+0x3e>
 80098e0:	18e1      	adds	r1, r4, r3
 80098e2:	1c5a      	adds	r2, r3, #1
 80098e4:	2030      	movs	r0, #48	; 0x30
 80098e6:	f881 0043 	strb.w	r0, [r1, #67]	; 0x43
 80098ea:	4422      	add	r2, r4
 80098ec:	f894 1045 	ldrb.w	r1, [r4, #69]	; 0x45
 80098f0:	f882 1043 	strb.w	r1, [r2, #67]	; 0x43
 80098f4:	3302      	adds	r3, #2
 80098f6:	e7c7      	b.n	8009888 <_printf_common+0x58>
 80098f8:	2301      	movs	r3, #1
 80098fa:	4622      	mov	r2, r4
 80098fc:	4649      	mov	r1, r9
 80098fe:	4638      	mov	r0, r7
 8009900:	47c0      	blx	r8
 8009902:	3001      	adds	r0, #1
 8009904:	d0e6      	beq.n	80098d4 <_printf_common+0xa4>
 8009906:	3601      	adds	r6, #1
 8009908:	e7d9      	b.n	80098be <_printf_common+0x8e>
	...

0800990c <_printf_i>:
 800990c:	e92d 47ff 	stmdb	sp!, {r0, r1, r2, r3, r4, r5, r6, r7, r8, r9, sl, lr}
 8009910:	460c      	mov	r4, r1
 8009912:	4691      	mov	r9, r2
 8009914:	7e27      	ldrb	r7, [r4, #24]
 8009916:	990c      	ldr	r1, [sp, #48]	; 0x30
 8009918:	2f78      	cmp	r7, #120	; 0x78
 800991a:	4680      	mov	r8, r0
 800991c:	469a      	mov	sl, r3
 800991e:	f104 0243 	add.w	r2, r4, #67	; 0x43
 8009922:	d807      	bhi.n	8009934 <_printf_i+0x28>
 8009924:	2f62      	cmp	r7, #98	; 0x62
 8009926:	d80a      	bhi.n	800993e <_printf_i+0x32>
 8009928:	2f00      	cmp	r7, #0
 800992a:	f000 80d8 	beq.w	8009ade <_printf_i+0x1d2>
 800992e:	2f58      	cmp	r7, #88	; 0x58
 8009930:	f000 80a3 	beq.w	8009a7a <_printf_i+0x16e>
 8009934:	f104 0642 	add.w	r6, r4, #66	; 0x42
 8009938:	f884 7042 	strb.w	r7, [r4, #66]	; 0x42
 800993c:	e03a      	b.n	80099b4 <_printf_i+0xa8>
 800993e:	f1a7 0363 	sub.w	r3, r7, #99	; 0x63
 8009942:	2b15      	cmp	r3, #21
 8009944:	d8f6      	bhi.n	8009934 <_printf_i+0x28>
 8009946:	a001      	add	r0, pc, #4	; (adr r0, 800994c <_printf_i+0x40>)
 8009948:	f850 f023 	ldr.w	pc, [r0, r3, lsl #2]
 800994c:	080099a5 	.word	0x080099a5
 8009950:	080099b9 	.word	0x080099b9
 8009954:	08009935 	.word	0x08009935
 8009958:	08009935 	.word	0x08009935
 800995c:	08009935 	.word	0x08009935
 8009960:	08009935 	.word	0x08009935
 8009964:	080099b9 	.word	0x080099b9
 8009968:	08009935 	.word	0x08009935
 800996c:	08009935 	.word	0x08009935
 8009970:	08009935 	.word	0x08009935
 8009974:	08009935 	.word	0x08009935
 8009978:	08009ac5 	.word	0x08009ac5
 800997c:	080099e9 	.word	0x080099e9
 8009980:	08009aa7 	.word	0x08009aa7
 8009984:	08009935 	.word	0x08009935
 8009988:	08009935 	.word	0x08009935
 800998c:	08009ae7 	.word	0x08009ae7
 8009990:	08009935 	.word	0x08009935
 8009994:	080099e9 	.word	0x080099e9
 8009998:	08009935 	.word	0x08009935
 800999c:	08009935 	.word	0x08009935
 80099a0:	08009aaf 	.word	0x08009aaf
 80099a4:	680b      	ldr	r3, [r1, #0]
 80099a6:	1d1a      	adds	r2, r3, #4
 80099a8:	681b      	ldr	r3, [r3, #0]
 80099aa:	600a      	str	r2, [r1, #0]
 80099ac:	f104 0642 	add.w	r6, r4, #66	; 0x42
 80099b0:	f884 3042 	strb.w	r3, [r4, #66]	; 0x42
 80099b4:	2301      	movs	r3, #1
 80099b6:	e0a3      	b.n	8009b00 <_printf_i+0x1f4>
 80099b8:	6825      	ldr	r5, [r4, #0]
 80099ba:	6808      	ldr	r0, [r1, #0]
 80099bc:	062e      	lsls	r6, r5, #24
 80099be:	f100 0304 	add.w	r3, r0, #4
 80099c2:	d50a      	bpl.n	80099da <_printf_i+0xce>
 80099c4:	6805      	ldr	r5, [r0, #0]
 80099c6:	600b      	str	r3, [r1, #0]
 80099c8:	2d00      	cmp	r5, #0
 80099ca:	da03      	bge.n	80099d4 <_printf_i+0xc8>
 80099cc:	232d      	movs	r3, #45	; 0x2d
 80099ce:	426d      	negs	r5, r5
 80099d0:	f884 3043 	strb.w	r3, [r4, #67]	; 0x43
 80099d4:	485e      	ldr	r0, [pc, #376]	; (8009b50 <_printf_i+0x244>)
 80099d6:	230a      	movs	r3, #10
 80099d8:	e019      	b.n	8009a0e <_printf_i+0x102>
 80099da:	f015 0f40 	tst.w	r5, #64	; 0x40
 80099de:	6805      	ldr	r5, [r0, #0]
 80099e0:	600b      	str	r3, [r1, #0]
 80099e2:	bf18      	it	ne
 80099e4:	b22d      	sxthne	r5, r5
 80099e6:	e7ef      	b.n	80099c8 <_printf_i+0xbc>
 80099e8:	680b      	ldr	r3, [r1, #0]
 80099ea:	6825      	ldr	r5, [r4, #0]
 80099ec:	1d18      	adds	r0, r3, #4
 80099ee:	6008      	str	r0, [r1, #0]
 80099f0:	0628      	lsls	r0, r5, #24
 80099f2:	d501      	bpl.n	80099f8 <_printf_i+0xec>
 80099f4:	681d      	ldr	r5, [r3, #0]
 80099f6:	e002      	b.n	80099fe <_printf_i+0xf2>
 80099f8:	0669      	lsls	r1, r5, #25
 80099fa:	d5fb      	bpl.n	80099f4 <_printf_i+0xe8>
 80099fc:	881d      	ldrh	r5, [r3, #0]
 80099fe:	4854      	ldr	r0, [pc, #336]	; (8009b50 <_printf_i+0x244>)
 8009a00:	2f6f      	cmp	r7, #111	; 0x6f
 8009a02:	bf0c      	ite	eq
 8009a04:	2308      	moveq	r3, #8
 8009a06:	230a      	movne	r3, #10
 8009a08:	2100      	movs	r1, #0
 8009a0a:	f884 1043 	strb.w	r1, [r4, #67]	; 0x43
 8009a0e:	6866      	ldr	r6, [r4, #4]
 8009a10:	60a6      	str	r6, [r4, #8]
 8009a12:	2e00      	cmp	r6, #0
 8009a14:	bfa2      	ittt	ge
 8009a16:	6821      	ldrge	r1, [r4, #0]
 8009a18:	f021 0104 	bicge.w	r1, r1, #4
 8009a1c:	6021      	strge	r1, [r4, #0]
 8009a1e:	b90d      	cbnz	r5, 8009a24 <_printf_i+0x118>
 8009a20:	2e00      	cmp	r6, #0
 8009a22:	d04d      	beq.n	8009ac0 <_printf_i+0x1b4>
 8009a24:	4616      	mov	r6, r2
 8009a26:	fbb5 f1f3 	udiv	r1, r5, r3
 8009a2a:	fb03 5711 	mls	r7, r3, r1, r5
 8009a2e:	5dc7      	ldrb	r7, [r0, r7]
 8009a30:	f806 7d01 	strb.w	r7, [r6, #-1]!
 8009a34:	462f      	mov	r7, r5
 8009a36:	42bb      	cmp	r3, r7
 8009a38:	460d      	mov	r5, r1
 8009a3a:	d9f4      	bls.n	8009a26 <_printf_i+0x11a>
 8009a3c:	2b08      	cmp	r3, #8
 8009a3e:	d10b      	bne.n	8009a58 <_printf_i+0x14c>
 8009a40:	6823      	ldr	r3, [r4, #0]
 8009a42:	07df      	lsls	r7, r3, #31
 8009a44:	d508      	bpl.n	8009a58 <_printf_i+0x14c>
 8009a46:	6923      	ldr	r3, [r4, #16]
 8009a48:	6861      	ldr	r1, [r4, #4]
 8009a4a:	4299      	cmp	r1, r3
 8009a4c:	bfde      	ittt	le
 8009a4e:	2330      	movle	r3, #48	; 0x30
 8009a50:	f806 3c01 	strble.w	r3, [r6, #-1]
 8009a54:	f106 36ff 	addle.w	r6, r6, #4294967295	; 0xffffffff
 8009a58:	1b92      	subs	r2, r2, r6
 8009a5a:	6122      	str	r2, [r4, #16]
 8009a5c:	f8cd a000 	str.w	sl, [sp]
 8009a60:	464b      	mov	r3, r9
 8009a62:	aa03      	add	r2, sp, #12
 8009a64:	4621      	mov	r1, r4
 8009a66:	4640      	mov	r0, r8
 8009a68:	f7ff fee2 	bl	8009830 <_printf_common>
 8009a6c:	3001      	adds	r0, #1
 8009a6e:	d14c      	bne.n	8009b0a <_printf_i+0x1fe>
 8009a70:	f04f 30ff 	mov.w	r0, #4294967295	; 0xffffffff
 8009a74:	b004      	add	sp, #16
 8009a76:	e8bd 87f0 	ldmia.w	sp!, {r4, r5, r6, r7, r8, r9, sl, pc}
 8009a7a:	4835      	ldr	r0, [pc, #212]	; (8009b50 <_printf_i+0x244>)
 8009a7c:	f884 7045 	strb.w	r7, [r4, #69]	; 0x45
 8009a80:	6823      	ldr	r3, [r4, #0]
 8009a82:	680e      	ldr	r6, [r1, #0]
 8009a84:	061f      	lsls	r7, r3, #24
 8009a86:	f856 5b04 	ldr.w	r5, [r6], #4
 8009a8a:	600e      	str	r6, [r1, #0]
 8009a8c:	d514      	bpl.n	8009ab8 <_printf_i+0x1ac>
 8009a8e:	07d9      	lsls	r1, r3, #31
 8009a90:	bf44      	itt	mi
 8009a92:	f043 0320 	orrmi.w	r3, r3, #32
 8009a96:	6023      	strmi	r3, [r4, #0]
 8009a98:	b91d      	cbnz	r5, 8009aa2 <_printf_i+0x196>
 8009a9a:	6823      	ldr	r3, [r4, #0]
 8009a9c:	f023 0320 	bic.w	r3, r3, #32
 8009aa0:	6023      	str	r3, [r4, #0]
 8009aa2:	2310      	movs	r3, #16
 8009aa4:	e7b0      	b.n	8009a08 <_printf_i+0xfc>
 8009aa6:	6823      	ldr	r3, [r4, #0]
 8009aa8:	f043 0320 	orr.w	r3, r3, #32
 8009aac:	6023      	str	r3, [r4, #0]
 8009aae:	2378      	movs	r3, #120	; 0x78
 8009ab0:	4828      	ldr	r0, [pc, #160]	; (8009b54 <_printf_i+0x248>)
 8009ab2:	f884 3045 	strb.w	r3, [r4, #69]	; 0x45
 8009ab6:	e7e3      	b.n	8009a80 <_printf_i+0x174>
 8009ab8:	065e      	lsls	r6, r3, #25
 8009aba:	bf48      	it	mi
 8009abc:	b2ad      	uxthmi	r5, r5
 8009abe:	e7e6      	b.n	8009a8e <_printf_i+0x182>
 8009ac0:	4616      	mov	r6, r2
 8009ac2:	e7bb      	b.n	8009a3c <_printf_i+0x130>
 8009ac4:	680b      	ldr	r3, [r1, #0]
 8009ac6:	6826      	ldr	r6, [r4, #0]
 8009ac8:	6960      	ldr	r0, [r4, #20]
 8009aca:	1d1d      	adds	r5, r3, #4
 8009acc:	600d      	str	r5, [r1, #0]
 8009ace:	0635      	lsls	r5, r6, #24
 8009ad0:	681b      	ldr	r3, [r3, #0]
 8009ad2:	d501      	bpl.n	8009ad8 <_printf_i+0x1cc>
 8009ad4:	6018      	str	r0, [r3, #0]
 8009ad6:	e002      	b.n	8009ade <_printf_i+0x1d2>
 8009ad8:	0671      	lsls	r1, r6, #25
 8009ada:	d5fb      	bpl.n	8009ad4 <_printf_i+0x1c8>
 8009adc:	8018      	strh	r0, [r3, #0]
 8009ade:	2300      	movs	r3, #0
 8009ae0:	6123      	str	r3, [r4, #16]
 8009ae2:	4616      	mov	r6, r2
 8009ae4:	e7ba      	b.n	8009a5c <_printf_i+0x150>
 8009ae6:	680b      	ldr	r3, [r1, #0]
 8009ae8:	1d1a      	adds	r2, r3, #4
 8009aea:	600a      	str	r2, [r1, #0]
 8009aec:	681e      	ldr	r6, [r3, #0]
 8009aee:	6862      	ldr	r2, [r4, #4]
 8009af0:	2100      	movs	r1, #0
 8009af2:	4630      	mov	r0, r6
 8009af4:	f7f6 fb74 	bl	80001e0 <memchr>
 8009af8:	b108      	cbz	r0, 8009afe <_printf_i+0x1f2>
 8009afa:	1b80      	subs	r0, r0, r6
 8009afc:	6060      	str	r0, [r4, #4]
 8009afe:	6863      	ldr	r3, [r4, #4]
 8009b00:	6123      	str	r3, [r4, #16]
 8009b02:	2300      	movs	r3, #0
 8009b04:	f884 3043 	strb.w	r3, [r4, #67]	; 0x43
 8009b08:	e7a8      	b.n	8009a5c <_printf_i+0x150>
 8009b0a:	6923      	ldr	r3, [r4, #16]
 8009b0c:	4632      	mov	r2, r6
 8009b0e:	4649      	mov	r1, r9
 8009b10:	4640      	mov	r0, r8
 8009b12:	47d0      	blx	sl
 8009b14:	3001      	adds	r0, #1
 8009b16:	d0ab      	beq.n	8009a70 <_printf_i+0x164>
 8009b18:	6823      	ldr	r3, [r4, #0]
 8009b1a:	079b      	lsls	r3, r3, #30
 8009b1c:	d413      	bmi.n	8009b46 <_printf_i+0x23a>
 8009b1e:	68e0      	ldr	r0, [r4, #12]
 8009b20:	9b03      	ldr	r3, [sp, #12]
 8009b22:	4298      	cmp	r0, r3
 8009b24:	bfb8      	it	lt
 8009b26:	4618      	movlt	r0, r3
 8009b28:	e7a4      	b.n	8009a74 <_printf_i+0x168>
 8009b2a:	2301      	movs	r3, #1
 8009b2c:	4632      	mov	r2, r6
 8009b2e:	4649      	mov	r1, r9
 8009b30:	4640      	mov	r0, r8
 8009b32:	47d0      	blx	sl
 8009b34:	3001      	adds	r0, #1
 8009b36:	d09b      	beq.n	8009a70 <_printf_i+0x164>
 8009b38:	3501      	adds	r5, #1
 8009b3a:	68e3      	ldr	r3, [r4, #12]
 8009b3c:	9903      	ldr	r1, [sp, #12]
 8009b3e:	1a5b      	subs	r3, r3, r1
 8009b40:	42ab      	cmp	r3, r5
 8009b42:	dcf2      	bgt.n	8009b2a <_printf_i+0x21e>
 8009b44:	e7eb      	b.n	8009b1e <_printf_i+0x212>
 8009b46:	2500      	movs	r5, #0
 8009b48:	f104 0619 	add.w	r6, r4, #25
 8009b4c:	e7f5      	b.n	8009b3a <_printf_i+0x22e>
 8009b4e:	bf00      	nop
 8009b50:	0800ad6d 	.word	0x0800ad6d
 8009b54:	0800ad7e 	.word	0x0800ad7e

08009b58 <siprintf>:
 8009b58:	b40e      	push	{r1, r2, r3}
 8009b5a:	b500      	push	{lr}
 8009b5c:	b09c      	sub	sp, #112	; 0x70
 8009b5e:	ab1d      	add	r3, sp, #116	; 0x74
 8009b60:	9002      	str	r0, [sp, #8]
 8009b62:	9006      	str	r0, [sp, #24]
 8009b64:	f06f 4100 	mvn.w	r1, #2147483648	; 0x80000000
 8009b68:	4809      	ldr	r0, [pc, #36]	; (8009b90 <siprintf+0x38>)
 8009b6a:	9107      	str	r1, [sp, #28]
 8009b6c:	9104      	str	r1, [sp, #16]
 8009b6e:	4909      	ldr	r1, [pc, #36]	; (8009b94 <siprintf+0x3c>)
 8009b70:	f853 2b04 	ldr.w	r2, [r3], #4
 8009b74:	9105      	str	r1, [sp, #20]
 8009b76:	6800      	ldr	r0, [r0, #0]
 8009b78:	9301      	str	r3, [sp, #4]
 8009b7a:	a902      	add	r1, sp, #8
 8009b7c:	f000 fc4a 	bl	800a414 <_svfiprintf_r>
 8009b80:	9b02      	ldr	r3, [sp, #8]
 8009b82:	2200      	movs	r2, #0
 8009b84:	701a      	strb	r2, [r3, #0]
 8009b86:	b01c      	add	sp, #112	; 0x70
 8009b88:	f85d eb04 	ldr.w	lr, [sp], #4
 8009b8c:	b003      	add	sp, #12
 8009b8e:	4770      	bx	lr
 8009b90:	20000010 	.word	0x20000010
 8009b94:	ffff0208 	.word	0xffff0208

08009b98 <strncasecmp>:
 8009b98:	b570      	push	{r4, r5, r6, lr}
 8009b9a:	4e0f      	ldr	r6, [pc, #60]	; (8009bd8 <strncasecmp+0x40>)
 8009b9c:	4604      	mov	r4, r0
 8009b9e:	440a      	add	r2, r1
 8009ba0:	428a      	cmp	r2, r1
 8009ba2:	d101      	bne.n	8009ba8 <strncasecmp+0x10>
 8009ba4:	2000      	movs	r0, #0
 8009ba6:	e013      	b.n	8009bd0 <strncasecmp+0x38>
 8009ba8:	f814 3b01 	ldrb.w	r3, [r4], #1
 8009bac:	5d98      	ldrb	r0, [r3, r6]
 8009bae:	f000 0003 	and.w	r0, r0, #3
 8009bb2:	2801      	cmp	r0, #1
 8009bb4:	f811 0b01 	ldrb.w	r0, [r1], #1
 8009bb8:	5c35      	ldrb	r5, [r6, r0]
 8009bba:	f005 0503 	and.w	r5, r5, #3
 8009bbe:	bf08      	it	eq
 8009bc0:	3320      	addeq	r3, #32
 8009bc2:	2d01      	cmp	r5, #1
 8009bc4:	bf08      	it	eq
 8009bc6:	3020      	addeq	r0, #32
 8009bc8:	1a1b      	subs	r3, r3, r0
 8009bca:	d102      	bne.n	8009bd2 <strncasecmp+0x3a>
 8009bcc:	2800      	cmp	r0, #0
 8009bce:	d1e7      	bne.n	8009ba0 <strncasecmp+0x8>
 8009bd0:	bd70      	pop	{r4, r5, r6, pc}
 8009bd2:	4618      	mov	r0, r3
 8009bd4:	e7fc      	b.n	8009bd0 <strncasecmp+0x38>
 8009bd6:	bf00      	nop
 8009bd8:	0800ac55 	.word	0x0800ac55

08009bdc <strncpy>:
 8009bdc:	b510      	push	{r4, lr}
 8009bde:	3901      	subs	r1, #1
 8009be0:	4603      	mov	r3, r0
 8009be2:	b132      	cbz	r2, 8009bf2 <strncpy+0x16>
 8009be4:	f811 4f01 	ldrb.w	r4, [r1, #1]!
 8009be8:	f803 4b01 	strb.w	r4, [r3], #1
 8009bec:	3a01      	subs	r2, #1
 8009bee:	2c00      	cmp	r4, #0
 8009bf0:	d1f7      	bne.n	8009be2 <strncpy+0x6>
 8009bf2:	441a      	add	r2, r3
 8009bf4:	2100      	movs	r1, #0
 8009bf6:	4293      	cmp	r3, r2
 8009bf8:	d100      	bne.n	8009bfc <strncpy+0x20>
 8009bfa:	bd10      	pop	{r4, pc}
 8009bfc:	f803 1b01 	strb.w	r1, [r3], #1
 8009c00:	e7f9      	b.n	8009bf6 <strncpy+0x1a>
	...

08009c04 <__swbuf_r>:
 8009c04:	b5f8      	push	{r3, r4, r5, r6, r7, lr}
 8009c06:	460e      	mov	r6, r1
 8009c08:	4614      	mov	r4, r2
 8009c0a:	4605      	mov	r5, r0
 8009c0c:	b118      	cbz	r0, 8009c16 <__swbuf_r+0x12>
 8009c0e:	6983      	ldr	r3, [r0, #24]
 8009c10:	b90b      	cbnz	r3, 8009c16 <__swbuf_r+0x12>
 8009c12:	f000 f9d1 	bl	8009fb8 <__sinit>
 8009c16:	4b21      	ldr	r3, [pc, #132]	; (8009c9c <__swbuf_r+0x98>)
 8009c18:	429c      	cmp	r4, r3
 8009c1a:	d12b      	bne.n	8009c74 <__swbuf_r+0x70>
 8009c1c:	686c      	ldr	r4, [r5, #4]
 8009c1e:	69a3      	ldr	r3, [r4, #24]
 8009c20:	60a3      	str	r3, [r4, #8]
 8009c22:	89a3      	ldrh	r3, [r4, #12]
 8009c24:	071a      	lsls	r2, r3, #28
 8009c26:	d52f      	bpl.n	8009c88 <__swbuf_r+0x84>
 8009c28:	6923      	ldr	r3, [r4, #16]
 8009c2a:	b36b      	cbz	r3, 8009c88 <__swbuf_r+0x84>
 8009c2c:	6923      	ldr	r3, [r4, #16]
 8009c2e:	6820      	ldr	r0, [r4, #0]
 8009c30:	1ac0      	subs	r0, r0, r3
 8009c32:	6963      	ldr	r3, [r4, #20]
 8009c34:	b2f6      	uxtb	r6, r6
 8009c36:	4283      	cmp	r3, r0
 8009c38:	4637      	mov	r7, r6
 8009c3a:	dc04      	bgt.n	8009c46 <__swbuf_r+0x42>
 8009c3c:	4621      	mov	r1, r4
 8009c3e:	4628      	mov	r0, r5
 8009c40:	f000 f926 	bl	8009e90 <_fflush_r>
 8009c44:	bb30      	cbnz	r0, 8009c94 <__swbuf_r+0x90>
 8009c46:	68a3      	ldr	r3, [r4, #8]
 8009c48:	3b01      	subs	r3, #1
 8009c4a:	60a3      	str	r3, [r4, #8]
 8009c4c:	6823      	ldr	r3, [r4, #0]
 8009c4e:	1c5a      	adds	r2, r3, #1
 8009c50:	6022      	str	r2, [r4, #0]
 8009c52:	701e      	strb	r6, [r3, #0]
 8009c54:	6963      	ldr	r3, [r4, #20]
 8009c56:	3001      	adds	r0, #1
 8009c58:	4283      	cmp	r3, r0
 8009c5a:	d004      	beq.n	8009c66 <__swbuf_r+0x62>
 8009c5c:	89a3      	ldrh	r3, [r4, #12]
 8009c5e:	07db      	lsls	r3, r3, #31
 8009c60:	d506      	bpl.n	8009c70 <__swbuf_r+0x6c>
 8009c62:	2e0a      	cmp	r6, #10
 8009c64:	d104      	bne.n	8009c70 <__swbuf_r+0x6c>
 8009c66:	4621      	mov	r1, r4
 8009c68:	4628      	mov	r0, r5
 8009c6a:	f000 f911 	bl	8009e90 <_fflush_r>
 8009c6e:	b988      	cbnz	r0, 8009c94 <__swbuf_r+0x90>
 8009c70:	4638      	mov	r0, r7
 8009c72:	bdf8      	pop	{r3, r4, r5, r6, r7, pc}
 8009c74:	4b0a      	ldr	r3, [pc, #40]	; (8009ca0 <__swbuf_r+0x9c>)
 8009c76:	429c      	cmp	r4, r3
 8009c78:	d101      	bne.n	8009c7e <__swbuf_r+0x7a>
 8009c7a:	68ac      	ldr	r4, [r5, #8]
 8009c7c:	e7cf      	b.n	8009c1e <__swbuf_r+0x1a>
 8009c7e:	4b09      	ldr	r3, [pc, #36]	; (8009ca4 <__swbuf_r+0xa0>)
 8009c80:	429c      	cmp	r4, r3
 8009c82:	bf08      	it	eq
 8009c84:	68ec      	ldreq	r4, [r5, #12]
 8009c86:	e7ca      	b.n	8009c1e <__swbuf_r+0x1a>
 8009c88:	4621      	mov	r1, r4
 8009c8a:	4628      	mov	r0, r5
 8009c8c:	f000 f80c 	bl	8009ca8 <__swsetup_r>
 8009c90:	2800      	cmp	r0, #0
 8009c92:	d0cb      	beq.n	8009c2c <__swbuf_r+0x28>
 8009c94:	f04f 37ff 	mov.w	r7, #4294967295	; 0xffffffff
 8009c98:	e7ea      	b.n	8009c70 <__swbuf_r+0x6c>
 8009c9a:	bf00      	nop
 8009c9c:	0800adb0 	.word	0x0800adb0
 8009ca0:	0800add0 	.word	0x0800add0
 8009ca4:	0800ad90 	.word	0x0800ad90

08009ca8 <__swsetup_r>:
 8009ca8:	4b32      	ldr	r3, [pc, #200]	; (8009d74 <__swsetup_r+0xcc>)
 8009caa:	b570      	push	{r4, r5, r6, lr}
 8009cac:	681d      	ldr	r5, [r3, #0]
 8009cae:	4606      	mov	r6, r0
 8009cb0:	460c      	mov	r4, r1
 8009cb2:	b125      	cbz	r5, 8009cbe <__swsetup_r+0x16>
 8009cb4:	69ab      	ldr	r3, [r5, #24]
 8009cb6:	b913      	cbnz	r3, 8009cbe <__swsetup_r+0x16>
 8009cb8:	4628      	mov	r0, r5
 8009cba:	f000 f97d 	bl	8009fb8 <__sinit>
 8009cbe:	4b2e      	ldr	r3, [pc, #184]	; (8009d78 <__swsetup_r+0xd0>)
 8009cc0:	429c      	cmp	r4, r3
 8009cc2:	d10f      	bne.n	8009ce4 <__swsetup_r+0x3c>
 8009cc4:	686c      	ldr	r4, [r5, #4]
 8009cc6:	89a3      	ldrh	r3, [r4, #12]
 8009cc8:	f9b4 200c 	ldrsh.w	r2, [r4, #12]
 8009ccc:	0719      	lsls	r1, r3, #28
 8009cce:	d42c      	bmi.n	8009d2a <__swsetup_r+0x82>
 8009cd0:	06dd      	lsls	r5, r3, #27
 8009cd2:	d411      	bmi.n	8009cf8 <__swsetup_r+0x50>
 8009cd4:	2309      	movs	r3, #9
 8009cd6:	6033      	str	r3, [r6, #0]
 8009cd8:	f042 0340 	orr.w	r3, r2, #64	; 0x40
 8009cdc:	81a3      	strh	r3, [r4, #12]
 8009cde:	f04f 30ff 	mov.w	r0, #4294967295	; 0xffffffff
 8009ce2:	e03e      	b.n	8009d62 <__swsetup_r+0xba>
 8009ce4:	4b25      	ldr	r3, [pc, #148]	; (8009d7c <__swsetup_r+0xd4>)
 8009ce6:	429c      	cmp	r4, r3
 8009ce8:	d101      	bne.n	8009cee <__swsetup_r+0x46>
 8009cea:	68ac      	ldr	r4, [r5, #8]
 8009cec:	e7eb      	b.n	8009cc6 <__swsetup_r+0x1e>
 8009cee:	4b24      	ldr	r3, [pc, #144]	; (8009d80 <__swsetup_r+0xd8>)
 8009cf0:	429c      	cmp	r4, r3
 8009cf2:	bf08      	it	eq
 8009cf4:	68ec      	ldreq	r4, [r5, #12]
 8009cf6:	e7e6      	b.n	8009cc6 <__swsetup_r+0x1e>
 8009cf8:	0758      	lsls	r0, r3, #29
 8009cfa:	d512      	bpl.n	8009d22 <__swsetup_r+0x7a>
 8009cfc:	6b61      	ldr	r1, [r4, #52]	; 0x34
 8009cfe:	b141      	cbz	r1, 8009d12 <__swsetup_r+0x6a>
 8009d00:	f104 0344 	add.w	r3, r4, #68	; 0x44
 8009d04:	4299      	cmp	r1, r3
 8009d06:	d002      	beq.n	8009d0e <__swsetup_r+0x66>
 8009d08:	4630      	mov	r0, r6
 8009d0a:	f000 fa57 	bl	800a1bc <_free_r>
 8009d0e:	2300      	movs	r3, #0
 8009d10:	6363      	str	r3, [r4, #52]	; 0x34
 8009d12:	89a3      	ldrh	r3, [r4, #12]
 8009d14:	f023 0324 	bic.w	r3, r3, #36	; 0x24
 8009d18:	81a3      	strh	r3, [r4, #12]
 8009d1a:	2300      	movs	r3, #0
 8009d1c:	6063      	str	r3, [r4, #4]
 8009d1e:	6923      	ldr	r3, [r4, #16]
 8009d20:	6023      	str	r3, [r4, #0]
 8009d22:	89a3      	ldrh	r3, [r4, #12]
 8009d24:	f043 0308 	orr.w	r3, r3, #8
 8009d28:	81a3      	strh	r3, [r4, #12]
 8009d2a:	6923      	ldr	r3, [r4, #16]
 8009d2c:	b94b      	cbnz	r3, 8009d42 <__swsetup_r+0x9a>
 8009d2e:	89a3      	ldrh	r3, [r4, #12]
 8009d30:	f403 7320 	and.w	r3, r3, #640	; 0x280
 8009d34:	f5b3 7f00 	cmp.w	r3, #512	; 0x200
 8009d38:	d003      	beq.n	8009d42 <__swsetup_r+0x9a>
 8009d3a:	4621      	mov	r1, r4
 8009d3c:	4630      	mov	r0, r6
 8009d3e:	f000 f9fd 	bl	800a13c <__smakebuf_r>
 8009d42:	89a0      	ldrh	r0, [r4, #12]
 8009d44:	f9b4 200c 	ldrsh.w	r2, [r4, #12]
 8009d48:	f010 0301 	ands.w	r3, r0, #1
 8009d4c:	d00a      	beq.n	8009d64 <__swsetup_r+0xbc>
 8009d4e:	2300      	movs	r3, #0
 8009d50:	60a3      	str	r3, [r4, #8]
 8009d52:	6963      	ldr	r3, [r4, #20]
 8009d54:	425b      	negs	r3, r3
 8009d56:	61a3      	str	r3, [r4, #24]
 8009d58:	6923      	ldr	r3, [r4, #16]
 8009d5a:	b943      	cbnz	r3, 8009d6e <__swsetup_r+0xc6>
 8009d5c:	f010 0080 	ands.w	r0, r0, #128	; 0x80
 8009d60:	d1ba      	bne.n	8009cd8 <__swsetup_r+0x30>
 8009d62:	bd70      	pop	{r4, r5, r6, pc}
 8009d64:	0781      	lsls	r1, r0, #30
 8009d66:	bf58      	it	pl
 8009d68:	6963      	ldrpl	r3, [r4, #20]
 8009d6a:	60a3      	str	r3, [r4, #8]
 8009d6c:	e7f4      	b.n	8009d58 <__swsetup_r+0xb0>
 8009d6e:	2000      	movs	r0, #0
 8009d70:	e7f7      	b.n	8009d62 <__swsetup_r+0xba>
 8009d72:	bf00      	nop
 8009d74:	20000010 	.word	0x20000010
 8009d78:	0800adb0 	.word	0x0800adb0
 8009d7c:	0800add0 	.word	0x0800add0
 8009d80:	0800ad90 	.word	0x0800ad90

08009d84 <__sflush_r>:
 8009d84:	898a      	ldrh	r2, [r1, #12]
 8009d86:	e92d 41f0 	stmdb	sp!, {r4, r5, r6, r7, r8, lr}
 8009d8a:	4605      	mov	r5, r0
 8009d8c:	0710      	lsls	r0, r2, #28
 8009d8e:	460c      	mov	r4, r1
 8009d90:	d458      	bmi.n	8009e44 <__sflush_r+0xc0>
 8009d92:	684b      	ldr	r3, [r1, #4]
 8009d94:	2b00      	cmp	r3, #0
 8009d96:	dc05      	bgt.n	8009da4 <__sflush_r+0x20>
 8009d98:	6c0b      	ldr	r3, [r1, #64]	; 0x40
 8009d9a:	2b00      	cmp	r3, #0
 8009d9c:	dc02      	bgt.n	8009da4 <__sflush_r+0x20>
 8009d9e:	2000      	movs	r0, #0
 8009da0:	e8bd 81f0 	ldmia.w	sp!, {r4, r5, r6, r7, r8, pc}
 8009da4:	6ae6      	ldr	r6, [r4, #44]	; 0x2c
 8009da6:	2e00      	cmp	r6, #0
 8009da8:	d0f9      	beq.n	8009d9e <__sflush_r+0x1a>
 8009daa:	2300      	movs	r3, #0
 8009dac:	f412 5280 	ands.w	r2, r2, #4096	; 0x1000
 8009db0:	682f      	ldr	r7, [r5, #0]
 8009db2:	602b      	str	r3, [r5, #0]
 8009db4:	d032      	beq.n	8009e1c <__sflush_r+0x98>
 8009db6:	6d60      	ldr	r0, [r4, #84]	; 0x54
 8009db8:	89a3      	ldrh	r3, [r4, #12]
 8009dba:	075a      	lsls	r2, r3, #29
 8009dbc:	d505      	bpl.n	8009dca <__sflush_r+0x46>
 8009dbe:	6863      	ldr	r3, [r4, #4]
 8009dc0:	1ac0      	subs	r0, r0, r3
 8009dc2:	6b63      	ldr	r3, [r4, #52]	; 0x34
 8009dc4:	b10b      	cbz	r3, 8009dca <__sflush_r+0x46>
 8009dc6:	6c23      	ldr	r3, [r4, #64]	; 0x40
 8009dc8:	1ac0      	subs	r0, r0, r3
 8009dca:	2300      	movs	r3, #0
 8009dcc:	4602      	mov	r2, r0
 8009dce:	6ae6      	ldr	r6, [r4, #44]	; 0x2c
 8009dd0:	6a21      	ldr	r1, [r4, #32]
 8009dd2:	4628      	mov	r0, r5
 8009dd4:	47b0      	blx	r6
 8009dd6:	1c43      	adds	r3, r0, #1
 8009dd8:	89a3      	ldrh	r3, [r4, #12]
 8009dda:	d106      	bne.n	8009dea <__sflush_r+0x66>
 8009ddc:	6829      	ldr	r1, [r5, #0]
 8009dde:	291d      	cmp	r1, #29
 8009de0:	d82c      	bhi.n	8009e3c <__sflush_r+0xb8>
 8009de2:	4a2a      	ldr	r2, [pc, #168]	; (8009e8c <__sflush_r+0x108>)
 8009de4:	40ca      	lsrs	r2, r1
 8009de6:	07d6      	lsls	r6, r2, #31
 8009de8:	d528      	bpl.n	8009e3c <__sflush_r+0xb8>
 8009dea:	2200      	movs	r2, #0
 8009dec:	6062      	str	r2, [r4, #4]
 8009dee:	04d9      	lsls	r1, r3, #19
 8009df0:	6922      	ldr	r2, [r4, #16]
 8009df2:	6022      	str	r2, [r4, #0]
 8009df4:	d504      	bpl.n	8009e00 <__sflush_r+0x7c>
 8009df6:	1c42      	adds	r2, r0, #1
 8009df8:	d101      	bne.n	8009dfe <__sflush_r+0x7a>
 8009dfa:	682b      	ldr	r3, [r5, #0]
 8009dfc:	b903      	cbnz	r3, 8009e00 <__sflush_r+0x7c>
 8009dfe:	6560      	str	r0, [r4, #84]	; 0x54
 8009e00:	6b61      	ldr	r1, [r4, #52]	; 0x34
 8009e02:	602f      	str	r7, [r5, #0]
 8009e04:	2900      	cmp	r1, #0
 8009e06:	d0ca      	beq.n	8009d9e <__sflush_r+0x1a>
 8009e08:	f104 0344 	add.w	r3, r4, #68	; 0x44
 8009e0c:	4299      	cmp	r1, r3
 8009e0e:	d002      	beq.n	8009e16 <__sflush_r+0x92>
 8009e10:	4628      	mov	r0, r5
 8009e12:	f000 f9d3 	bl	800a1bc <_free_r>
 8009e16:	2000      	movs	r0, #0
 8009e18:	6360      	str	r0, [r4, #52]	; 0x34
 8009e1a:	e7c1      	b.n	8009da0 <__sflush_r+0x1c>
 8009e1c:	6a21      	ldr	r1, [r4, #32]
 8009e1e:	2301      	movs	r3, #1
 8009e20:	4628      	mov	r0, r5
 8009e22:	47b0      	blx	r6
 8009e24:	1c41      	adds	r1, r0, #1
 8009e26:	d1c7      	bne.n	8009db8 <__sflush_r+0x34>
 8009e28:	682b      	ldr	r3, [r5, #0]
 8009e2a:	2b00      	cmp	r3, #0
 8009e2c:	d0c4      	beq.n	8009db8 <__sflush_r+0x34>
 8009e2e:	2b1d      	cmp	r3, #29
 8009e30:	d001      	beq.n	8009e36 <__sflush_r+0xb2>
 8009e32:	2b16      	cmp	r3, #22
 8009e34:	d101      	bne.n	8009e3a <__sflush_r+0xb6>
 8009e36:	602f      	str	r7, [r5, #0]
 8009e38:	e7b1      	b.n	8009d9e <__sflush_r+0x1a>
 8009e3a:	89a3      	ldrh	r3, [r4, #12]
 8009e3c:	f043 0340 	orr.w	r3, r3, #64	; 0x40
 8009e40:	81a3      	strh	r3, [r4, #12]
 8009e42:	e7ad      	b.n	8009da0 <__sflush_r+0x1c>
 8009e44:	690f      	ldr	r7, [r1, #16]
 8009e46:	2f00      	cmp	r7, #0
 8009e48:	d0a9      	beq.n	8009d9e <__sflush_r+0x1a>
 8009e4a:	0793      	lsls	r3, r2, #30
 8009e4c:	680e      	ldr	r6, [r1, #0]
 8009e4e:	bf08      	it	eq
 8009e50:	694b      	ldreq	r3, [r1, #20]
 8009e52:	600f      	str	r7, [r1, #0]
 8009e54:	bf18      	it	ne
 8009e56:	2300      	movne	r3, #0
 8009e58:	eba6 0807 	sub.w	r8, r6, r7
 8009e5c:	608b      	str	r3, [r1, #8]
 8009e5e:	f1b8 0f00 	cmp.w	r8, #0
 8009e62:	dd9c      	ble.n	8009d9e <__sflush_r+0x1a>
 8009e64:	6a21      	ldr	r1, [r4, #32]
 8009e66:	6aa6      	ldr	r6, [r4, #40]	; 0x28
 8009e68:	4643      	mov	r3, r8
 8009e6a:	463a      	mov	r2, r7
 8009e6c:	4628      	mov	r0, r5
 8009e6e:	47b0      	blx	r6
 8009e70:	2800      	cmp	r0, #0
 8009e72:	dc06      	bgt.n	8009e82 <__sflush_r+0xfe>
 8009e74:	89a3      	ldrh	r3, [r4, #12]
 8009e76:	f043 0340 	orr.w	r3, r3, #64	; 0x40
 8009e7a:	81a3      	strh	r3, [r4, #12]
 8009e7c:	f04f 30ff 	mov.w	r0, #4294967295	; 0xffffffff
 8009e80:	e78e      	b.n	8009da0 <__sflush_r+0x1c>
 8009e82:	4407      	add	r7, r0
 8009e84:	eba8 0800 	sub.w	r8, r8, r0
 8009e88:	e7e9      	b.n	8009e5e <__sflush_r+0xda>
 8009e8a:	bf00      	nop
 8009e8c:	20400001 	.word	0x20400001

08009e90 <_fflush_r>:
 8009e90:	b538      	push	{r3, r4, r5, lr}
 8009e92:	690b      	ldr	r3, [r1, #16]
 8009e94:	4605      	mov	r5, r0
 8009e96:	460c      	mov	r4, r1
 8009e98:	b913      	cbnz	r3, 8009ea0 <_fflush_r+0x10>
 8009e9a:	2500      	movs	r5, #0
 8009e9c:	4628      	mov	r0, r5
 8009e9e:	bd38      	pop	{r3, r4, r5, pc}
 8009ea0:	b118      	cbz	r0, 8009eaa <_fflush_r+0x1a>
 8009ea2:	6983      	ldr	r3, [r0, #24]
 8009ea4:	b90b      	cbnz	r3, 8009eaa <_fflush_r+0x1a>
 8009ea6:	f000 f887 	bl	8009fb8 <__sinit>
 8009eaa:	4b14      	ldr	r3, [pc, #80]	; (8009efc <_fflush_r+0x6c>)
 8009eac:	429c      	cmp	r4, r3
 8009eae:	d11b      	bne.n	8009ee8 <_fflush_r+0x58>
 8009eb0:	686c      	ldr	r4, [r5, #4]
 8009eb2:	f9b4 300c 	ldrsh.w	r3, [r4, #12]
 8009eb6:	2b00      	cmp	r3, #0
 8009eb8:	d0ef      	beq.n	8009e9a <_fflush_r+0xa>
 8009eba:	6e62      	ldr	r2, [r4, #100]	; 0x64
 8009ebc:	07d0      	lsls	r0, r2, #31
 8009ebe:	d404      	bmi.n	8009eca <_fflush_r+0x3a>
 8009ec0:	0599      	lsls	r1, r3, #22
 8009ec2:	d402      	bmi.n	8009eca <_fflush_r+0x3a>
 8009ec4:	6da0      	ldr	r0, [r4, #88]	; 0x58
 8009ec6:	f7ff fb1a 	bl	80094fe <__retarget_lock_acquire_recursive>
 8009eca:	4628      	mov	r0, r5
 8009ecc:	4621      	mov	r1, r4
 8009ece:	f7ff ff59 	bl	8009d84 <__sflush_r>
 8009ed2:	6e63      	ldr	r3, [r4, #100]	; 0x64
 8009ed4:	07da      	lsls	r2, r3, #31
 8009ed6:	4605      	mov	r5, r0
 8009ed8:	d4e0      	bmi.n	8009e9c <_fflush_r+0xc>
 8009eda:	89a3      	ldrh	r3, [r4, #12]
 8009edc:	059b      	lsls	r3, r3, #22
 8009ede:	d4dd      	bmi.n	8009e9c <_fflush_r+0xc>
 8009ee0:	6da0      	ldr	r0, [r4, #88]	; 0x58
 8009ee2:	f7ff fb0d 	bl	8009500 <__retarget_lock_release_recursive>
 8009ee6:	e7d9      	b.n	8009e9c <_fflush_r+0xc>
 8009ee8:	4b05      	ldr	r3, [pc, #20]	; (8009f00 <_fflush_r+0x70>)
 8009eea:	429c      	cmp	r4, r3
 8009eec:	d101      	bne.n	8009ef2 <_fflush_r+0x62>
 8009eee:	68ac      	ldr	r4, [r5, #8]
 8009ef0:	e7df      	b.n	8009eb2 <_fflush_r+0x22>
 8009ef2:	4b04      	ldr	r3, [pc, #16]	; (8009f04 <_fflush_r+0x74>)
 8009ef4:	429c      	cmp	r4, r3
 8009ef6:	bf08      	it	eq
 8009ef8:	68ec      	ldreq	r4, [r5, #12]
 8009efa:	e7da      	b.n	8009eb2 <_fflush_r+0x22>
 8009efc:	0800adb0 	.word	0x0800adb0
 8009f00:	0800add0 	.word	0x0800add0
 8009f04:	0800ad90 	.word	0x0800ad90

08009f08 <std>:
 8009f08:	2300      	movs	r3, #0
 8009f0a:	b510      	push	{r4, lr}
 8009f0c:	4604      	mov	r4, r0
 8009f0e:	e9c0 3300 	strd	r3, r3, [r0]
 8009f12:	e9c0 3304 	strd	r3, r3, [r0, #16]
 8009f16:	6083      	str	r3, [r0, #8]
 8009f18:	8181      	strh	r1, [r0, #12]
 8009f1a:	6643      	str	r3, [r0, #100]	; 0x64
 8009f1c:	81c2      	strh	r2, [r0, #14]
 8009f1e:	6183      	str	r3, [r0, #24]
 8009f20:	4619      	mov	r1, r3
 8009f22:	2208      	movs	r2, #8
 8009f24:	305c      	adds	r0, #92	; 0x5c
 8009f26:	f7ff fb22 	bl	800956e <memset>
 8009f2a:	4b05      	ldr	r3, [pc, #20]	; (8009f40 <std+0x38>)
 8009f2c:	6263      	str	r3, [r4, #36]	; 0x24
 8009f2e:	4b05      	ldr	r3, [pc, #20]	; (8009f44 <std+0x3c>)
 8009f30:	62a3      	str	r3, [r4, #40]	; 0x28
 8009f32:	4b05      	ldr	r3, [pc, #20]	; (8009f48 <std+0x40>)
 8009f34:	62e3      	str	r3, [r4, #44]	; 0x2c
 8009f36:	4b05      	ldr	r3, [pc, #20]	; (8009f4c <std+0x44>)
 8009f38:	6224      	str	r4, [r4, #32]
 8009f3a:	6323      	str	r3, [r4, #48]	; 0x30
 8009f3c:	bd10      	pop	{r4, pc}
 8009f3e:	bf00      	nop
 8009f40:	0800a635 	.word	0x0800a635
 8009f44:	0800a657 	.word	0x0800a657
 8009f48:	0800a68f 	.word	0x0800a68f
 8009f4c:	0800a6b3 	.word	0x0800a6b3

08009f50 <_cleanup_r>:
 8009f50:	4901      	ldr	r1, [pc, #4]	; (8009f58 <_cleanup_r+0x8>)
 8009f52:	f000 b8af 	b.w	800a0b4 <_fwalk_reent>
 8009f56:	bf00      	nop
 8009f58:	08009e91 	.word	0x08009e91

08009f5c <__sfmoreglue>:
 8009f5c:	b570      	push	{r4, r5, r6, lr}
 8009f5e:	1e4a      	subs	r2, r1, #1
 8009f60:	2568      	movs	r5, #104	; 0x68
 8009f62:	4355      	muls	r5, r2
 8009f64:	460e      	mov	r6, r1
 8009f66:	f105 0174 	add.w	r1, r5, #116	; 0x74
 8009f6a:	f000 f977 	bl	800a25c <_malloc_r>
 8009f6e:	4604      	mov	r4, r0
 8009f70:	b140      	cbz	r0, 8009f84 <__sfmoreglue+0x28>
 8009f72:	2100      	movs	r1, #0
 8009f74:	e9c0 1600 	strd	r1, r6, [r0]
 8009f78:	300c      	adds	r0, #12
 8009f7a:	60a0      	str	r0, [r4, #8]
 8009f7c:	f105 0268 	add.w	r2, r5, #104	; 0x68
 8009f80:	f7ff faf5 	bl	800956e <memset>
 8009f84:	4620      	mov	r0, r4
 8009f86:	bd70      	pop	{r4, r5, r6, pc}

08009f88 <__sfp_lock_acquire>:
 8009f88:	4801      	ldr	r0, [pc, #4]	; (8009f90 <__sfp_lock_acquire+0x8>)
 8009f8a:	f7ff bab8 	b.w	80094fe <__retarget_lock_acquire_recursive>
 8009f8e:	bf00      	nop
 8009f90:	2000ad94 	.word	0x2000ad94

08009f94 <__sfp_lock_release>:
 8009f94:	4801      	ldr	r0, [pc, #4]	; (8009f9c <__sfp_lock_release+0x8>)
 8009f96:	f7ff bab3 	b.w	8009500 <__retarget_lock_release_recursive>
 8009f9a:	bf00      	nop
 8009f9c:	2000ad94 	.word	0x2000ad94

08009fa0 <__sinit_lock_acquire>:
 8009fa0:	4801      	ldr	r0, [pc, #4]	; (8009fa8 <__sinit_lock_acquire+0x8>)
 8009fa2:	f7ff baac 	b.w	80094fe <__retarget_lock_acquire_recursive>
 8009fa6:	bf00      	nop
 8009fa8:	2000ad8f 	.word	0x2000ad8f

08009fac <__sinit_lock_release>:
 8009fac:	4801      	ldr	r0, [pc, #4]	; (8009fb4 <__sinit_lock_release+0x8>)
 8009fae:	f7ff baa7 	b.w	8009500 <__retarget_lock_release_recursive>
 8009fb2:	bf00      	nop
 8009fb4:	2000ad8f 	.word	0x2000ad8f

08009fb8 <__sinit>:
 8009fb8:	b510      	push	{r4, lr}
 8009fba:	4604      	mov	r4, r0
 8009fbc:	f7ff fff0 	bl	8009fa0 <__sinit_lock_acquire>
 8009fc0:	69a3      	ldr	r3, [r4, #24]
 8009fc2:	b11b      	cbz	r3, 8009fcc <__sinit+0x14>
 8009fc4:	e8bd 4010 	ldmia.w	sp!, {r4, lr}
 8009fc8:	f7ff bff0 	b.w	8009fac <__sinit_lock_release>
 8009fcc:	e9c4 3312 	strd	r3, r3, [r4, #72]	; 0x48
 8009fd0:	6523      	str	r3, [r4, #80]	; 0x50
 8009fd2:	4b13      	ldr	r3, [pc, #76]	; (800a020 <__sinit+0x68>)
 8009fd4:	4a13      	ldr	r2, [pc, #76]	; (800a024 <__sinit+0x6c>)
 8009fd6:	681b      	ldr	r3, [r3, #0]
 8009fd8:	62a2      	str	r2, [r4, #40]	; 0x28
 8009fda:	42a3      	cmp	r3, r4
 8009fdc:	bf04      	itt	eq
 8009fde:	2301      	moveq	r3, #1
 8009fe0:	61a3      	streq	r3, [r4, #24]
 8009fe2:	4620      	mov	r0, r4
 8009fe4:	f000 f820 	bl	800a028 <__sfp>
 8009fe8:	6060      	str	r0, [r4, #4]
 8009fea:	4620      	mov	r0, r4
 8009fec:	f000 f81c 	bl	800a028 <__sfp>
 8009ff0:	60a0      	str	r0, [r4, #8]
 8009ff2:	4620      	mov	r0, r4
 8009ff4:	f000 f818 	bl	800a028 <__sfp>
 8009ff8:	2200      	movs	r2, #0
 8009ffa:	60e0      	str	r0, [r4, #12]
 8009ffc:	2104      	movs	r1, #4
 8009ffe:	6860      	ldr	r0, [r4, #4]
 800a000:	f7ff ff82 	bl	8009f08 <std>
 800a004:	68a0      	ldr	r0, [r4, #8]
 800a006:	2201      	movs	r2, #1
 800a008:	2109      	movs	r1, #9
 800a00a:	f7ff ff7d 	bl	8009f08 <std>
 800a00e:	68e0      	ldr	r0, [r4, #12]
 800a010:	2202      	movs	r2, #2
 800a012:	2112      	movs	r1, #18
 800a014:	f7ff ff78 	bl	8009f08 <std>
 800a018:	2301      	movs	r3, #1
 800a01a:	61a3      	str	r3, [r4, #24]
 800a01c:	e7d2      	b.n	8009fc4 <__sinit+0xc>
 800a01e:	bf00      	nop
 800a020:	0800ad58 	.word	0x0800ad58
 800a024:	08009f51 	.word	0x08009f51

0800a028 <__sfp>:
 800a028:	b5f8      	push	{r3, r4, r5, r6, r7, lr}
 800a02a:	4607      	mov	r7, r0
 800a02c:	f7ff ffac 	bl	8009f88 <__sfp_lock_acquire>
 800a030:	4b1e      	ldr	r3, [pc, #120]	; (800a0ac <__sfp+0x84>)
 800a032:	681e      	ldr	r6, [r3, #0]
 800a034:	69b3      	ldr	r3, [r6, #24]
 800a036:	b913      	cbnz	r3, 800a03e <__sfp+0x16>
 800a038:	4630      	mov	r0, r6
 800a03a:	f7ff ffbd 	bl	8009fb8 <__sinit>
 800a03e:	3648      	adds	r6, #72	; 0x48
 800a040:	e9d6 3401 	ldrd	r3, r4, [r6, #4]
 800a044:	3b01      	subs	r3, #1
 800a046:	d503      	bpl.n	800a050 <__sfp+0x28>
 800a048:	6833      	ldr	r3, [r6, #0]
 800a04a:	b30b      	cbz	r3, 800a090 <__sfp+0x68>
 800a04c:	6836      	ldr	r6, [r6, #0]
 800a04e:	e7f7      	b.n	800a040 <__sfp+0x18>
 800a050:	f9b4 500c 	ldrsh.w	r5, [r4, #12]
 800a054:	b9d5      	cbnz	r5, 800a08c <__sfp+0x64>
 800a056:	4b16      	ldr	r3, [pc, #88]	; (800a0b0 <__sfp+0x88>)
 800a058:	60e3      	str	r3, [r4, #12]
 800a05a:	f104 0058 	add.w	r0, r4, #88	; 0x58
 800a05e:	6665      	str	r5, [r4, #100]	; 0x64
 800a060:	f7ff fa4c 	bl	80094fc <__retarget_lock_init_recursive>
 800a064:	f7ff ff96 	bl	8009f94 <__sfp_lock_release>
 800a068:	e9c4 5501 	strd	r5, r5, [r4, #4]
 800a06c:	e9c4 5504 	strd	r5, r5, [r4, #16]
 800a070:	6025      	str	r5, [r4, #0]
 800a072:	61a5      	str	r5, [r4, #24]
 800a074:	2208      	movs	r2, #8
 800a076:	4629      	mov	r1, r5
 800a078:	f104 005c 	add.w	r0, r4, #92	; 0x5c
 800a07c:	f7ff fa77 	bl	800956e <memset>
 800a080:	e9c4 550d 	strd	r5, r5, [r4, #52]	; 0x34
 800a084:	e9c4 5512 	strd	r5, r5, [r4, #72]	; 0x48
 800a088:	4620      	mov	r0, r4
 800a08a:	bdf8      	pop	{r3, r4, r5, r6, r7, pc}
 800a08c:	3468      	adds	r4, #104	; 0x68
 800a08e:	e7d9      	b.n	800a044 <__sfp+0x1c>
 800a090:	2104      	movs	r1, #4
 800a092:	4638      	mov	r0, r7
 800a094:	f7ff ff62 	bl	8009f5c <__sfmoreglue>
 800a098:	4604      	mov	r4, r0
 800a09a:	6030      	str	r0, [r6, #0]
 800a09c:	2800      	cmp	r0, #0
 800a09e:	d1d5      	bne.n	800a04c <__sfp+0x24>
 800a0a0:	f7ff ff78 	bl	8009f94 <__sfp_lock_release>
 800a0a4:	230c      	movs	r3, #12
 800a0a6:	603b      	str	r3, [r7, #0]
 800a0a8:	e7ee      	b.n	800a088 <__sfp+0x60>
 800a0aa:	bf00      	nop
 800a0ac:	0800ad58 	.word	0x0800ad58
 800a0b0:	ffff0001 	.word	0xffff0001

0800a0b4 <_fwalk_reent>:
 800a0b4:	e92d 43f8 	stmdb	sp!, {r3, r4, r5, r6, r7, r8, r9, lr}
 800a0b8:	4606      	mov	r6, r0
 800a0ba:	4688      	mov	r8, r1
 800a0bc:	f100 0448 	add.w	r4, r0, #72	; 0x48
 800a0c0:	2700      	movs	r7, #0
 800a0c2:	e9d4 9501 	ldrd	r9, r5, [r4, #4]
 800a0c6:	f1b9 0901 	subs.w	r9, r9, #1
 800a0ca:	d505      	bpl.n	800a0d8 <_fwalk_reent+0x24>
 800a0cc:	6824      	ldr	r4, [r4, #0]
 800a0ce:	2c00      	cmp	r4, #0
 800a0d0:	d1f7      	bne.n	800a0c2 <_fwalk_reent+0xe>
 800a0d2:	4638      	mov	r0, r7
 800a0d4:	e8bd 83f8 	ldmia.w	sp!, {r3, r4, r5, r6, r7, r8, r9, pc}
 800a0d8:	89ab      	ldrh	r3, [r5, #12]
 800a0da:	2b01      	cmp	r3, #1
 800a0dc:	d907      	bls.n	800a0ee <_fwalk_reent+0x3a>
 800a0de:	f9b5 300e 	ldrsh.w	r3, [r5, #14]
 800a0e2:	3301      	adds	r3, #1
 800a0e4:	d003      	beq.n	800a0ee <_fwalk_reent+0x3a>
 800a0e6:	4629      	mov	r1, r5
 800a0e8:	4630      	mov	r0, r6
 800a0ea:	47c0      	blx	r8
 800a0ec:	4307      	orrs	r7, r0
 800a0ee:	3568      	adds	r5, #104	; 0x68
 800a0f0:	e7e9      	b.n	800a0c6 <_fwalk_reent+0x12>

0800a0f2 <__swhatbuf_r>:
 800a0f2:	b570      	push	{r4, r5, r6, lr}
 800a0f4:	460e      	mov	r6, r1
 800a0f6:	f9b1 100e 	ldrsh.w	r1, [r1, #14]
 800a0fa:	2900      	cmp	r1, #0
 800a0fc:	b096      	sub	sp, #88	; 0x58
 800a0fe:	4614      	mov	r4, r2
 800a100:	461d      	mov	r5, r3
 800a102:	da07      	bge.n	800a114 <__swhatbuf_r+0x22>
 800a104:	2300      	movs	r3, #0
 800a106:	602b      	str	r3, [r5, #0]
 800a108:	89b3      	ldrh	r3, [r6, #12]
 800a10a:	061a      	lsls	r2, r3, #24
 800a10c:	d410      	bmi.n	800a130 <__swhatbuf_r+0x3e>
 800a10e:	f44f 6380 	mov.w	r3, #1024	; 0x400
 800a112:	e00e      	b.n	800a132 <__swhatbuf_r+0x40>
 800a114:	466a      	mov	r2, sp
 800a116:	f000 faf3 	bl	800a700 <_fstat_r>
 800a11a:	2800      	cmp	r0, #0
 800a11c:	dbf2      	blt.n	800a104 <__swhatbuf_r+0x12>
 800a11e:	9a01      	ldr	r2, [sp, #4]
 800a120:	f402 4270 	and.w	r2, r2, #61440	; 0xf000
 800a124:	f5a2 5300 	sub.w	r3, r2, #8192	; 0x2000
 800a128:	425a      	negs	r2, r3
 800a12a:	415a      	adcs	r2, r3
 800a12c:	602a      	str	r2, [r5, #0]
 800a12e:	e7ee      	b.n	800a10e <__swhatbuf_r+0x1c>
 800a130:	2340      	movs	r3, #64	; 0x40
 800a132:	2000      	movs	r0, #0
 800a134:	6023      	str	r3, [r4, #0]
 800a136:	b016      	add	sp, #88	; 0x58
 800a138:	bd70      	pop	{r4, r5, r6, pc}
	...

0800a13c <__smakebuf_r>:
 800a13c:	898b      	ldrh	r3, [r1, #12]
 800a13e:	b573      	push	{r0, r1, r4, r5, r6, lr}
 800a140:	079d      	lsls	r5, r3, #30
 800a142:	4606      	mov	r6, r0
 800a144:	460c      	mov	r4, r1
 800a146:	d507      	bpl.n	800a158 <__smakebuf_r+0x1c>
 800a148:	f104 0347 	add.w	r3, r4, #71	; 0x47
 800a14c:	6023      	str	r3, [r4, #0]
 800a14e:	6123      	str	r3, [r4, #16]
 800a150:	2301      	movs	r3, #1
 800a152:	6163      	str	r3, [r4, #20]
 800a154:	b002      	add	sp, #8
 800a156:	bd70      	pop	{r4, r5, r6, pc}
 800a158:	ab01      	add	r3, sp, #4
 800a15a:	466a      	mov	r2, sp
 800a15c:	f7ff ffc9 	bl	800a0f2 <__swhatbuf_r>
 800a160:	9900      	ldr	r1, [sp, #0]
 800a162:	4605      	mov	r5, r0
 800a164:	4630      	mov	r0, r6
 800a166:	f000 f879 	bl	800a25c <_malloc_r>
 800a16a:	b948      	cbnz	r0, 800a180 <__smakebuf_r+0x44>
 800a16c:	f9b4 300c 	ldrsh.w	r3, [r4, #12]
 800a170:	059a      	lsls	r2, r3, #22
 800a172:	d4ef      	bmi.n	800a154 <__smakebuf_r+0x18>
 800a174:	f023 0303 	bic.w	r3, r3, #3
 800a178:	f043 0302 	orr.w	r3, r3, #2
 800a17c:	81a3      	strh	r3, [r4, #12]
 800a17e:	e7e3      	b.n	800a148 <__smakebuf_r+0xc>
 800a180:	4b0d      	ldr	r3, [pc, #52]	; (800a1b8 <__smakebuf_r+0x7c>)
 800a182:	62b3      	str	r3, [r6, #40]	; 0x28
 800a184:	89a3      	ldrh	r3, [r4, #12]
 800a186:	6020      	str	r0, [r4, #0]
 800a188:	f043 0380 	orr.w	r3, r3, #128	; 0x80
 800a18c:	81a3      	strh	r3, [r4, #12]
 800a18e:	9b00      	ldr	r3, [sp, #0]
 800a190:	6163      	str	r3, [r4, #20]
 800a192:	9b01      	ldr	r3, [sp, #4]
 800a194:	6120      	str	r0, [r4, #16]
 800a196:	b15b      	cbz	r3, 800a1b0 <__smakebuf_r+0x74>
 800a198:	f9b4 100e 	ldrsh.w	r1, [r4, #14]
 800a19c:	4630      	mov	r0, r6
 800a19e:	f000 fac1 	bl	800a724 <_isatty_r>
 800a1a2:	b128      	cbz	r0, 800a1b0 <__smakebuf_r+0x74>
 800a1a4:	89a3      	ldrh	r3, [r4, #12]
 800a1a6:	f023 0303 	bic.w	r3, r3, #3
 800a1aa:	f043 0301 	orr.w	r3, r3, #1
 800a1ae:	81a3      	strh	r3, [r4, #12]
 800a1b0:	89a0      	ldrh	r0, [r4, #12]
 800a1b2:	4305      	orrs	r5, r0
 800a1b4:	81a5      	strh	r5, [r4, #12]
 800a1b6:	e7cd      	b.n	800a154 <__smakebuf_r+0x18>
 800a1b8:	08009f51 	.word	0x08009f51

0800a1bc <_free_r>:
 800a1bc:	b537      	push	{r0, r1, r2, r4, r5, lr}
 800a1be:	2900      	cmp	r1, #0
 800a1c0:	d048      	beq.n	800a254 <_free_r+0x98>
 800a1c2:	f851 3c04 	ldr.w	r3, [r1, #-4]
 800a1c6:	9001      	str	r0, [sp, #4]
 800a1c8:	2b00      	cmp	r3, #0
 800a1ca:	f1a1 0404 	sub.w	r4, r1, #4
 800a1ce:	bfb8      	it	lt
 800a1d0:	18e4      	addlt	r4, r4, r3
 800a1d2:	f000 fac9 	bl	800a768 <__malloc_lock>
 800a1d6:	4a20      	ldr	r2, [pc, #128]	; (800a258 <_free_r+0x9c>)
 800a1d8:	9801      	ldr	r0, [sp, #4]
 800a1da:	6813      	ldr	r3, [r2, #0]
 800a1dc:	4615      	mov	r5, r2
 800a1de:	b933      	cbnz	r3, 800a1ee <_free_r+0x32>
 800a1e0:	6063      	str	r3, [r4, #4]
 800a1e2:	6014      	str	r4, [r2, #0]
 800a1e4:	b003      	add	sp, #12
 800a1e6:	e8bd 4030 	ldmia.w	sp!, {r4, r5, lr}
 800a1ea:	f000 bac3 	b.w	800a774 <__malloc_unlock>
 800a1ee:	42a3      	cmp	r3, r4
 800a1f0:	d90b      	bls.n	800a20a <_free_r+0x4e>
 800a1f2:	6821      	ldr	r1, [r4, #0]
 800a1f4:	1862      	adds	r2, r4, r1
 800a1f6:	4293      	cmp	r3, r2
 800a1f8:	bf04      	itt	eq
 800a1fa:	681a      	ldreq	r2, [r3, #0]
 800a1fc:	685b      	ldreq	r3, [r3, #4]
 800a1fe:	6063      	str	r3, [r4, #4]
 800a200:	bf04      	itt	eq
 800a202:	1852      	addeq	r2, r2, r1
 800a204:	6022      	streq	r2, [r4, #0]
 800a206:	602c      	str	r4, [r5, #0]
 800a208:	e7ec      	b.n	800a1e4 <_free_r+0x28>
 800a20a:	461a      	mov	r2, r3
 800a20c:	685b      	ldr	r3, [r3, #4]
 800a20e:	b10b      	cbz	r3, 800a214 <_free_r+0x58>
 800a210:	42a3      	cmp	r3, r4
 800a212:	d9fa      	bls.n	800a20a <_free_r+0x4e>
 800a214:	6811      	ldr	r1, [r2, #0]
 800a216:	1855      	adds	r5, r2, r1
 800a218:	42a5      	cmp	r5, r4
 800a21a:	d10b      	bne.n	800a234 <_free_r+0x78>
 800a21c:	6824      	ldr	r4, [r4, #0]
 800a21e:	4421      	add	r1, r4
 800a220:	1854      	adds	r4, r2, r1
 800a222:	42a3      	cmp	r3, r4
 800a224:	6011      	str	r1, [r2, #0]
 800a226:	d1dd      	bne.n	800a1e4 <_free_r+0x28>
 800a228:	681c      	ldr	r4, [r3, #0]
 800a22a:	685b      	ldr	r3, [r3, #4]
 800a22c:	6053      	str	r3, [r2, #4]
 800a22e:	4421      	add	r1, r4
 800a230:	6011      	str	r1, [r2, #0]
 800a232:	e7d7      	b.n	800a1e4 <_free_r+0x28>
 800a234:	d902      	bls.n	800a23c <_free_r+0x80>
 800a236:	230c      	movs	r3, #12
 800a238:	6003      	str	r3, [r0, #0]
 800a23a:	e7d3      	b.n	800a1e4 <_free_r+0x28>
 800a23c:	6825      	ldr	r5, [r4, #0]
 800a23e:	1961      	adds	r1, r4, r5
 800a240:	428b      	cmp	r3, r1
 800a242:	bf04      	itt	eq
 800a244:	6819      	ldreq	r1, [r3, #0]
 800a246:	685b      	ldreq	r3, [r3, #4]
 800a248:	6063      	str	r3, [r4, #4]
 800a24a:	bf04      	itt	eq
 800a24c:	1949      	addeq	r1, r1, r5
 800a24e:	6021      	streq	r1, [r4, #0]
 800a250:	6054      	str	r4, [r2, #4]
 800a252:	e7c7      	b.n	800a1e4 <_free_r+0x28>
 800a254:	b003      	add	sp, #12
 800a256:	bd30      	pop	{r4, r5, pc}
 800a258:	20008764 	.word	0x20008764

0800a25c <_malloc_r>:
 800a25c:	b5f8      	push	{r3, r4, r5, r6, r7, lr}
 800a25e:	1ccd      	adds	r5, r1, #3
 800a260:	f025 0503 	bic.w	r5, r5, #3
 800a264:	3508      	adds	r5, #8
 800a266:	2d0c      	cmp	r5, #12
 800a268:	bf38      	it	cc
 800a26a:	250c      	movcc	r5, #12
 800a26c:	2d00      	cmp	r5, #0
 800a26e:	4606      	mov	r6, r0
 800a270:	db01      	blt.n	800a276 <_malloc_r+0x1a>
 800a272:	42a9      	cmp	r1, r5
 800a274:	d903      	bls.n	800a27e <_malloc_r+0x22>
 800a276:	230c      	movs	r3, #12
 800a278:	6033      	str	r3, [r6, #0]
 800a27a:	2000      	movs	r0, #0
 800a27c:	bdf8      	pop	{r3, r4, r5, r6, r7, pc}
 800a27e:	f000 fa73 	bl	800a768 <__malloc_lock>
 800a282:	4921      	ldr	r1, [pc, #132]	; (800a308 <_malloc_r+0xac>)
 800a284:	680a      	ldr	r2, [r1, #0]
 800a286:	4614      	mov	r4, r2
 800a288:	b99c      	cbnz	r4, 800a2b2 <_malloc_r+0x56>
 800a28a:	4f20      	ldr	r7, [pc, #128]	; (800a30c <_malloc_r+0xb0>)
 800a28c:	683b      	ldr	r3, [r7, #0]
 800a28e:	b923      	cbnz	r3, 800a29a <_malloc_r+0x3e>
 800a290:	4621      	mov	r1, r4
 800a292:	4630      	mov	r0, r6
 800a294:	f000 f9be 	bl	800a614 <_sbrk_r>
 800a298:	6038      	str	r0, [r7, #0]
 800a29a:	4629      	mov	r1, r5
 800a29c:	4630      	mov	r0, r6
 800a29e:	f000 f9b9 	bl	800a614 <_sbrk_r>
 800a2a2:	1c43      	adds	r3, r0, #1
 800a2a4:	d123      	bne.n	800a2ee <_malloc_r+0x92>
 800a2a6:	230c      	movs	r3, #12
 800a2a8:	6033      	str	r3, [r6, #0]
 800a2aa:	4630      	mov	r0, r6
 800a2ac:	f000 fa62 	bl	800a774 <__malloc_unlock>
 800a2b0:	e7e3      	b.n	800a27a <_malloc_r+0x1e>
 800a2b2:	6823      	ldr	r3, [r4, #0]
 800a2b4:	1b5b      	subs	r3, r3, r5
 800a2b6:	d417      	bmi.n	800a2e8 <_malloc_r+0x8c>
 800a2b8:	2b0b      	cmp	r3, #11
 800a2ba:	d903      	bls.n	800a2c4 <_malloc_r+0x68>
 800a2bc:	6023      	str	r3, [r4, #0]
 800a2be:	441c      	add	r4, r3
 800a2c0:	6025      	str	r5, [r4, #0]
 800a2c2:	e004      	b.n	800a2ce <_malloc_r+0x72>
 800a2c4:	6863      	ldr	r3, [r4, #4]
 800a2c6:	42a2      	cmp	r2, r4
 800a2c8:	bf0c      	ite	eq
 800a2ca:	600b      	streq	r3, [r1, #0]
 800a2cc:	6053      	strne	r3, [r2, #4]
 800a2ce:	4630      	mov	r0, r6
 800a2d0:	f000 fa50 	bl	800a774 <__malloc_unlock>
 800a2d4:	f104 000b 	add.w	r0, r4, #11
 800a2d8:	1d23      	adds	r3, r4, #4
 800a2da:	f020 0007 	bic.w	r0, r0, #7
 800a2de:	1ac2      	subs	r2, r0, r3
 800a2e0:	d0cc      	beq.n	800a27c <_malloc_r+0x20>
 800a2e2:	1a1b      	subs	r3, r3, r0
 800a2e4:	50a3      	str	r3, [r4, r2]
 800a2e6:	e7c9      	b.n	800a27c <_malloc_r+0x20>
 800a2e8:	4622      	mov	r2, r4
 800a2ea:	6864      	ldr	r4, [r4, #4]
 800a2ec:	e7cc      	b.n	800a288 <_malloc_r+0x2c>
 800a2ee:	1cc4      	adds	r4, r0, #3
 800a2f0:	f024 0403 	bic.w	r4, r4, #3
 800a2f4:	42a0      	cmp	r0, r4
 800a2f6:	d0e3      	beq.n	800a2c0 <_malloc_r+0x64>
 800a2f8:	1a21      	subs	r1, r4, r0
 800a2fa:	4630      	mov	r0, r6
 800a2fc:	f000 f98a 	bl	800a614 <_sbrk_r>
 800a300:	3001      	adds	r0, #1
 800a302:	d1dd      	bne.n	800a2c0 <_malloc_r+0x64>
 800a304:	e7cf      	b.n	800a2a6 <_malloc_r+0x4a>
 800a306:	bf00      	nop
 800a308:	20008764 	.word	0x20008764
 800a30c:	20008768 	.word	0x20008768

0800a310 <_realloc_r>:
 800a310:	b5f8      	push	{r3, r4, r5, r6, r7, lr}
 800a312:	4607      	mov	r7, r0
 800a314:	4614      	mov	r4, r2
 800a316:	460e      	mov	r6, r1
 800a318:	b921      	cbnz	r1, 800a324 <_realloc_r+0x14>
 800a31a:	e8bd 40f8 	ldmia.w	sp!, {r3, r4, r5, r6, r7, lr}
 800a31e:	4611      	mov	r1, r2
 800a320:	f7ff bf9c 	b.w	800a25c <_malloc_r>
 800a324:	b922      	cbnz	r2, 800a330 <_realloc_r+0x20>
 800a326:	f7ff ff49 	bl	800a1bc <_free_r>
 800a32a:	4625      	mov	r5, r4
 800a32c:	4628      	mov	r0, r5
 800a32e:	bdf8      	pop	{r3, r4, r5, r6, r7, pc}
 800a330:	f000 fa26 	bl	800a780 <_malloc_usable_size_r>
 800a334:	42a0      	cmp	r0, r4
 800a336:	d20f      	bcs.n	800a358 <_realloc_r+0x48>
 800a338:	4621      	mov	r1, r4
 800a33a:	4638      	mov	r0, r7
 800a33c:	f7ff ff8e 	bl	800a25c <_malloc_r>
 800a340:	4605      	mov	r5, r0
 800a342:	2800      	cmp	r0, #0
 800a344:	d0f2      	beq.n	800a32c <_realloc_r+0x1c>
 800a346:	4631      	mov	r1, r6
 800a348:	4622      	mov	r2, r4
 800a34a:	f7ff f8e8 	bl	800951e <memcpy>
 800a34e:	4631      	mov	r1, r6
 800a350:	4638      	mov	r0, r7
 800a352:	f7ff ff33 	bl	800a1bc <_free_r>
 800a356:	e7e9      	b.n	800a32c <_realloc_r+0x1c>
 800a358:	4635      	mov	r5, r6
 800a35a:	e7e7      	b.n	800a32c <_realloc_r+0x1c>

0800a35c <__ssputs_r>:
 800a35c:	e92d 47f0 	stmdb	sp!, {r4, r5, r6, r7, r8, r9, sl, lr}
 800a360:	688e      	ldr	r6, [r1, #8]
 800a362:	429e      	cmp	r6, r3
 800a364:	4682      	mov	sl, r0
 800a366:	460c      	mov	r4, r1
 800a368:	4690      	mov	r8, r2
 800a36a:	461f      	mov	r7, r3
 800a36c:	d838      	bhi.n	800a3e0 <__ssputs_r+0x84>
 800a36e:	898a      	ldrh	r2, [r1, #12]
 800a370:	f412 6f90 	tst.w	r2, #1152	; 0x480
 800a374:	d032      	beq.n	800a3dc <__ssputs_r+0x80>
 800a376:	6825      	ldr	r5, [r4, #0]
 800a378:	6909      	ldr	r1, [r1, #16]
 800a37a:	eba5 0901 	sub.w	r9, r5, r1
 800a37e:	6965      	ldr	r5, [r4, #20]
 800a380:	eb05 0545 	add.w	r5, r5, r5, lsl #1
 800a384:	eb05 75d5 	add.w	r5, r5, r5, lsr #31
 800a388:	3301      	adds	r3, #1
 800a38a:	444b      	add	r3, r9
 800a38c:	106d      	asrs	r5, r5, #1
 800a38e:	429d      	cmp	r5, r3
 800a390:	bf38      	it	cc
 800a392:	461d      	movcc	r5, r3
 800a394:	0553      	lsls	r3, r2, #21
 800a396:	d531      	bpl.n	800a3fc <__ssputs_r+0xa0>
 800a398:	4629      	mov	r1, r5
 800a39a:	f7ff ff5f 	bl	800a25c <_malloc_r>
 800a39e:	4606      	mov	r6, r0
 800a3a0:	b950      	cbnz	r0, 800a3b8 <__ssputs_r+0x5c>
 800a3a2:	230c      	movs	r3, #12
 800a3a4:	f8ca 3000 	str.w	r3, [sl]
 800a3a8:	89a3      	ldrh	r3, [r4, #12]
 800a3aa:	f043 0340 	orr.w	r3, r3, #64	; 0x40
 800a3ae:	81a3      	strh	r3, [r4, #12]
 800a3b0:	f04f 30ff 	mov.w	r0, #4294967295	; 0xffffffff
 800a3b4:	e8bd 87f0 	ldmia.w	sp!, {r4, r5, r6, r7, r8, r9, sl, pc}
 800a3b8:	6921      	ldr	r1, [r4, #16]
 800a3ba:	464a      	mov	r2, r9
 800a3bc:	f7ff f8af 	bl	800951e <memcpy>
 800a3c0:	89a3      	ldrh	r3, [r4, #12]
 800a3c2:	f423 6390 	bic.w	r3, r3, #1152	; 0x480
 800a3c6:	f043 0380 	orr.w	r3, r3, #128	; 0x80
 800a3ca:	81a3      	strh	r3, [r4, #12]
 800a3cc:	6126      	str	r6, [r4, #16]
 800a3ce:	6165      	str	r5, [r4, #20]
 800a3d0:	444e      	add	r6, r9
 800a3d2:	eba5 0509 	sub.w	r5, r5, r9
 800a3d6:	6026      	str	r6, [r4, #0]
 800a3d8:	60a5      	str	r5, [r4, #8]
 800a3da:	463e      	mov	r6, r7
 800a3dc:	42be      	cmp	r6, r7
 800a3de:	d900      	bls.n	800a3e2 <__ssputs_r+0x86>
 800a3e0:	463e      	mov	r6, r7
 800a3e2:	4632      	mov	r2, r6
 800a3e4:	6820      	ldr	r0, [r4, #0]
 800a3e6:	4641      	mov	r1, r8
 800a3e8:	f7ff f8a7 	bl	800953a <memmove>
 800a3ec:	68a3      	ldr	r3, [r4, #8]
 800a3ee:	6822      	ldr	r2, [r4, #0]
 800a3f0:	1b9b      	subs	r3, r3, r6
 800a3f2:	4432      	add	r2, r6
 800a3f4:	60a3      	str	r3, [r4, #8]
 800a3f6:	6022      	str	r2, [r4, #0]
 800a3f8:	2000      	movs	r0, #0
 800a3fa:	e7db      	b.n	800a3b4 <__ssputs_r+0x58>
 800a3fc:	462a      	mov	r2, r5
 800a3fe:	f7ff ff87 	bl	800a310 <_realloc_r>
 800a402:	4606      	mov	r6, r0
 800a404:	2800      	cmp	r0, #0
 800a406:	d1e1      	bne.n	800a3cc <__ssputs_r+0x70>
 800a408:	6921      	ldr	r1, [r4, #16]
 800a40a:	4650      	mov	r0, sl
 800a40c:	f7ff fed6 	bl	800a1bc <_free_r>
 800a410:	e7c7      	b.n	800a3a2 <__ssputs_r+0x46>
	...

0800a414 <_svfiprintf_r>:
 800a414:	e92d 4ff0 	stmdb	sp!, {r4, r5, r6, r7, r8, r9, sl, fp, lr}
 800a418:	4698      	mov	r8, r3
 800a41a:	898b      	ldrh	r3, [r1, #12]
 800a41c:	061b      	lsls	r3, r3, #24
 800a41e:	b09d      	sub	sp, #116	; 0x74
 800a420:	4607      	mov	r7, r0
 800a422:	460d      	mov	r5, r1
 800a424:	4614      	mov	r4, r2
 800a426:	d50e      	bpl.n	800a446 <_svfiprintf_r+0x32>
 800a428:	690b      	ldr	r3, [r1, #16]
 800a42a:	b963      	cbnz	r3, 800a446 <_svfiprintf_r+0x32>
 800a42c:	2140      	movs	r1, #64	; 0x40
 800a42e:	f7ff ff15 	bl	800a25c <_malloc_r>
 800a432:	6028      	str	r0, [r5, #0]
 800a434:	6128      	str	r0, [r5, #16]
 800a436:	b920      	cbnz	r0, 800a442 <_svfiprintf_r+0x2e>
 800a438:	230c      	movs	r3, #12
 800a43a:	603b      	str	r3, [r7, #0]
 800a43c:	f04f 30ff 	mov.w	r0, #4294967295	; 0xffffffff
 800a440:	e0d1      	b.n	800a5e6 <_svfiprintf_r+0x1d2>
 800a442:	2340      	movs	r3, #64	; 0x40
 800a444:	616b      	str	r3, [r5, #20]
 800a446:	2300      	movs	r3, #0
 800a448:	9309      	str	r3, [sp, #36]	; 0x24
 800a44a:	2320      	movs	r3, #32
 800a44c:	f88d 3029 	strb.w	r3, [sp, #41]	; 0x29
 800a450:	f8cd 800c 	str.w	r8, [sp, #12]
 800a454:	2330      	movs	r3, #48	; 0x30
 800a456:	f8df 81a8 	ldr.w	r8, [pc, #424]	; 800a600 <_svfiprintf_r+0x1ec>
 800a45a:	f88d 302a 	strb.w	r3, [sp, #42]	; 0x2a
 800a45e:	f04f 0901 	mov.w	r9, #1
 800a462:	4623      	mov	r3, r4
 800a464:	469a      	mov	sl, r3
 800a466:	f813 2b01 	ldrb.w	r2, [r3], #1
 800a46a:	b10a      	cbz	r2, 800a470 <_svfiprintf_r+0x5c>
 800a46c:	2a25      	cmp	r2, #37	; 0x25
 800a46e:	d1f9      	bne.n	800a464 <_svfiprintf_r+0x50>
 800a470:	ebba 0b04 	subs.w	fp, sl, r4
 800a474:	d00b      	beq.n	800a48e <_svfiprintf_r+0x7a>
 800a476:	465b      	mov	r3, fp
 800a478:	4622      	mov	r2, r4
 800a47a:	4629      	mov	r1, r5
 800a47c:	4638      	mov	r0, r7
 800a47e:	f7ff ff6d 	bl	800a35c <__ssputs_r>
 800a482:	3001      	adds	r0, #1
 800a484:	f000 80aa 	beq.w	800a5dc <_svfiprintf_r+0x1c8>
 800a488:	9a09      	ldr	r2, [sp, #36]	; 0x24
 800a48a:	445a      	add	r2, fp
 800a48c:	9209      	str	r2, [sp, #36]	; 0x24
 800a48e:	f89a 3000 	ldrb.w	r3, [sl]
 800a492:	2b00      	cmp	r3, #0
 800a494:	f000 80a2 	beq.w	800a5dc <_svfiprintf_r+0x1c8>
 800a498:	2300      	movs	r3, #0
 800a49a:	f04f 32ff 	mov.w	r2, #4294967295	; 0xffffffff
 800a49e:	e9cd 2305 	strd	r2, r3, [sp, #20]
 800a4a2:	f10a 0a01 	add.w	sl, sl, #1
 800a4a6:	9304      	str	r3, [sp, #16]
 800a4a8:	9307      	str	r3, [sp, #28]
 800a4aa:	f88d 3053 	strb.w	r3, [sp, #83]	; 0x53
 800a4ae:	931a      	str	r3, [sp, #104]	; 0x68
 800a4b0:	4654      	mov	r4, sl
 800a4b2:	2205      	movs	r2, #5
 800a4b4:	f814 1b01 	ldrb.w	r1, [r4], #1
 800a4b8:	4851      	ldr	r0, [pc, #324]	; (800a600 <_svfiprintf_r+0x1ec>)
 800a4ba:	f7f5 fe91 	bl	80001e0 <memchr>
 800a4be:	9a04      	ldr	r2, [sp, #16]
 800a4c0:	b9d8      	cbnz	r0, 800a4fa <_svfiprintf_r+0xe6>
 800a4c2:	06d0      	lsls	r0, r2, #27
 800a4c4:	bf44      	itt	mi
 800a4c6:	2320      	movmi	r3, #32
 800a4c8:	f88d 3053 	strbmi.w	r3, [sp, #83]	; 0x53
 800a4cc:	0711      	lsls	r1, r2, #28
 800a4ce:	bf44      	itt	mi
 800a4d0:	232b      	movmi	r3, #43	; 0x2b
 800a4d2:	f88d 3053 	strbmi.w	r3, [sp, #83]	; 0x53
 800a4d6:	f89a 3000 	ldrb.w	r3, [sl]
 800a4da:	2b2a      	cmp	r3, #42	; 0x2a
 800a4dc:	d015      	beq.n	800a50a <_svfiprintf_r+0xf6>
 800a4de:	9a07      	ldr	r2, [sp, #28]
 800a4e0:	4654      	mov	r4, sl
 800a4e2:	2000      	movs	r0, #0
 800a4e4:	f04f 0c0a 	mov.w	ip, #10
 800a4e8:	4621      	mov	r1, r4
 800a4ea:	f811 3b01 	ldrb.w	r3, [r1], #1
 800a4ee:	3b30      	subs	r3, #48	; 0x30
 800a4f0:	2b09      	cmp	r3, #9
 800a4f2:	d94e      	bls.n	800a592 <_svfiprintf_r+0x17e>
 800a4f4:	b1b0      	cbz	r0, 800a524 <_svfiprintf_r+0x110>
 800a4f6:	9207      	str	r2, [sp, #28]
 800a4f8:	e014      	b.n	800a524 <_svfiprintf_r+0x110>
 800a4fa:	eba0 0308 	sub.w	r3, r0, r8
 800a4fe:	fa09 f303 	lsl.w	r3, r9, r3
 800a502:	4313      	orrs	r3, r2
 800a504:	9304      	str	r3, [sp, #16]
 800a506:	46a2      	mov	sl, r4
 800a508:	e7d2      	b.n	800a4b0 <_svfiprintf_r+0x9c>
 800a50a:	9b03      	ldr	r3, [sp, #12]
 800a50c:	1d19      	adds	r1, r3, #4
 800a50e:	681b      	ldr	r3, [r3, #0]
 800a510:	9103      	str	r1, [sp, #12]
 800a512:	2b00      	cmp	r3, #0
 800a514:	bfbb      	ittet	lt
 800a516:	425b      	neglt	r3, r3
 800a518:	f042 0202 	orrlt.w	r2, r2, #2
 800a51c:	9307      	strge	r3, [sp, #28]
 800a51e:	9307      	strlt	r3, [sp, #28]
 800a520:	bfb8      	it	lt
 800a522:	9204      	strlt	r2, [sp, #16]
 800a524:	7823      	ldrb	r3, [r4, #0]
 800a526:	2b2e      	cmp	r3, #46	; 0x2e
 800a528:	d10c      	bne.n	800a544 <_svfiprintf_r+0x130>
 800a52a:	7863      	ldrb	r3, [r4, #1]
 800a52c:	2b2a      	cmp	r3, #42	; 0x2a
 800a52e:	d135      	bne.n	800a59c <_svfiprintf_r+0x188>
 800a530:	9b03      	ldr	r3, [sp, #12]
 800a532:	1d1a      	adds	r2, r3, #4
 800a534:	681b      	ldr	r3, [r3, #0]
 800a536:	9203      	str	r2, [sp, #12]
 800a538:	2b00      	cmp	r3, #0
 800a53a:	bfb8      	it	lt
 800a53c:	f04f 33ff 	movlt.w	r3, #4294967295	; 0xffffffff
 800a540:	3402      	adds	r4, #2
 800a542:	9305      	str	r3, [sp, #20]
 800a544:	f8df a0c8 	ldr.w	sl, [pc, #200]	; 800a610 <_svfiprintf_r+0x1fc>
 800a548:	7821      	ldrb	r1, [r4, #0]
 800a54a:	2203      	movs	r2, #3
 800a54c:	4650      	mov	r0, sl
 800a54e:	f7f5 fe47 	bl	80001e0 <memchr>
 800a552:	b140      	cbz	r0, 800a566 <_svfiprintf_r+0x152>
 800a554:	2340      	movs	r3, #64	; 0x40
 800a556:	eba0 000a 	sub.w	r0, r0, sl
 800a55a:	fa03 f000 	lsl.w	r0, r3, r0
 800a55e:	9b04      	ldr	r3, [sp, #16]
 800a560:	4303      	orrs	r3, r0
 800a562:	3401      	adds	r4, #1
 800a564:	9304      	str	r3, [sp, #16]
 800a566:	f814 1b01 	ldrb.w	r1, [r4], #1
 800a56a:	4826      	ldr	r0, [pc, #152]	; (800a604 <_svfiprintf_r+0x1f0>)
 800a56c:	f88d 1028 	strb.w	r1, [sp, #40]	; 0x28
 800a570:	2206      	movs	r2, #6
 800a572:	f7f5 fe35 	bl	80001e0 <memchr>
 800a576:	2800      	cmp	r0, #0
 800a578:	d038      	beq.n	800a5ec <_svfiprintf_r+0x1d8>
 800a57a:	4b23      	ldr	r3, [pc, #140]	; (800a608 <_svfiprintf_r+0x1f4>)
 800a57c:	bb1b      	cbnz	r3, 800a5c6 <_svfiprintf_r+0x1b2>
 800a57e:	9b03      	ldr	r3, [sp, #12]
 800a580:	3307      	adds	r3, #7
 800a582:	f023 0307 	bic.w	r3, r3, #7
 800a586:	3308      	adds	r3, #8
 800a588:	9303      	str	r3, [sp, #12]
 800a58a:	9b09      	ldr	r3, [sp, #36]	; 0x24
 800a58c:	4433      	add	r3, r6
 800a58e:	9309      	str	r3, [sp, #36]	; 0x24
 800a590:	e767      	b.n	800a462 <_svfiprintf_r+0x4e>
 800a592:	fb0c 3202 	mla	r2, ip, r2, r3
 800a596:	460c      	mov	r4, r1
 800a598:	2001      	movs	r0, #1
 800a59a:	e7a5      	b.n	800a4e8 <_svfiprintf_r+0xd4>
 800a59c:	2300      	movs	r3, #0
 800a59e:	3401      	adds	r4, #1
 800a5a0:	9305      	str	r3, [sp, #20]
 800a5a2:	4619      	mov	r1, r3
 800a5a4:	f04f 0c0a 	mov.w	ip, #10
 800a5a8:	4620      	mov	r0, r4
 800a5aa:	f810 2b01 	ldrb.w	r2, [r0], #1
 800a5ae:	3a30      	subs	r2, #48	; 0x30
 800a5b0:	2a09      	cmp	r2, #9
 800a5b2:	d903      	bls.n	800a5bc <_svfiprintf_r+0x1a8>
 800a5b4:	2b00      	cmp	r3, #0
 800a5b6:	d0c5      	beq.n	800a544 <_svfiprintf_r+0x130>
 800a5b8:	9105      	str	r1, [sp, #20]
 800a5ba:	e7c3      	b.n	800a544 <_svfiprintf_r+0x130>
 800a5bc:	fb0c 2101 	mla	r1, ip, r1, r2
 800a5c0:	4604      	mov	r4, r0
 800a5c2:	2301      	movs	r3, #1
 800a5c4:	e7f0      	b.n	800a5a8 <_svfiprintf_r+0x194>
 800a5c6:	ab03      	add	r3, sp, #12
 800a5c8:	9300      	str	r3, [sp, #0]
 800a5ca:	462a      	mov	r2, r5
 800a5cc:	4b0f      	ldr	r3, [pc, #60]	; (800a60c <_svfiprintf_r+0x1f8>)
 800a5ce:	a904      	add	r1, sp, #16
 800a5d0:	4638      	mov	r0, r7
 800a5d2:	f3af 8000 	nop.w
 800a5d6:	1c42      	adds	r2, r0, #1
 800a5d8:	4606      	mov	r6, r0
 800a5da:	d1d6      	bne.n	800a58a <_svfiprintf_r+0x176>
 800a5dc:	89ab      	ldrh	r3, [r5, #12]
 800a5de:	065b      	lsls	r3, r3, #25
 800a5e0:	f53f af2c 	bmi.w	800a43c <_svfiprintf_r+0x28>
 800a5e4:	9809      	ldr	r0, [sp, #36]	; 0x24
 800a5e6:	b01d      	add	sp, #116	; 0x74
 800a5e8:	e8bd 8ff0 	ldmia.w	sp!, {r4, r5, r6, r7, r8, r9, sl, fp, pc}
 800a5ec:	ab03      	add	r3, sp, #12
 800a5ee:	9300      	str	r3, [sp, #0]
 800a5f0:	462a      	mov	r2, r5
 800a5f2:	4b06      	ldr	r3, [pc, #24]	; (800a60c <_svfiprintf_r+0x1f8>)
 800a5f4:	a904      	add	r1, sp, #16
 800a5f6:	4638      	mov	r0, r7
 800a5f8:	f7ff f988 	bl	800990c <_printf_i>
 800a5fc:	e7eb      	b.n	800a5d6 <_svfiprintf_r+0x1c2>
 800a5fe:	bf00      	nop
 800a600:	0800ad5c 	.word	0x0800ad5c
 800a604:	0800ad66 	.word	0x0800ad66
 800a608:	00000000 	.word	0x00000000
 800a60c:	0800a35d 	.word	0x0800a35d
 800a610:	0800ad62 	.word	0x0800ad62

0800a614 <_sbrk_r>:
 800a614:	b538      	push	{r3, r4, r5, lr}
 800a616:	4d06      	ldr	r5, [pc, #24]	; (800a630 <_sbrk_r+0x1c>)
 800a618:	2300      	movs	r3, #0
 800a61a:	4604      	mov	r4, r0
 800a61c:	4608      	mov	r0, r1
 800a61e:	602b      	str	r3, [r5, #0]
 800a620:	f7f6 fa3e 	bl	8000aa0 <_sbrk>
 800a624:	1c43      	adds	r3, r0, #1
 800a626:	d102      	bne.n	800a62e <_sbrk_r+0x1a>
 800a628:	682b      	ldr	r3, [r5, #0]
 800a62a:	b103      	cbz	r3, 800a62e <_sbrk_r+0x1a>
 800a62c:	6023      	str	r3, [r4, #0]
 800a62e:	bd38      	pop	{r3, r4, r5, pc}
 800a630:	2000ad98 	.word	0x2000ad98

0800a634 <__sread>:
 800a634:	b510      	push	{r4, lr}
 800a636:	460c      	mov	r4, r1
 800a638:	f9b1 100e 	ldrsh.w	r1, [r1, #14]
 800a63c:	f000 f8a8 	bl	800a790 <_read_r>
 800a640:	2800      	cmp	r0, #0
 800a642:	bfab      	itete	ge
 800a644:	6d63      	ldrge	r3, [r4, #84]	; 0x54
 800a646:	89a3      	ldrhlt	r3, [r4, #12]
 800a648:	181b      	addge	r3, r3, r0
 800a64a:	f423 5380 	biclt.w	r3, r3, #4096	; 0x1000
 800a64e:	bfac      	ite	ge
 800a650:	6563      	strge	r3, [r4, #84]	; 0x54
 800a652:	81a3      	strhlt	r3, [r4, #12]
 800a654:	bd10      	pop	{r4, pc}

0800a656 <__swrite>:
 800a656:	e92d 41f0 	stmdb	sp!, {r4, r5, r6, r7, r8, lr}
 800a65a:	461f      	mov	r7, r3
 800a65c:	898b      	ldrh	r3, [r1, #12]
 800a65e:	05db      	lsls	r3, r3, #23
 800a660:	4605      	mov	r5, r0
 800a662:	460c      	mov	r4, r1
 800a664:	4616      	mov	r6, r2
 800a666:	d505      	bpl.n	800a674 <__swrite+0x1e>
 800a668:	f9b1 100e 	ldrsh.w	r1, [r1, #14]
 800a66c:	2302      	movs	r3, #2
 800a66e:	2200      	movs	r2, #0
 800a670:	f000 f868 	bl	800a744 <_lseek_r>
 800a674:	89a3      	ldrh	r3, [r4, #12]
 800a676:	f9b4 100e 	ldrsh.w	r1, [r4, #14]
 800a67a:	f423 5380 	bic.w	r3, r3, #4096	; 0x1000
 800a67e:	81a3      	strh	r3, [r4, #12]
 800a680:	4632      	mov	r2, r6
 800a682:	463b      	mov	r3, r7
 800a684:	4628      	mov	r0, r5
 800a686:	e8bd 41f0 	ldmia.w	sp!, {r4, r5, r6, r7, r8, lr}
 800a68a:	f000 b817 	b.w	800a6bc <_write_r>

0800a68e <__sseek>:
 800a68e:	b510      	push	{r4, lr}
 800a690:	460c      	mov	r4, r1
 800a692:	f9b1 100e 	ldrsh.w	r1, [r1, #14]
 800a696:	f000 f855 	bl	800a744 <_lseek_r>
 800a69a:	1c43      	adds	r3, r0, #1
 800a69c:	89a3      	ldrh	r3, [r4, #12]
 800a69e:	bf15      	itete	ne
 800a6a0:	6560      	strne	r0, [r4, #84]	; 0x54
 800a6a2:	f423 5380 	biceq.w	r3, r3, #4096	; 0x1000
 800a6a6:	f443 5380 	orrne.w	r3, r3, #4096	; 0x1000
 800a6aa:	81a3      	strheq	r3, [r4, #12]
 800a6ac:	bf18      	it	ne
 800a6ae:	81a3      	strhne	r3, [r4, #12]
 800a6b0:	bd10      	pop	{r4, pc}

0800a6b2 <__sclose>:
 800a6b2:	f9b1 100e 	ldrsh.w	r1, [r1, #14]
 800a6b6:	f000 b813 	b.w	800a6e0 <_close_r>
	...

0800a6bc <_write_r>:
 800a6bc:	b538      	push	{r3, r4, r5, lr}
 800a6be:	4d07      	ldr	r5, [pc, #28]	; (800a6dc <_write_r+0x20>)
 800a6c0:	4604      	mov	r4, r0
 800a6c2:	4608      	mov	r0, r1
 800a6c4:	4611      	mov	r1, r2
 800a6c6:	2200      	movs	r2, #0
 800a6c8:	602a      	str	r2, [r5, #0]
 800a6ca:	461a      	mov	r2, r3
 800a6cc:	f7f6 f9cf 	bl	8000a6e <_write>
 800a6d0:	1c43      	adds	r3, r0, #1
 800a6d2:	d102      	bne.n	800a6da <_write_r+0x1e>
 800a6d4:	682b      	ldr	r3, [r5, #0]
 800a6d6:	b103      	cbz	r3, 800a6da <_write_r+0x1e>
 800a6d8:	6023      	str	r3, [r4, #0]
 800a6da:	bd38      	pop	{r3, r4, r5, pc}
 800a6dc:	2000ad98 	.word	0x2000ad98

0800a6e0 <_close_r>:
 800a6e0:	b538      	push	{r3, r4, r5, lr}
 800a6e2:	4d06      	ldr	r5, [pc, #24]	; (800a6fc <_close_r+0x1c>)
 800a6e4:	2300      	movs	r3, #0
 800a6e6:	4604      	mov	r4, r0
 800a6e8:	4608      	mov	r0, r1
 800a6ea:	602b      	str	r3, [r5, #0]
 800a6ec:	f7f6 f9cc 	bl	8000a88 <_close>
 800a6f0:	1c43      	adds	r3, r0, #1
 800a6f2:	d102      	bne.n	800a6fa <_close_r+0x1a>
 800a6f4:	682b      	ldr	r3, [r5, #0]
 800a6f6:	b103      	cbz	r3, 800a6fa <_close_r+0x1a>
 800a6f8:	6023      	str	r3, [r4, #0]
 800a6fa:	bd38      	pop	{r3, r4, r5, pc}
 800a6fc:	2000ad98 	.word	0x2000ad98

0800a700 <_fstat_r>:
 800a700:	b538      	push	{r3, r4, r5, lr}
 800a702:	4d07      	ldr	r5, [pc, #28]	; (800a720 <_fstat_r+0x20>)
 800a704:	2300      	movs	r3, #0
 800a706:	4604      	mov	r4, r0
 800a708:	4608      	mov	r0, r1
 800a70a:	4611      	mov	r1, r2
 800a70c:	602b      	str	r3, [r5, #0]
 800a70e:	f7f6 f9be 	bl	8000a8e <_fstat>
 800a712:	1c43      	adds	r3, r0, #1
 800a714:	d102      	bne.n	800a71c <_fstat_r+0x1c>
 800a716:	682b      	ldr	r3, [r5, #0]
 800a718:	b103      	cbz	r3, 800a71c <_fstat_r+0x1c>
 800a71a:	6023      	str	r3, [r4, #0]
 800a71c:	bd38      	pop	{r3, r4, r5, pc}
 800a71e:	bf00      	nop
 800a720:	2000ad98 	.word	0x2000ad98

0800a724 <_isatty_r>:
 800a724:	b538      	push	{r3, r4, r5, lr}
 800a726:	4d06      	ldr	r5, [pc, #24]	; (800a740 <_isatty_r+0x1c>)
 800a728:	2300      	movs	r3, #0
 800a72a:	4604      	mov	r4, r0
 800a72c:	4608      	mov	r0, r1
 800a72e:	602b      	str	r3, [r5, #0]
 800a730:	f7f6 f9b2 	bl	8000a98 <_isatty>
 800a734:	1c43      	adds	r3, r0, #1
 800a736:	d102      	bne.n	800a73e <_isatty_r+0x1a>
 800a738:	682b      	ldr	r3, [r5, #0]
 800a73a:	b103      	cbz	r3, 800a73e <_isatty_r+0x1a>
 800a73c:	6023      	str	r3, [r4, #0]
 800a73e:	bd38      	pop	{r3, r4, r5, pc}
 800a740:	2000ad98 	.word	0x2000ad98

0800a744 <_lseek_r>:
 800a744:	b538      	push	{r3, r4, r5, lr}
 800a746:	4d07      	ldr	r5, [pc, #28]	; (800a764 <_lseek_r+0x20>)
 800a748:	4604      	mov	r4, r0
 800a74a:	4608      	mov	r0, r1
 800a74c:	4611      	mov	r1, r2
 800a74e:	2200      	movs	r2, #0
 800a750:	602a      	str	r2, [r5, #0]
 800a752:	461a      	mov	r2, r3
 800a754:	f7f6 f9a2 	bl	8000a9c <_lseek>
 800a758:	1c43      	adds	r3, r0, #1
 800a75a:	d102      	bne.n	800a762 <_lseek_r+0x1e>
 800a75c:	682b      	ldr	r3, [r5, #0]
 800a75e:	b103      	cbz	r3, 800a762 <_lseek_r+0x1e>
 800a760:	6023      	str	r3, [r4, #0]
 800a762:	bd38      	pop	{r3, r4, r5, pc}
 800a764:	2000ad98 	.word	0x2000ad98

0800a768 <__malloc_lock>:
 800a768:	4801      	ldr	r0, [pc, #4]	; (800a770 <__malloc_lock+0x8>)
 800a76a:	f7fe bec8 	b.w	80094fe <__retarget_lock_acquire_recursive>
 800a76e:	bf00      	nop
 800a770:	2000ad90 	.word	0x2000ad90

0800a774 <__malloc_unlock>:
 800a774:	4801      	ldr	r0, [pc, #4]	; (800a77c <__malloc_unlock+0x8>)
 800a776:	f7fe bec3 	b.w	8009500 <__retarget_lock_release_recursive>
 800a77a:	bf00      	nop
 800a77c:	2000ad90 	.word	0x2000ad90

0800a780 <_malloc_usable_size_r>:
 800a780:	f851 3c04 	ldr.w	r3, [r1, #-4]
 800a784:	1f18      	subs	r0, r3, #4
 800a786:	2b00      	cmp	r3, #0
 800a788:	bfbc      	itt	lt
 800a78a:	580b      	ldrlt	r3, [r1, r0]
 800a78c:	18c0      	addlt	r0, r0, r3
 800a78e:	4770      	bx	lr

0800a790 <_read_r>:
 800a790:	b538      	push	{r3, r4, r5, lr}
 800a792:	4d07      	ldr	r5, [pc, #28]	; (800a7b0 <_read_r+0x20>)
 800a794:	4604      	mov	r4, r0
 800a796:	4608      	mov	r0, r1
 800a798:	4611      	mov	r1, r2
 800a79a:	2200      	movs	r2, #0
 800a79c:	602a      	str	r2, [r5, #0]
 800a79e:	461a      	mov	r2, r3
 800a7a0:	f7f6 f958 	bl	8000a54 <_read>
 800a7a4:	1c43      	adds	r3, r0, #1
 800a7a6:	d102      	bne.n	800a7ae <_read_r+0x1e>
 800a7a8:	682b      	ldr	r3, [r5, #0]
 800a7aa:	b103      	cbz	r3, 800a7ae <_read_r+0x1e>
 800a7ac:	6023      	str	r3, [r4, #0]
 800a7ae:	bd38      	pop	{r3, r4, r5, pc}
 800a7b0:	2000ad98 	.word	0x2000ad98

0800a7b4 <_init>:
 800a7b4:	b5f8      	push	{r3, r4, r5, r6, r7, lr}
 800a7b6:	bf00      	nop
 800a7b8:	bcf8      	pop	{r3, r4, r5, r6, r7}
 800a7ba:	bc08      	pop	{r3}
 800a7bc:	469e      	mov	lr, r3
 800a7be:	4770      	bx	lr

0800a7c0 <_fini>:
 800a7c0:	b5f8      	push	{r3, r4, r5, r6, r7, lr}
 800a7c2:	bf00      	nop
 800a7c4:	bcf8      	pop	{r3, r4, r5, r6, r7}
 800a7c6:	bc08      	pop	{r3}
 800a7c8:	469e      	mov	lr, r3
 800a7ca:	4770      	bx	lr
